
zephyr.elf:     file format elf32-xtensa-le


Disassembly of section .iram0.vectors:

40080000 <_WindowOverflow4>:
40080000:	49c500        	s32e	a0, a5, -16
40080003:	49d510        	s32e	a1, a5, -12
40080006:	49e520        	s32e	a2, a5, -8
40080009:	49f530        	s32e	a3, a5, -4
4008000c:	003400        	rfwo
	...

40080040 <_WindowUnderflow4>:
40080040:	09c500        	l32e	a0, a5, -16
40080043:	09d510        	l32e	a1, a5, -12
40080046:	09e520        	l32e	a2, a5, -8
40080049:	09f530        	l32e	a3, a5, -4
4008004c:	003500        	rfwu
	...

40080050 <_xt_alloca_exc>:
40080050:	034800        	rsr.windowbase	a0
40080053:	4080f0        	rotw	-1
40080056:	03e620        	rsr.ps	a2
40080059:	343820        	extui	a3, a2, 8, 4
4008005c:	303340        	xor	a3, a3, a4
4008005f:	03f440        	rsr.misc0	a4
40080062:	113380        	slli	a3, a3, 8
40080065:	302230        	xor	a2, a2, a3
40080068:	13e620        	wsr.ps	a2
4008006b:	002010        	rsync
4008006e:	ce74f7        	bbci	a4, 31, 40080040 <_WindowUnderflow4>
40080071:	4080f0        	rotw	-1
40080074:	4878e7        	bbci	a8, 30, 400800c0 <_WindowUnderflow8>
40080077:	4080f0        	rotw	-1
4008007a:	003086        	j	40080140 <_WindowUnderflow12>
4008007d:	000000        	ill

40080080 <_WindowOverflow8>:
40080080:	49c900        	s32e	a0, a9, -16
40080083:	09d100        	l32e	a0, a1, -12
40080086:	49d910        	s32e	a1, a9, -12
40080089:	49e920        	s32e	a2, a9, -8
4008008c:	49f930        	s32e	a3, a9, -4
4008008f:	498040        	s32e	a4, a0, -32
40080092:	499050        	s32e	a5, a0, -28
40080095:	49a060        	s32e	a6, a0, -24
40080098:	49b070        	s32e	a7, a0, -20
4008009b:	003400        	rfwo
	...

400800c0 <_WindowUnderflow8>:
400800c0:	09c900        	l32e	a0, a9, -16
400800c3:	09d910        	l32e	a1, a9, -12
400800c6:	09e920        	l32e	a2, a9, -8
400800c9:	09d170        	l32e	a7, a1, -12
400800cc:	09f930        	l32e	a3, a9, -4
400800cf:	098740        	l32e	a4, a7, -32
400800d2:	099750        	l32e	a5, a7, -28
400800d5:	09a760        	l32e	a6, a7, -24
400800d8:	09b770        	l32e	a7, a7, -20
400800db:	003500        	rfwu
	...

40080100 <_WindowOverflow12>:
40080100:	49cd00        	s32e	a0, a13, -16
40080103:	09d100        	l32e	a0, a1, -12
40080106:	49dd10        	s32e	a1, a13, -12
40080109:	49ed20        	s32e	a2, a13, -8
4008010c:	49fd30        	s32e	a3, a13, -4
4008010f:	494040        	s32e	a4, a0, -48
40080112:	495050        	s32e	a5, a0, -44
40080115:	496060        	s32e	a6, a0, -40
40080118:	497070        	s32e	a7, a0, -36
4008011b:	498080        	s32e	a8, a0, -32
4008011e:	499090        	s32e	a9, a0, -28
40080121:	49a0a0        	s32e	a10, a0, -24
40080124:	49b0b0        	s32e	a11, a0, -20
40080127:	003400        	rfwo
	...

40080140 <_WindowUnderflow12>:
40080140:	09cd00        	l32e	a0, a13, -16
40080143:	09dd10        	l32e	a1, a13, -12
40080146:	09ed20        	l32e	a2, a13, -8
40080149:	09d1b0        	l32e	a11, a1, -12
4008014c:	09fd30        	l32e	a3, a13, -4
4008014f:	094b40        	l32e	a4, a11, -48
40080152:	095b50        	l32e	a5, a11, -44
40080155:	096b60        	l32e	a6, a11, -40
40080158:	097b70        	l32e	a7, a11, -36
4008015b:	098b80        	l32e	a8, a11, -32
4008015e:	099b90        	l32e	a9, a11, -28
40080161:	09aba0        	l32e	a10, a11, -24
40080164:	09bbb0        	l32e	a11, a11, -20
40080167:	003500        	rfwu
	...

40080180 <_Level2Vector>:
40080180:	c0c112        	addi	a1, a1, -64
40080183:	8109      	s32i.n	a0, a1, 32
40080185:	a129      	s32i.n	a2, a1, 40
40080187:	b139      	s32i.n	a3, a1, 44
40080189:	03c200        	rsr.eps2	a0
4008018c:	6109      	s32i.n	a0, a1, 24
4008018e:	03b200        	rsr.epc2	a0
40080191:	7109      	s32i.n	a0, a1, 28
40080193:	000246        	j	400801a0 <_after_imms2>
	...

40080198 <_handle_excint_imm2>:
40080198:	0a58      	l32i.n	a5, a10, 0
4008019a:	4008      	l32i.n	a0, a0, 16

4008019c <_c_handler_imm2>:
4008019c:	0d6c      	movi.n	a13, -32
4008019e:	4008      	l32i.n	a0, a0, 16

400801a0 <_after_imms2>:
400801a0:	ffff21        	l32r	a2, 4008019c <_c_handler_imm2> (40080d6c <xtensa_int2_c>)
400801a3:	fffd01        	l32r	a0, 40080198 <_handle_excint_imm2> (40080a58 <_handle_excint>)
400801a6:	0000a0        	jx	a0
	...

400801c0 <_Level3Vector>:
400801c0:	c0c112        	addi	a1, a1, -64
400801c3:	8109      	s32i.n	a0, a1, 32
400801c5:	a129      	s32i.n	a2, a1, 40
400801c7:	b139      	s32i.n	a3, a1, 44
400801c9:	03c300        	rsr.eps3	a0
400801cc:	6109      	s32i.n	a0, a1, 24
400801ce:	03b300        	rsr.epc3	a0
400801d1:	7109      	s32i.n	a0, a1, 28
400801d3:	000146        	j	400801dc <_after_imms3>
	...

400801d8 <_c_handler_imm3>:
400801d8:	0dc8      	l32i.n	a12, a13, 0
400801da:	4008      	l32i.n	a0, a0, 16

400801dc <_after_imms3>:
400801dc:	ffff21        	l32r	a2, 400801d8 <_c_handler_imm3> (40080dc8 <xtensa_int3_c>)
400801df:	ffee01        	l32r	a0, 40080198 <_handle_excint_imm2> (40080a58 <_handle_excint>)
400801e2:	0000a0        	jx	a0
	...

40080200 <_Level4Vector>:
40080200:	c0c112        	addi	a1, a1, -64
40080203:	8109      	s32i.n	a0, a1, 32
40080205:	a129      	s32i.n	a2, a1, 40
40080207:	b139      	s32i.n	a3, a1, 44
40080209:	03c400        	rsr.eps4	a0
4008020c:	6109      	s32i.n	a0, a1, 24
4008020e:	03b400        	rsr.epc4	a0
40080211:	7109      	s32i.n	a0, a1, 28
40080213:	000146        	j	4008021c <_after_imms4>
	...

40080218 <_c_handler_imm4>:
40080218:	0e4c      	movi.n	a14, 64
4008021a:	4008      	l32i.n	a0, a0, 16

4008021c <_after_imms4>:
4008021c:	ffff21        	l32r	a2, 40080218 <_c_handler_imm4> (40080e4c <xtensa_int4_c>)
4008021f:	ffde01        	l32r	a0, 40080198 <_handle_excint_imm2> (40080a58 <_handle_excint>)
40080222:	0000a0        	jx	a0
	...

40080240 <_Level5Vector>:
40080240:	c0c112        	addi	a1, a1, -64
40080243:	8109      	s32i.n	a0, a1, 32
40080245:	a129      	s32i.n	a2, a1, 40
40080247:	b139      	s32i.n	a3, a1, 44
40080249:	03c500        	rsr.eps5	a0
4008024c:	6109      	s32i.n	a0, a1, 24
4008024e:	03b500        	rsr.epc5	a0
40080251:	7109      	s32i.n	a0, a1, 28
40080253:	000146        	j	4008025c <_after_imms5>
	...

40080258 <_c_handler_imm5>:
40080258:	0eb8      	l32i.n	a11, a14, 0
4008025a:	4008      	l32i.n	a0, a0, 16

4008025c <_after_imms5>:
4008025c:	ffff21        	l32r	a2, 40080258 <_c_handler_imm5> (40080eb8 <xtensa_int5_c>)
4008025f:	ffce01        	l32r	a0, 40080198 <_handle_excint_imm2> (40080a58 <_handle_excint>)
40080262:	0000a0        	jx	a0
	...

40080280 <_Level6Vector>:
40080280:	c0c112        	addi	a1, a1, -64
40080283:	8109      	s32i.n	a0, a1, 32
40080285:	a129      	s32i.n	a2, a1, 40
40080287:	b139      	s32i.n	a3, a1, 44
40080289:	03c600        	rsr.eps6	a0
4008028c:	6109      	s32i.n	a0, a1, 24
4008028e:	03b600        	rsr.epc6	a0
40080291:	7109      	s32i.n	a0, a1, 28
40080293:	000146        	j	4008029c <_after_imms6>
	...

40080298 <_c_handler_imm6>:
40080298:	0f18      	l32i.n	a1, a15, 0
4008029a:	4008      	l32i.n	a0, a0, 16

4008029c <_after_imms6>:
4008029c:	ffff21        	l32r	a2, 40080298 <_c_handler_imm6> (40080f18 <xtensa_int6_c>)
4008029f:	ffbe01        	l32r	a0, 40080198 <_handle_excint_imm2> (40080a58 <_handle_excint>)
400802a2:	0000a0        	jx	a0
	...

400802c0 <_Level7Vector>:
400802c0:	c0c112        	addi	a1, a1, -64
400802c3:	8109      	s32i.n	a0, a1, 32
400802c5:	a129      	s32i.n	a2, a1, 40
400802c7:	b139      	s32i.n	a3, a1, 44
400802c9:	03c700        	rsr.eps7	a0
400802cc:	6109      	s32i.n	a0, a1, 24
400802ce:	03b700        	rsr.epc7	a0
400802d1:	7109      	s32i.n	a0, a1, 28
400802d3:	000146        	j	400802dc <_after_imms7>
	...

400802d8 <_c_handler_imm7>:
400802d8:	080f30        	lsx	f0, a15, a3
400802db:	40          	.byte 0x40

400802dc <_after_imms7>:
400802dc:	ffff21        	l32r	a2, 400802d8 <_c_handler_imm7> (40080f30 <xtensa_int7_c>)
400802df:	ffae01        	l32r	a0, 40080198 <_handle_excint_imm2> (40080a58 <_handle_excint>)
400802e2:	0000a0        	jx	a0
	...

40080300 <_KernelExceptionVector>:
40080300:	016606        	j	4008089c <_Level1Vector>
	...

40080340 <_Level1RealVector>:
40080340:	13f400        	wsr.misc0	a0
40080343:	03e800        	rsr.exccause	a0
40080346:	025066        	bnei	a0, 5, 4008034c <_not_alloca>
40080349:	ff40c6        	j	40080050 <_xt_alloca_exc>

4008034c <_not_alloca>:
4008034c:	03f400        	rsr.misc0	a0
4008034f:	015246        	j	4008089c <_Level1Vector>
	...

400803c0 <_DoubleExceptionVector>:
400803c0:	004140        	break	1, 4
400803c3:	fffe46        	j	400803c0 <_DoubleExceptionVector>
	...

Disassembly of section text:

40080400 <__esp_platform_start-0x21c>:
40080400:	40080000 	
40080404:	00040023 	
40080408:	3ffb20b0 	
4008040c:	3ff480a4 	
40080410:	50d83aa1 	
40080414:	3ff4808c 	
40080418:	7fffffff 	
4008041c:	3ffb1dc8 	
40080420:	400041a4 	
40080424:	3ffe01e0 	
40080428:	bff30000 	
4008042c:	0032ffff 	
40080430:	bff88000 	
40080434:	00027fff 	
40080438:	00064eff 	
4008043c:	bff40000 	
40080440:	00001fff 	
40080444:	4000681c 	
40080448:	3f401478 	
4008044c:	3f401460 	
40080450:	3ffb0138 	
40080454:	3ffb0038 	
40080458:	40080a54 	
4008045c:	400d0c9c 	
40080460:	00050020 	
40080464:	3ffb0306 	
40080468:	3ffb0830 	
4008046c:	3ffb0333 	
40080470:	01000006 	
40080474:	3ffb0353 	
40080478:	3ffb0373 	
4008047c:	3ffb0393 	
40080480:	3ffb03b3 	
40080484:	3ffb03d1 	
40080488:	3ffb064c 	
4008048c:	00408800 	
40080490:	3ffb03dc 	
40080494:	400809ef 	
40080498:	3ffb03f4 	
4008049c:	3ffb0408 	
400804a0:	01000005 	
400804a4:	3ffb0424 	
400804a8:	3ffb0438 	
400804ac:	3ffb0443 	
400804b0:	3fffffff 	
400804b4:	3ffb1dd4 	
400804b8:	3ffb1dd8 	
400804bc:	c0051ff0 	
400804c0:	00051fe0 	
400804c4:	3ffb0488 	
400804c8:	3ffb0497 	
400804cc:	3ffb04a6 	
400804d0:	3ffb04b4 	
400804d4:	3ffb04c2 	
400804d8:	3ffb04dc 	
400804dc:	3ffb04eb 	
400804e0:	3ffb04f9 	
400804e4:	3ffb04c8 	
400804e8:	3ffb0501 	
400804ec:	3ffb0529 	
400804f0:	01000004 	
400804f4:	3ffb058c 	
400804f8:	3ffb2102 	
400804fc:	3ffb1d30 	
40080500:	3ffb2108 	
40080504:	3ffb0840 	
40080508:	3ffb1cd8 	
4008050c:	4008179c 	
40080510:	3ffe5e30 	
40080514:	3ffe5630 	
40080518:	4008145c 	
4008051c:	3ffe6230 	
40080520:	3ffb05a4 	
40080524:	3ffb0790 	
40080528:	3ffb07b8 	
4008052c:	40081d58 	
40080530:	3f4014a8 	
40080534:	3ffb2103 	
40080538:	3ffb2103 	
4008053c:	3ffb20d4 	
40080540:	3ffb20d0 	
40080544:	3ffb2103 	
40080548:	3ffb1d88 	
4008054c:	aaaaaaab 	
40080550:	400819b0 	
40080554:	3ffb2104 	
40080558:	3ffb20c8 	
4008055c:	4000cff8 	
40080560:	3ffb20d8 	
40080564:	3ffb0030 	
40080568:	3ffb1da0 	
4008056c:	0e4e1c00 	
40080570:	000f4240 	
40080574:	4008253c 	
40080578:	3ffb07a4 	
4008057c:	3f401328 	
40080580:	fffbfff0 	
40080584:	3ffb20ac 	
40080588:	057619f1 	
4008058c:	0002bb0b 	
40080590:	00005dbf 	
40080594:	3ffb0838 	
40080598:	40082ab8 	
4008059c:	3ffb1ca0 	
400805a0:	40082d9c 	
400805a4:	3ffe5230 	
400805a8:	3ffb1c40 	
400805ac:	3ffb0640 	
400805b0:	3ffb07e0 	
400805b4:	3ffb1db8 	
400805b8:	3ffb20dc 	
400805bc:	3ffb1db0 	
400805c0:	3ffb1db4 	
400805c4:	3ffb062c 	
400805c8:	3ffb0754 	
400805cc:	3ffb1da8 	
400805d0:	3ffb20dd 	
400805d4:	3ffb0004 	
400805d8:	40082aa4 	
400805dc:	3ffb1c98 	
400805e0:	3ffb1dac 	
400805e4:	4000d280 	
400805e8:	3ffb0624 	
400805ec:	3ffb0629 	
400805f0:	ffff87ff 	
400805f4:	ffff87fd 	
400805f8:	00004002 	
400805fc:	00000801 	
40080600:	00004000 	
40080604:	3ffb05ac 	
40080608:	3ffb0604 	
4008060c:	3f400bb5 	
40080610:	3ffb0820 	
40080614:	fff001ff 	
40080618:	40083970 	

4008061c <__esp_platform_start>:
4008061c:	004136        	entry	a1, 32
4008061f:	ff7881        	l32r	a8, 40080400 <_init_end> (40080000 <_WindowOverflow4>)
40080622:	13e780        	wsr.vecbase	a8
40080625:	00e765        	call8	4008149c <z_bss_zero>
40080628:	ff7781        	l32r	a8, 40080404 <_init_end+0x4> (40023 <CONFIG_ESP_HEAP_MEM_POOL_REGION_1_SIZE+0x34023>)
4008062b:	13e680        	wsr.ps	a8
4008062e:	ff7681        	l32r	a8, 40080408 <_init_end+0x8> (3ffb20b0 <_kernel>)
40080631:	13f480        	wsr.misc0	a8
40080634:	002010        	rsync
40080637:	ff7591        	l32r	a9, 4008040c <_init_end+0xc> (3ff480a4 <RTCCNTL+0xa4>)
4008063a:	ff7581        	l32r	a8, 40080410 <_init_end+0x10> (50d83aa1 <_rtc_bss_end+0xd83aa1>)
4008063d:	ff75a1        	l32r	a10, 40080414 <_init_end+0x14> (3ff4808c <RTCCNTL+0x8c>)
40080640:	0020c0        	memw
40080643:	006982        	s32i	a8, a9, 0
40080646:	0020c0        	memw
40080649:	002a82        	l32i	a8, a10, 0
4008064c:	ff73b1        	l32r	a11, 40080418 <_init_end+0x18> (7fffffff <_rtc_bss_end+0x2fffffff>)
4008064f:	1088b0        	and	a8, a8, a11
40080652:	0020c0        	memw
40080655:	006a82        	s32i	a8, a10, 0
40080658:	080c      	movi.n	a8, 0
4008065a:	0020c0        	memw
4008065d:	0989      	s32i.n	a8, a9, 0
4008065f:	51e025        	call8	400d2460 <esp_clk_init>
40080662:	52e765        	call8	400d34d8 <esp_timer_early_init>
40080665:	533c65        	call8	400d3a2c <esp_intr_initialize>
40080668:	00e9e5        	call8	40081508 <z_cstart>
	...

4008066c <regi2c_ctrl_write_reg>:
4008066c:	004136        	entry	a1, 32
4008066f:	74a020        	extui	a10, a2, 0, 8
40080672:	74b030        	extui	a11, a3, 0, 8
40080675:	74c040        	extui	a12, a4, 0, 8
40080678:	74d050        	extui	a13, a5, 0, 8
4008067b:	006380        	rsil	a8, 3
4008067e:	ff6761        	l32r	a6, 4008041c <_init_end+0x1c> (3ffb1dc8 <mux>)
40080681:	0689      	s32i.n	a8, a6, 0
40080683:	ff6781        	l32r	a8, 40080420 <_init_end+0x20> (400041a4 <rom_i2c_writeReg>)
40080686:	0008e0        	callx8	a8
40080689:	0668      	l32i.n	a6, a6, 0
4008068b:	13e660        	wsr.ps	a6
4008068e:	002010        	rsync
40080691:	f01d      	retw.n
	...

40080694 <ets_update_cpu_frequency>:
40080694:	004136        	entry	a1, 32
40080697:	ff6381        	l32r	a8, 40080424 <_init_end+0x24> (3ffe01e0 <g_ticks_per_us_pro>)
4008069a:	0829      	s32i.n	a2, a8, 0
4008069c:	f01d      	retw.n
	...

400806a0 <esp_ptr_executable>:
400806a0:	004136        	entry	a1, 32
400806a3:	ff6181        	l32r	a8, 40080428 <_init_end+0x28> (bff30000 <_rtc_bss_end+0x6ff30000>)
400806a6:	ff6191        	l32r	a9, 4008042c <_init_end+0x2c> (32ffff <CONFIG_ESP_HEAP_MEM_POOL_REGION_1_SIZE+0x323fff>)
400806a9:	828a      	add.n	a8, a2, a8
400806ab:	2bb987        	bgeu	a9, a8, 400806da <esp_ptr_executable+0x3a>
400806ae:	ff6081        	l32r	a8, 40080430 <_init_end+0x30> (bff88000 <_rtc_bss_end+0x6ff88000>)
400806b1:	ff6091        	l32r	a9, 40080434 <_init_end+0x34> (27fff <CONFIG_ESP_HEAP_MEM_POOL_REGION_1_SIZE+0x1bfff>)
400806b4:	828a      	add.n	a8, a2, a8
400806b6:	20b987        	bgeu	a9, a8, 400806da <esp_ptr_executable+0x3a>
400806b9:	f87c      	movi.n	a8, -1
400806bb:	018820        	slli	a8, a8, 30
400806be:	ff5ea1        	l32r	a10, 40080438 <_init_end+0x38> (64eff <CONFIG_ESP_HEAP_MEM_POOL_REGION_1_SIZE+0x58eff>)
400806c1:	928a      	add.n	a9, a2, a8
400806c3:	180c      	movi.n	a8, 1
400806c5:	13ba97        	bgeu	a10, a9, 400806dc <esp_ptr_executable+0x3c>
400806c8:	ff5d91        	l32r	a9, 4008043c <_init_end+0x3c> (bff40000 <_rtc_bss_end+0x6ff40000>)
400806cb:	229a      	add.n	a2, a2, a9
400806cd:	ff5c91        	l32r	a9, 40080440 <_init_end+0x40> (1fff <_image_iram_start+0x307>)
400806d0:	08b927        	bgeu	a9, a2, 400806dc <esp_ptr_executable+0x3c>
400806d3:	080c      	movi.n	a8, 0
400806d5:	0000c6        	j	400806dc <esp_ptr_executable+0x3c>
400806d8:	00          	.byte 00
400806d9:	00          	.byte 00
400806da:	180c      	movi.n	a8, 1
400806dc:	042080        	extui	a2, a8, 0, 1
400806df:	f01d      	retw.n
400806e1:	000000        	ill

400806e4 <z_xtensa_backtrace_get_start>:
400806e4:	004136        	entry	a1, 32
400806e7:	021fe5        	call8	400828e4 <xthal_window_spill>
400806ea:	002562        	l32i	a6, a5, 0
400806ed:	072672        	l32i	a7, a6, 28
400806f0:	006272        	s32i	a7, a2, 0
400806f3:	8678      	l32i.n	a7, a6, 32
400806f5:	0479      	s32i.n	a7, a4, 0
400806f7:	40c662        	addi	a6, a6, 64
400806fa:	0369      	s32i.n	a6, a3, 0
400806fc:	f01d      	retw.n
	...

40080700 <shared_intr_isr>:
40080700:	004136        	entry	a1, 32
40080703:	1228      	l32i.n	a2, a2, 4
40080705:	5317a5        	call8	400d3880 <esp_intr_lock>
40080708:	0007c6        	j	4008072b <shared_intr_isr+0x2b>
4008070b:	00          	.byte 00
4008070c:	001282        	l16ui	a8, a2, 0
4008070f:	16e807        	bbsi	a8, 0, 40080729 <shared_intr_isr+0x29>
40080712:	1288      	l32i.n	a8, a2, 4
40080714:	a88c      	beqz.n	a8, 40080722 <shared_intr_isr+0x22>
40080716:	0020c0        	memw
40080719:	002892        	l32i	a9, a8, 0
4008071c:	022282        	l32i	a8, a2, 8
4008071f:	060987        	bnone	a9, a8, 40080729 <shared_intr_isr+0x29>
40080722:	3288      	l32i.n	a8, a2, 12
40080724:	42a8      	l32i.n	a10, a2, 16
40080726:	0008e0        	callx8	a8
40080729:	5228      	l32i.n	a2, a2, 20
4008072b:	fdd256        	bnez	a2, 4008070c <shared_intr_isr+0xc>
4008072e:	531625        	call8	400d3890 <esp_intr_unlock>
40080731:	f01d      	retw.n
	...

40080734 <esp_intr_disable>:
40080734:	004136        	entry	a1, 32
40080737:	073216        	beqz	a2, 400807ae <esp_intr_disable+0x7a>
4008073a:	531465        	call8	400d3880 <esp_intr_lock>
4008073d:	012282        	l32i	a8, a2, 4
40080740:	035816        	beqz	a8, 40080779 <esp_intr_disable+0x45>
40080743:	001892        	l16ui	a9, a8, 0
40080746:	01a0a2        	movi	a10, 1
40080749:	2099a0        	or	a9, a9, a10
4008074c:	005892        	s16i	a9, a8, 0
4008074f:	1288      	l32i.n	a8, a2, 4
40080751:	08b8      	l32i.n	a11, a8, 0
40080753:	0288      	l32i.n	a8, a2, 0
40080755:	74b1b0        	extui	a11, a11, 1, 8
40080758:	1888      	l32i.n	a8, a8, 4
4008075a:	23bb00        	sext	a11, a11, 7
4008075d:	000486        	j	40080773 <esp_intr_disable+0x3f>
40080760:	0898      	l32i.n	a9, a8, 0
40080762:	019990        	slli	a9, a9, 23
40080765:	319890        	srai	a9, a9, 24
40080768:	0599b7        	bne	a9, a11, 40080771 <esp_intr_disable+0x3d>
4008076b:	001892        	l16ui	a9, a8, 0
4008076e:	5e6907        	bbci	a9, 0, 400807d0 <esp_intr_disable+0x9c>
40080771:	5888      	l32i.n	a8, a8, 20
40080773:	fe9856        	bnez	a8, 40080760 <esp_intr_disable+0x2c>
40080776:	001706        	j	400807d6 <esp_intr_disable+0xa2>
40080779:	0288      	l32i.n	a8, a2, 0
4008077b:	0888      	l32i.n	a8, a8, 0
4008077d:	1188e0        	slli	a8, a8, 2
40080780:	31b880        	srai	a11, a8, 24
40080783:	011896        	bltz	a8, 40080798 <esp_intr_disable+0x64>
40080786:	0228      	l32i.n	a2, a2, 0
40080788:	6c0c      	movi.n	a12, 6
4008078a:	02a8      	l32i.n	a10, a2, 0
4008078c:	05a0a0        	extui	a10, a10, 16, 1
4008078f:	ff2d81        	l32r	a8, 40080444 <_init_end+0x44> (4000681c <intr_matrix_set>)
40080792:	0008e0        	callx8	a8
40080795:	000b06        	j	400807c5 <esp_intr_disable+0x91>
40080798:	0288      	l32i.n	a8, a2, 0
4008079a:	03eb20        	rsr.prid	a2
4008079d:	042d20        	extui	a2, a2, 13, 1
400807a0:	08a8      	l32i.n	a10, a8, 0
400807a2:	0580a0        	extui	a8, a10, 16, 1
400807a5:	0b1827        	beq	a8, a2, 400807b4 <esp_intr_disable+0x80>
400807a8:	201110        	or	a1, a1, a1
400807ab:	530e65        	call8	400d3890 <esp_intr_unlock>
400807ae:	a26c      	movi.n	a2, -22
400807b0:	000a06        	j	400807dc <esp_intr_disable+0xa8>
400807b3:	00          	.byte 00
400807b4:	45a1a0        	extui	a10, a10, 17, 5
400807b7:	120c      	movi.n	a2, 1
400807b9:	401a00        	ssl	a10
400807bc:	a1a200        	sll	a10, a2
400807bf:	201110        	or	a1, a1, a1
400807c2:	542725        	call8	400d4a34 <z_xt_ints_off>
400807c5:	530ca5        	call8	400d3890 <esp_intr_unlock>
400807c8:	020c      	movi.n	a2, 0
400807ca:	000386        	j	400807dc <esp_intr_disable+0xa8>
400807cd:	00          	.byte 00
400807ce:	00          	.byte 00
400807cf:	00          	.byte 00
400807d0:	ff1bd6        	bgez	a11, 400807c5 <esp_intr_disable+0x91>
400807d3:	fff046        	j	40080798 <esp_intr_disable+0x64>
400807d6:	fbeb96        	bltz	a11, 40080798 <esp_intr_disable+0x64>
400807d9:	ffea46        	j	40080786 <esp_intr_disable+0x52>
400807dc:	f01d      	retw.n
	...

400807e0 <gpio_esp32_isr>:
400807e0:	004136        	entry	a1, 32
400807e3:	ff19a1        	l32r	a10, 40080448 <_init_end+0x48> (3f401478 <__device_dts_ord_13>)
400807e6:	0000e5        	call8	400807f4 <gpio_esp32_fire_callbacks>
400807e9:	ff18a1        	l32r	a10, 4008044c <_init_end+0x4c> (3f401460 <__device_dts_ord_75>)
400807ec:	000065        	call8	400807f4 <gpio_esp32_fire_callbacks>
400807ef:	f01d      	retw.n
400807f1:	000000        	ill

400807f4 <gpio_esp32_fire_callbacks>:
400807f4:	006136        	entry	a1, 48
400807f7:	1248      	l32i.n	a4, a2, 4
400807f9:	4258      	l32i.n	a5, a2, 16
400807fb:	03f530        	rsr.misc1	a3
400807fe:	1488      	l32i.n	a8, a4, 4
40080800:	3448      	l32i.n	a4, a4, 12
40080802:	100332        	l8ui	a3, a3, 16
40080805:	b4dc      	bnez.n	a4, 40080824 <gpio_esp32_fire_callbacks+0x30>
40080807:	93cc      	bnez.n	a3, 40080814 <gpio_esp32_fire_callbacks+0x20>
40080809:	0020c0        	memw
4008080c:	1a2832        	l32i	a3, a8, 104
4008080f:	0001c6        	j	4008081a <gpio_esp32_fire_callbacks+0x26>
40080812:	00          	.byte 00
40080813:	00          	.byte 00
40080814:	0020c0        	memw
40080817:	182832        	l32i	a3, a8, 96
4008081a:	0020c0        	memw
4008081d:	136832        	s32i	a3, a8, 76
40080820:	0012c6        	j	4008086f <gpio_esp32_fire_callbacks+0x7b>
40080823:	00          	.byte 00
40080824:	43dc      	bnez.n	a3, 4008083c <gpio_esp32_fire_callbacks+0x48>
40080826:	0020c0        	memw
40080829:	1f2832        	l32i	a3, a8, 124
4008082c:	0020c0        	memw
4008082f:	1139      	s32i.n	a3, a1, 4
40080831:	0020c0        	memw
40080834:	040132        	l8ui	a3, a1, 4
40080837:	000486        	j	4008084d <gpio_esp32_fire_callbacks+0x59>
4008083a:	00          	.byte 00
4008083b:	00          	.byte 00
4008083c:	0020c0        	memw
4008083f:	1d2832        	l32i	a3, a8, 116
40080842:	0020c0        	memw
40080845:	0139      	s32i.n	a3, a1, 0
40080847:	0020c0        	memw
4008084a:	000132        	l8ui	a3, a1, 0
4008084d:	0020c0        	memw
40080850:	162842        	l32i	a4, a8, 88
40080853:	743030        	extui	a3, a3, 0, 8
40080856:	0020c0        	memw
40080859:	2149      	s32i.n	a4, a1, 8
4008085b:	744030        	extui	a4, a3, 0, 8
4008085e:	0020c0        	memw
40080861:	084142        	s8i	a4, a1, 8
40080864:	0020c0        	memw
40080867:	2148      	l32i.n	a4, a1, 8
40080869:	0020c0        	memw
4008086c:	166842        	s32i	a4, a8, 88
4008086f:	53ac      	beqz.n	a3, 40080898 <gpio_esp32_fire_callbacks+0xa4>
40080871:	15b8      	l32i.n	a11, a5, 4
40080873:	1bac      	beqz.n	a11, 40080898 <gpio_esp32_fire_callbacks+0xa4>
40080875:	0b48      	l32i.n	a4, a11, 0
40080877:	050c      	movi.n	a5, 0
40080879:	000606        	j	40080895 <gpio_esp32_fire_callbacks+0xa1>
4008087c:	2bc8      	l32i.n	a12, a11, 8
4008087e:	10c3c0        	and	a12, a3, a12
40080881:	5c8c      	beqz.n	a12, 4008088a <gpio_esp32_fire_callbacks+0x96>
40080883:	1b88      	l32i.n	a8, a11, 4
40080885:	02ad      	mov.n	a10, a2
40080887:	0008e0        	callx8	a8
4008088a:	058d      	mov.n	a8, a5
4008088c:	148c      	beqz.n	a4, 40080891 <gpio_esp32_fire_callbacks+0x9d>
4008088e:	002482        	l32i	a8, a4, 0
40080891:	04bd      	mov.n	a11, a4
40080893:	084d      	mov.n	a4, a8
40080895:	fe3b56        	bnez	a11, 4008087c <gpio_esp32_fire_callbacks+0x88>
40080898:	f01d      	retw.n
	...

4008089c <_Level1Vector>:
4008089c:	c0c112        	addi	a1, a1, -64
4008089f:	8109      	s32i.n	a0, a1, 32
400808a1:	a129      	s32i.n	a2, a1, 40
400808a3:	b139      	s32i.n	a3, a1, 44
400808a5:	03e600        	rsr.ps	a0
400808a8:	026c      	movi.n	a2, -32
400808aa:	100020        	and	a0, a0, a2
400808ad:	6109      	s32i.n	a0, a1, 24
400808af:	03b100        	rsr.epc1	a0
400808b2:	7109      	s32i.n	a0, a1, 28
400808b4:	000206        	j	400808c0 <_after_imms1>
	...

400808b8 <_handle_excint_imm1>:
400808b8:	0a58      	l32i.n	a5, a10, 0
400808ba:	4008      	l32i.n	a0, a0, 16

400808bc <_c_handler_imm1>:
400808bc:	0f68      	l32i.n	a6, a15, 0
400808be:	4008      	l32i.n	a0, a0, 16

400808c0 <_after_imms1>:
400808c0:	ffff21        	l32r	a2, 400808bc <_c_handler_imm1> (40080f68 <xtensa_excint1_c>)
400808c3:	fffd01        	l32r	a0, 400808b8 <_handle_excint_imm1> (40080a58 <_handle_excint>)
400808c6:	0000a0        	jx	a0
400808c9:	000000        	ill

400808cc <arch_cpu_idle>:
400808cc:	004136        	entry	a1, 32
400808cf:	541425        	call8	400d4a10 <sys_trace_idle>
400808d2:	007000        	waiti	0
400808d5:	f01d      	retw.n
	...

400808d8 <z_xtensa_exccause>:
400808d8:	004136        	entry	a1, 32
400808db:	028d      	mov.n	a8, a2
400808dd:	f93c      	movi.n	a9, 63
400808df:	fedc21        	l32r	a2, 40080450 <_init_end+0x50> (3ffb0138 <CSWTCH$122+0x100>)
400808e2:	073987        	bltu	a9, a8, 400808ed <z_xtensa_exccause+0x15>
400808e5:	fedb21        	l32r	a2, 40080454 <_init_end+0x54> (3ffb0038 <CSWTCH$122>)
400808e8:	a08820        	addx4	a8, a8, a2
400808eb:	0828      	l32i.n	a2, a8, 0
400808ed:	f01d      	retw.n
	...

400808f0 <z_xtensa_fatal_error>:
400808f0:	004136        	entry	a1, 32
400808f3:	00d316        	beqz	a3, 40080904 <z_xtensa_fatal_error+0x14>
400808f6:	006340        	rsil	a4, 3
400808f9:	03ad      	mov.n	a10, a3
400808fb:	003065        	call8	40080c00 <z_xtensa_dump_stack>
400808fe:	13e640        	wsr.ps	a4
40080901:	002010        	rsync
40080904:	20b330        	or	a11, a3, a3
40080907:	64a0a2        	movi	a10, 100
4008090a:	0096a5        	call8	40081274 <z_xtensa_backtrace_print>
4008090d:	03bd      	mov.n	a11, a3
4008090f:	02ad      	mov.n	a10, a2
40080911:	00a5e5        	call8	40081370 <z_fatal_error>
40080914:	f01d      	retw.n
	...

40080918 <xtensa_spill_reg_windows>:
40080918:	10ccc0        	and	a12, a12, a12
4008091b:	408030        	rotw	3
4008091e:	10ccc0        	and	a12, a12, a12
40080921:	408030        	rotw	3
40080924:	10ccc0        	and	a12, a12, a12
40080927:	408030        	rotw	3
4008092a:	10ccc0        	and	a12, a12, a12
4008092d:	408030        	rotw	3
40080930:	10ccc0        	and	a12, a12, a12
40080933:	408040        	rotw	4
40080936:	f00d      	ret.n

40080938 <xtensa_save_high_regs>:
40080938:	034920        	rsr.windowstart	a2
4008093b:	113200        	slli	a3, a2, 16
4008093e:	202230        	or	a2, a2, a3
40080941:	034830        	rsr.windowbase	a3
40080944:	400300        	ssr	a3
40080947:	912020        	srl	a2, a2
4008094a:	013d      	mov.n	a3, a1
4008094c:	28e217        	bbsi	a2, 1, 40080978 <_high_gpr_spill_done>
4008094f:	f0c112        	addi	a1, a1, -16
40080952:	0149      	s32i.n	a4, a1, 0
40080954:	1159      	s32i.n	a5, a1, 4
40080956:	2169      	s32i.n	a6, a1, 8
40080958:	3179      	s32i.n	a7, a1, 12
4008095a:	1ae227        	bbsi	a2, 2, 40080978 <_high_gpr_spill_done>
4008095d:	f0c112        	addi	a1, a1, -16
40080960:	0189      	s32i.n	a8, a1, 0
40080962:	1199      	s32i.n	a9, a1, 4
40080964:	21a9      	s32i.n	a10, a1, 8
40080966:	31b9      	s32i.n	a11, a1, 12
40080968:	0ce237        	bbsi	a2, 3, 40080978 <_high_gpr_spill_done>
4008096b:	f0c112        	addi	a1, a1, -16
4008096e:	01c9      	s32i.n	a12, a1, 0
40080970:	11d9      	s32i.n	a13, a1, 4
40080972:	0261e2        	s32i	a14, a1, 8
40080975:	0361f2        	s32i	a15, a1, 12

40080978 <_high_gpr_spill_done>:
40080978:	fcc112        	addi	a1, a1, -4
4008097b:	0139      	s32i.n	a3, a1, 0
4008097d:	f00d      	ret.n
	...

40080980 <xtensa_restore_high_regs>:
40080980:	0128      	l32i.n	a2, a1, 0
40080982:	114b      	addi.n	a1, a1, 4
40080984:	023d      	mov.n	a3, a2
40080986:	261127        	beq	a1, a2, 400809b0 <_high_restore_done>
40080989:	f0c222        	addi	a2, a2, -16
4008098c:	0248      	l32i.n	a4, a2, 0
4008098e:	1258      	l32i.n	a5, a2, 4
40080990:	2268      	l32i.n	a6, a2, 8
40080992:	3278      	l32i.n	a7, a2, 12
40080994:	181127        	beq	a1, a2, 400809b0 <_high_restore_done>
40080997:	f0c222        	addi	a2, a2, -16
4008099a:	0288      	l32i.n	a8, a2, 0
4008099c:	1298      	l32i.n	a9, a2, 4
4008099e:	22a8      	l32i.n	a10, a2, 8
400809a0:	32b8      	l32i.n	a11, a2, 12
400809a2:	0a1127        	beq	a1, a2, 400809b0 <_high_restore_done>
400809a5:	f0c222        	addi	a2, a2, -16
400809a8:	02c8      	l32i.n	a12, a2, 0
400809aa:	12d8      	l32i.n	a13, a2, 4
400809ac:	22e8      	l32i.n	a14, a2, 8
400809ae:	32f8      	l32i.n	a15, a2, 12

400809b0 <_high_restore_done>:
400809b0:	031d      	mov.n	a1, a3
400809b2:	f00d      	ret.n
	...

400809b5 <_restore_context>:
400809b5:	fffc85        	call0	40080980 <xtensa_restore_high_regs>
400809b8:	7108      	l32i.n	a0, a1, 28
400809ba:	13b500        	wsr.epc5	a0
400809bd:	6108      	l32i.n	a0, a1, 24
400809bf:	13c500        	wsr.eps5	a0
400809c2:	5108      	l32i.n	a0, a1, 20
400809c4:	130300        	wsr.sar	a0
400809c7:	4108      	l32i.n	a0, a1, 16
400809c9:	130000        	wsr.lbeg	a0
400809cc:	3108      	l32i.n	a0, a1, 12
400809ce:	130100        	wsr.lend	a0
400809d1:	2108      	l32i.n	a0, a1, 8
400809d3:	130200        	wsr.lcount	a0
400809d6:	0108      	l32i.n	a0, a1, 0
400809d8:	130c00        	wsr.scompare1	a0
400809db:	002010        	rsync
400809de:	8108      	l32i.n	a0, a1, 32
400809e0:	a128      	l32i.n	a2, a1, 40
400809e2:	b138      	l32i.n	a3, a1, 44
400809e4:	40c112        	addi	a1, a1, 64
400809e7:	003510        	rfi	5
	...

400809ec <xtensa_arch_except>:
400809ec:	002136        	entry	a1, 16

400809ef <xtensa_arch_except_epc>:
400809ef:	000000        	ill
400809f2:	f01d      	retw.n

400809f4 <xtensa_switch>:
400809f4:	002136        	entry	a1, 16
400809f7:	10ccc0        	and	a12, a12, a12
400809fa:	408030        	rotw	3
400809fd:	10ccc0        	and	a12, a12, a12
40080a00:	408030        	rotw	3
40080a03:	10ccc0        	and	a12, a12, a12
40080a06:	408030        	rotw	3
40080a09:	10ccc0        	and	a12, a12, a12
40080a0c:	408030        	rotw	3
40080a0f:	10ccc0        	and	a12, a12, a12
40080a12:	408040        	rotw	4
40080a15:	c0c112        	addi	a1, a1, -64
40080a18:	8109      	s32i.n	a0, a1, 32
40080a1a:	a129      	s32i.n	a2, a1, 40
40080a1c:	b139      	s32i.n	a3, a1, 44
40080a1e:	030300        	rsr.sar	a0
40080a21:	5109      	s32i.n	a0, a1, 20
40080a23:	030000        	rsr.lbeg	a0
40080a26:	4109      	s32i.n	a0, a1, 16
40080a28:	030100        	rsr.lend	a0
40080a2b:	3109      	s32i.n	a0, a1, 12
40080a2d:	030200        	rsr.lcount	a0
40080a30:	2109      	s32i.n	a0, a1, 8
40080a32:	03e800        	rsr.exccause	a0
40080a35:	1109      	s32i.n	a0, a1, 4
40080a37:	030c00        	rsr.scompare1	a0
40080a3a:	0109      	s32i.n	a0, a1, 0
40080a3c:	03e600        	rsr.ps	a0
40080a3f:	6109      	s32i.n	a0, a1, 24
40080a41:	fe8501        	l32r	a0, 40080458 <_init_end+0x58> (40080a54 <_switch_restore_pc>)
40080a44:	7109      	s32i.n	a0, a1, 28
40080a46:	ffef05        	call0	40080938 <xtensa_save_high_regs>
40080a49:	0128      	l32i.n	a2, a1, 0
40080a4b:	b238      	l32i.n	a3, a2, 44
40080a4d:	0319      	s32i.n	a1, a3, 0
40080a4f:	a218      	l32i.n	a1, a2, 40
40080a51:	ffd806        	j	400809b5 <_restore_context>

40080a54 <_switch_restore_pc>:
40080a54:	f01d      	retw.n
	...

40080a58 <_handle_excint>:
40080a58:	9129      	s32i.n	a2, a1, 36
40080a5a:	030300        	rsr.sar	a0
40080a5d:	5109      	s32i.n	a0, a1, 20
40080a5f:	030000        	rsr.lbeg	a0
40080a62:	4109      	s32i.n	a0, a1, 16
40080a64:	030100        	rsr.lend	a0
40080a67:	3109      	s32i.n	a0, a1, 12
40080a69:	030200        	rsr.lcount	a0
40080a6c:	026102        	s32i	a0, a1, 8
40080a6f:	03e800        	rsr.exccause	a0
40080a72:	016102        	s32i	a0, a1, 4
40080a75:	030c00        	rsr.scompare1	a0
40080a78:	0109      	s32i.n	a0, a1, 0
40080a7a:	ffebc5        	call0	40080938 <xtensa_save_high_regs>
40080a7d:	0128      	l32i.n	a2, a1, 0
40080a7f:	9228      	l32i.n	a2, a2, 36
40080a81:	03e600        	rsr.ps	a0
40080a84:	f30c      	movi.n	a3, 15
40080a86:	100030        	and	a0, a0, a3
40080a89:	00b056        	bnez	a0, 40080a98 <_not_l1>
40080a8c:	03e600        	rsr.ps	a0
40080a8f:	01a032        	movi	a3, 1
40080a92:	200030        	or	a0, a0, a3
40080a95:	13e600        	wsr.ps	a0

40080a98 <_not_l1>:
40080a98:	03e600        	rsr.ps	a0
40080a9b:	f36c      	movi.n	a3, -17
40080a9d:	100030        	and	a0, a0, a3
40080aa0:	13e600        	wsr.ps	a0
40080aa3:	002010        	rsync
40080aa6:	03f530        	rsr.misc1	a3
40080aa9:	0308      	l32i.n	a0, a3, 0
40080aab:	708c      	beqz.n	a0, 40080ab6 <_switch_stacks_3>
40080aad:	001b      	addi.n	a0, a0, 1
40080aaf:	0309      	s32i.n	a0, a3, 0
40080ab1:	013d      	mov.n	a3, a1
40080ab3:	000206        	j	40080abf <_do_call_3>

40080ab6 <_switch_stacks_3>:
40080ab6:	01c002        	addi	a0, a0, 1
40080ab9:	006302        	s32i	a0, a3, 0
40080abc:	012332        	l32i	a3, a3, 4

40080abf <_do_call_3>:
40080abf:	036d      	mov.n	a6, a3
40080ac1:	01ad      	mov.n	a10, a1
40080ac3:	013d      	mov.n	a3, a1
40080ac5:	02bd      	mov.n	a11, a2
40080ac7:	0118      	l32i.n	a1, a1, 0
40080ac9:	8108      	l32i.n	a0, a1, 32
40080acb:	40c112        	addi	a1, a1, 64
40080ace:	000095        	call4	40080ad8 <_xstack_call0_5>
40080ad1:	031d      	mov.n	a1, a3
40080ad3:	062d      	mov.n	a2, a6
40080ad5:	000386        	j	40080ae7 <_xstack_returned_5>

40080ad8 <_xstack_call0_5>:
40080ad8:	002136        	entry	a1, 16
40080adb:	021d      	mov.n	a1, a2
40080add:	000055        	call4	40080ae4 <_xstack_call1_5>
40080ae0:	062d      	mov.n	a2, a6
40080ae2:	f01d      	retw.n

40080ae4 <_xstack_call1_5>:
40080ae4:	0007a0        	jx	a7

40080ae7 <_xstack_returned_5>:
40080ae7:	006700        	rsil	a0, 7
40080aea:	03f530        	rsr.misc1	a3
40080aed:	0308      	l32i.n	a0, a3, 0
40080aef:	000b      	addi.n	a0, a0, -1
40080af1:	0309      	s32i.n	a0, a3, 0
40080af3:	261617        	beq	a6, a1, 40080b1d <_restore_3>
40080af6:	0118      	l32i.n	a1, a1, 0
40080af8:	8108      	l32i.n	a0, a1, 32
40080afa:	40c112        	addi	a1, a1, 64
40080afd:	10ccc0        	and	a12, a12, a12
40080b00:	408030        	rotw	3
40080b03:	10ccc0        	and	a12, a12, a12
40080b06:	408030        	rotw	3
40080b09:	10ccc0        	and	a12, a12, a12
40080b0c:	408030        	rotw	3
40080b0f:	10ccc0        	and	a12, a12, a12
40080b12:	408030        	rotw	3
40080b15:	10ccc0        	and	a12, a12, a12
40080b18:	408040        	rotw	4
40080b1b:	061d      	mov.n	a1, a6

40080b1d <_restore_3>:
40080b1d:	ffa506        	j	400809b5 <_restore_context>

40080b20 <return_to>:
40080b20:	004136        	entry	a1, 32
40080b23:	fe3981        	l32r	a8, 40080408 <_init_end+0x8> (3ffb20b0 <_kernel>)
40080b26:	02ad      	mov.n	a10, a2
40080b28:	0888      	l32i.n	a8, a8, 0
40080b2a:	0228f6        	bgeui	a8, 2, 40080b30 <return_to+0x10>
40080b2d:	014865        	call8	40081fb4 <z_get_next_switch_handle>
40080b30:	0a2d      	mov.n	a2, a10
40080b32:	f01d      	retw.n

40080b34 <z_log_msg_static_create$constprop$0>:
40080b34:	004136        	entry	a1, 32
40080b37:	20a220        	or	a10, a2, a2
40080b3a:	20b330        	or	a11, a3, a3
40080b3d:	20c440        	or	a12, a4, a4
40080b40:	0d0c      	movi.n	a13, 0
40080b42:	02e865        	call8	400839c8 <z_impl_z_log_msg_static_create>
40080b45:	f01d      	retw.n
	...

40080b48 <xtensa_init_stack>:
40080b48:	006136        	entry	a1, 48
40080b4b:	ffaf82        	movi	a8, -1
40080b4e:	146282        	s32i	a8, a2, 80
40080b51:	d0c382        	addi	a8, a3, -48
40080b54:	006182        	s32i	a8, a1, 0
40080b57:	30a0c2        	movi	a12, 48
40080b5a:	0b0c      	movi.n	a11, 0
40080b5c:	08ad      	mov.n	a10, a8
40080b5e:	030b65        	call8	40083c14 <memset>
40080b61:	fe3e91        	l32r	a9, 4008045c <_init_end+0x5c> (400d0c9c <z_thread_entry>)
40080b64:	ecc322        	addi	a2, a3, -20
40080b67:	0299      	s32i.n	a9, a2, 0
40080b69:	fe3d91        	l32r	a9, 40080460 <_init_end+0x60> (50020 <CONFIG_ESP_HEAP_MEM_POOL_REGION_1_SIZE+0x44020>)
40080b6c:	e8c322        	addi	a2, a3, -24
40080b6f:	0299      	s32i.n	a9, a2, 0
40080b71:	ccc322        	addi	a2, a3, -52
40080b74:	0259      	s32i.n	a5, a2, 0
40080b76:	c8c322        	addi	a2, a3, -56
40080b79:	0249      	s32i.n	a4, a2, 0
40080b7b:	020c      	movi.n	a2, 0
40080b7d:	c4c342        	addi	a4, a3, -60
40080b80:	0429      	s32i.n	a2, a4, 0
40080b82:	c0c342        	addi	a4, a3, -64
40080b85:	0429      	s32i.n	a2, a4, 0
40080b87:	bcc342        	addi	a4, a3, -68
40080b8a:	0429      	s32i.n	a2, a4, 0
40080b8c:	b8c342        	addi	a4, a3, -72
40080b8f:	0429      	s32i.n	a2, a4, 0
40080b91:	b4c322        	addi	a2, a3, -76
40080b94:	0279      	s32i.n	a7, a2, 0
40080b96:	b0c322        	addi	a2, a3, -80
40080b99:	0269      	s32i.n	a6, a2, 0
40080b9b:	0188      	l32i.n	a8, a1, 0
40080b9d:	acc322        	addi	a2, a3, -84
40080ba0:	0289      	s32i.n	a8, a2, 0
40080ba2:	f01d      	retw.n

40080ba4 <arch_new_thread>:
40080ba4:	004136        	entry	a1, 32
40080ba7:	0821f2        	l32i	a15, a1, 32
40080baa:	20e770        	or	a14, a7, a7
40080bad:	20d660        	or	a13, a6, a6
40080bb0:	05cd      	mov.n	a12, a5
40080bb2:	04bd      	mov.n	a11, a4
40080bb4:	02ad      	mov.n	a10, a2
40080bb6:	fff925        	call8	40080b48 <xtensa_init_stack>
40080bb9:	1262a2        	s32i	a10, a2, 72
40080bbc:	f01d      	retw.n
	...

40080bc0 <z_irq_spurious>:
40080bc0:	004136        	entry	a1, 32
40080bc3:	207110        	or	a7, a1, a1
40080bc6:	03e290        	rsr.interrupt	a9
40080bc9:	03e480        	rsr.intenable	a8
40080bcc:	e0c132        	addi	a3, a1, -32
40080bcf:	202110        	or	a2, a1, a1
40080bd2:	001310        	movsp	a1, a3
40080bd5:	01cd      	mov.n	a12, a1
40080bd7:	fe23a1        	l32r	a10, 40080464 <_init_end+0x64> (3ffb0306 <CSWTCH$122+0x2ce>)
40080bda:	7c89      	s32i.n	a8, a12, 28
40080bdc:	5ca9      	s32i.n	a10, a12, 20
40080bde:	480c      	movi.n	a8, 4
40080be0:	fe22a1        	l32r	a10, 40080468 <_init_end+0x68> (3ffb0830 <log_const_os>)
40080be3:	81a0b2        	movi	a11, 129
40080be6:	6c99      	s32i.n	a9, a12, 24
40080be8:	4c89      	s32i.n	a8, a12, 16
40080bea:	11bba0        	slli	a11, a11, 6
40080bed:	10ccc2        	addi	a12, a12, 16
40080bf0:	fff425        	call8	40080b34 <z_log_msg_static_create$constprop$0>
40080bf3:	0b0c      	movi.n	a11, 0
40080bf5:	1a0c      	movi.n	a10, 1
40080bf7:	001210        	movsp	a1, a2
40080bfa:	ffcf65        	call8	400808f0 <z_xtensa_fatal_error>
40080bfd:	f01d      	retw.n
	...

40080c00 <z_xtensa_dump_stack>:
40080c00:	004136        	entry	a1, 32
40080c03:	0238      	l32i.n	a3, a2, 0
40080c05:	d0c192        	addi	a9, a1, -48
40080c08:	017d      	mov.n	a7, a1
40080c0a:	015d      	mov.n	a5, a1
40080c0c:	001910        	movsp	a1, a9
40080c0f:	8388      	l32i.n	a8, a3, 32
40080c11:	a368      	l32i.n	a6, a3, 40
40080c13:	b348      	l32i.n	a4, a3, 44
40080c15:	01cd      	mov.n	a12, a1
40080c17:	9c49      	s32i.n	a4, a12, 36
40080c19:	01a342        	movi	a4, 0x301
40080c1c:	145c42        	s16i	a4, a12, 40
40080c1f:	fe1391        	l32r	a9, 4008046c <_init_end+0x6c> (3ffb0333 <CSWTCH$122+0x2fb>)
40080c22:	fe1341        	l32r	a4, 40080470 <_init_end+0x70> (1000006 <CONFIG_FLASH_SIZE+0xc00006>)
40080c25:	6c89      	s32i.n	a8, a12, 24
40080c27:	fe10a1        	l32r	a10, 40080468 <_init_end+0x68> (3ffb0830 <log_const_os>)
40080c2a:	40c382        	addi	a8, a3, 64
40080c2d:	d1a0b2        	movi	a11, 209
40080c30:	8c69      	s32i.n	a6, a12, 32
40080c32:	5c99      	s32i.n	a9, a12, 20
40080c34:	7c89      	s32i.n	a8, a12, 28
40080c36:	4c49      	s32i.n	a4, a12, 16
40080c38:	11bba0        	slli	a11, a11, 6
40080c3b:	10ccc2        	addi	a12, a12, 16
40080c3e:	c02320        	sub	a2, a3, a2
40080c41:	061c      	movi.n	a6, 16
40080c43:	ffef25        	call8	40080b34 <z_log_msg_static_create$constprop$0>
40080c46:	001510        	movsp	a1, a5
40080c49:	022627        	blt	a6, a2, 40080c4f <z_xtensa_dump_stack+0x4f>
40080c4c:	003086        	j	40080d12 <z_xtensa_dump_stack+0x112>
40080c4f:	f0c362        	addi	a6, a3, -16
40080c52:	06a8      	l32i.n	a10, a6, 0
40080c54:	f4c362        	addi	a6, a3, -12
40080c57:	0698      	l32i.n	a9, a6, 0
40080c59:	d0c142        	addi	a4, a1, -48
40080c5c:	f8c362        	addi	a6, a3, -8
40080c5f:	0688      	l32i.n	a8, a6, 0
40080c61:	001410        	movsp	a1, a4
40080c64:	fcc362        	addi	a6, a3, -4
40080c67:	0668      	l32i.n	a6, a6, 0
40080c69:	01cd      	mov.n	a12, a1
40080c6b:	fe02b1        	l32r	a11, 40080474 <_init_end+0x74> (3ffb0353 <CSWTCH$122+0x31b>)
40080c6e:	9c69      	s32i.n	a6, a12, 36
40080c70:	640c      	movi.n	a4, 6
40080c72:	c1a062        	movi	a6, 193
40080c75:	6ca9      	s32i.n	a10, a12, 24
40080c77:	401400        	ssl	a4
40080c7a:	a16600        	sll	a6, a6
40080c7d:	fdfaa1        	l32r	a10, 40080468 <_init_end+0x68> (3ffb0830 <log_const_os>)
40080c80:	5cb9      	s32i.n	a11, a12, 20
40080c82:	7c99      	s32i.n	a9, a12, 28
40080c84:	8c89      	s32i.n	a8, a12, 32
40080c86:	4c49      	s32i.n	a4, a12, 16
40080c88:	06bd      	mov.n	a11, a6
40080c8a:	10ccc2        	addi	a12, a12, 16
40080c8d:	ffea65        	call8	40080b34 <z_log_msg_static_create$constprop$0>
40080c90:	092c      	movi.n	a9, 32
40080c92:	001510        	movsp	a1, a5
40080c95:	022927        	blt	a9, a2, 40080c9b <z_xtensa_dump_stack+0x9b>
40080c98:	001d86        	j	40080d12 <z_xtensa_dump_stack+0x112>
40080c9b:	e0c392        	addi	a9, a3, -32
40080c9e:	09d8      	l32i.n	a13, a9, 0
40080ca0:	e4c392        	addi	a9, a3, -28
40080ca3:	09b8      	l32i.n	a11, a9, 0
40080ca5:	d0c182        	addi	a8, a1, -48
40080ca8:	e8c392        	addi	a9, a3, -24
40080cab:	09a8      	l32i.n	a10, a9, 0
40080cad:	001810        	movsp	a1, a8
40080cb0:	ecc392        	addi	a9, a3, -20
40080cb3:	0998      	l32i.n	a9, a9, 0
40080cb5:	01cd      	mov.n	a12, a1
40080cb7:	fdf0e1        	l32r	a14, 40080478 <_init_end+0x78> (3ffb0373 <CSWTCH$122+0x33b>)
40080cba:	8ca9      	s32i.n	a10, a12, 32
40080cbc:	fdeba1        	l32r	a10, 40080468 <_init_end+0x68> (3ffb0830 <log_const_os>)
40080cbf:	7cb9      	s32i.n	a11, a12, 28
40080cc1:	9c99      	s32i.n	a9, a12, 36
40080cc3:	5ce9      	s32i.n	a14, a12, 20
40080cc5:	6cd9      	s32i.n	a13, a12, 24
40080cc7:	4c49      	s32i.n	a4, a12, 16
40080cc9:	06bd      	mov.n	a11, a6
40080ccb:	10ccc2        	addi	a12, a12, 16
40080cce:	ffe665        	call8	40080b34 <z_log_msg_static_create$constprop$0>
40080cd1:	093c      	movi.n	a9, 48
40080cd3:	001510        	movsp	a1, a5
40080cd6:	38a927        	bge	a9, a2, 40080d12 <z_xtensa_dump_stack+0x112>
40080cd9:	d0c322        	addi	a2, a3, -48
40080cdc:	02b8      	l32i.n	a11, a2, 0
40080cde:	d4c322        	addi	a2, a3, -44
40080ce1:	02a8      	l32i.n	a10, a2, 0
40080ce3:	d0c182        	addi	a8, a1, -48
40080ce6:	d8c322        	addi	a2, a3, -40
40080ce9:	0298      	l32i.n	a9, a2, 0
40080ceb:	001810        	movsp	a1, a8
40080cee:	dcc322        	addi	a2, a3, -36
40080cf1:	0228      	l32i.n	a2, a2, 0
40080cf3:	01cd      	mov.n	a12, a1
40080cf5:	fde1d1        	l32r	a13, 4008047c <_init_end+0x7c> (3ffb0393 <CSWTCH$122+0x35b>)
40080cf8:	7ca9      	s32i.n	a10, a12, 28
40080cfa:	fddba1        	l32r	a10, 40080468 <_init_end+0x68> (3ffb0830 <log_const_os>)
40080cfd:	6cb9      	s32i.n	a11, a12, 24
40080cff:	5cd9      	s32i.n	a13, a12, 20
40080d01:	8c99      	s32i.n	a9, a12, 32
40080d03:	9c29      	s32i.n	a2, a12, 36
40080d05:	4c49      	s32i.n	a4, a12, 16
40080d07:	06bd      	mov.n	a11, a6
40080d09:	10ccc2        	addi	a12, a12, 16
40080d0c:	ffe265        	call8	40080b34 <z_log_msg_static_create$constprop$0>
40080d0f:	001510        	movsp	a1, a5
40080d12:	d0c192        	addi	a9, a1, -48
40080d15:	012d      	mov.n	a2, a1
40080d17:	001910        	movsp	a1, a9
40080d1a:	4388      	l32i.n	a8, a3, 16
40080d1c:	3368      	l32i.n	a6, a3, 12
40080d1e:	2358      	l32i.n	a5, a3, 8
40080d20:	01cd      	mov.n	a12, a1
40080d22:	fdd791        	l32r	a9, 40080480 <_init_end+0x80> (3ffb03b3 <CSWTCH$122+0x37b>)
40080d25:	8c59      	s32i.n	a5, a12, 32
40080d27:	fdd0a1        	l32r	a10, 40080468 <_init_end+0x68> (3ffb0830 <log_const_os>)
40080d2a:	550c      	movi.n	a5, 5
40080d2c:	a1a0b2        	movi	a11, 161
40080d2f:	5c99      	s32i.n	a9, a12, 20
40080d31:	6c89      	s32i.n	a8, a12, 24
40080d33:	7c69      	s32i.n	a6, a12, 28
40080d35:	4c59      	s32i.n	a5, a12, 16
40080d37:	11bba0        	slli	a11, a11, 6
40080d3a:	10ccc2        	addi	a12, a12, 16
40080d3d:	ffdf65        	call8	40080b34 <z_log_msg_static_create$constprop$0>
40080d40:	001210        	movsp	a1, a2
40080d43:	5328      	l32i.n	a2, a3, 20
40080d45:	e0c132        	addi	a3, a1, -32
40080d48:	001310        	movsp	a1, a3
40080d4b:	01cd      	mov.n	a12, a1
40080d4d:	fdcd31        	l32r	a3, 40080484 <_init_end+0x84> (3ffb03d1 <CSWTCH$122+0x399>)
40080d50:	6c29      	s32i.n	a2, a12, 24
40080d52:	fdc5a1        	l32r	a10, 40080468 <_init_end+0x68> (3ffb0830 <log_const_os>)
40080d55:	320c      	movi.n	a2, 3
40080d57:	61a0b2        	movi	a11, 97
40080d5a:	5c39      	s32i.n	a3, a12, 20
40080d5c:	046c22        	s32i	a2, a12, 16
40080d5f:	11bba0        	slli	a11, a11, 6
40080d62:	10ccc2        	addi	a12, a12, 16
40080d65:	ffdce5        	call8	40080b34 <z_log_msg_static_create$constprop$0>
40080d68:	f01d      	retw.n
	...

40080d6c <xtensa_int2_c>:
40080d6c:	004136        	entry	a1, 32
40080d6f:	03e240        	rsr.interrupt	a4
40080d72:	03e430        	rsr.intenable	a3
40080d75:	150c      	movi.n	a5, 1
40080d77:	104430        	and	a4, a4, a3
40080d7a:	0155c0        	slli	a5, a5, 20
40080d7d:	130c      	movi.n	a3, 1
40080d7f:	0133d0        	slli	a3, a3, 19
40080d82:	0e8437        	bany	a4, a3, 40080d94 <xtensa_int2_c+0x28>
40080d85:	108457        	bany	a4, a5, 40080d99 <xtensa_int2_c+0x2d>
40080d88:	130c      	movi.n	a3, 1
40080d8a:	0133b0        	slli	a3, a3, 21
40080d8d:	118437        	bany	a4, a3, 40080da2 <xtensa_int2_c+0x36>
40080d90:	000986        	j	40080dba <xtensa_int2_c+0x4e>
40080d93:	00          	.byte 00
40080d94:	381c      	movi.n	a8, 19
40080d96:	000286        	j	40080da4 <xtensa_int2_c+0x38>
40080d99:	481c      	movi.n	a8, 20
40080d9b:	053d      	mov.n	a3, a5
40080d9d:	0000c6        	j	40080da4 <xtensa_int2_c+0x38>
40080da0:	00          	.byte 00
40080da1:	00          	.byte 00
40080da2:	581c      	movi.n	a8, 21
40080da4:	fdb991        	l32r	a9, 40080488 <_init_end+0x88> (3ffb064c <_sw_isr_table>)
40080da7:	304430        	xor	a4, a4, a3
40080daa:	b08890        	addx8	a8, a8, a9
40080dad:	1898      	l32i.n	a9, a8, 4
40080daf:	08a8      	l32i.n	a10, a8, 0
40080db1:	0009e0        	callx8	a9
40080db4:	13e330        	wsr.intclear	a3
40080db7:	fff086        	j	40080d7d <xtensa_int2_c+0x11>
40080dba:	20a220        	or	a10, a2, a2
40080dbd:	ffd625        	call8	40080b20 <return_to>
40080dc0:	202aa0        	or	a2, a10, a10
40080dc3:	000090        	retw
	...

40080dc8 <xtensa_int3_c>:
40080dc8:	004136        	entry	a1, 32
40080dcb:	03e240        	rsr.interrupt	a4
40080dce:	03e430        	rsr.intenable	a3
40080dd1:	150c      	movi.n	a5, 1
40080dd3:	104430        	and	a4, a4, a3
40080dd6:	016590        	slli	a6, a5, 23
40080dd9:	771c      	movi.n	a7, 23
40080ddb:	fdac31        	l32r	a3, 4008048c <_init_end+0x8c> (408800 <CONFIG_FLASH_SIZE+0x8800>)
40080dde:	160437        	bnone	a4, a3, 40080df8 <xtensa_int3_c+0x30>
40080de1:	113550        	slli	a3, a5, 11
40080de4:	268437        	bany	a4, a3, 40080e0e <xtensa_int3_c+0x46>
40080de7:	130c      	movi.n	a3, 1
40080de9:	113310        	slli	a3, a3, 15
40080dec:	248437        	bany	a4, a3, 40080e14 <xtensa_int3_c+0x4c>
40080def:	0135a0        	slli	a3, a5, 22
40080df2:	480437        	bnone	a4, a3, 40080e3e <xtensa_int3_c+0x76>
40080df5:	000806        	j	40080e19 <xtensa_int3_c+0x51>
40080df8:	228467        	bany	a4, a6, 40080e1e <xtensa_int3_c+0x56>
40080dfb:	130c      	movi.n	a3, 1
40080dfd:	013350        	slli	a3, a3, 27
40080e00:	228437        	bany	a4, a3, 40080e26 <xtensa_int3_c+0x5e>
40080e03:	013530        	slli	a3, a5, 29
40080e06:	340437        	bnone	a4, a3, 40080e3e <xtensa_int3_c+0x76>
40080e09:	d81c      	movi.n	a8, 29
40080e0b:	000646        	j	40080e28 <xtensa_int3_c+0x60>
40080e0e:	b80c      	movi.n	a8, 11
40080e10:	000506        	j	40080e28 <xtensa_int3_c+0x60>
40080e13:	00          	.byte 00
40080e14:	f80c      	movi.n	a8, 15
40080e16:	000386        	j	40080e28 <xtensa_int3_c+0x60>
40080e19:	681c      	movi.n	a8, 22
40080e1b:	000246        	j	40080e28 <xtensa_int3_c+0x60>
40080e1e:	078d      	mov.n	a8, a7
40080e20:	063d      	mov.n	a3, a6
40080e22:	000086        	j	40080e28 <xtensa_int3_c+0x60>
40080e25:	00          	.byte 00
40080e26:	b81c      	movi.n	a8, 27
40080e28:	fd9891        	l32r	a9, 40080488 <_init_end+0x88> (3ffb064c <_sw_isr_table>)
40080e2b:	304430        	xor	a4, a4, a3
40080e2e:	b08890        	addx8	a8, a8, a9
40080e31:	1898      	l32i.n	a9, a8, 4
40080e33:	08a8      	l32i.n	a10, a8, 0
40080e35:	0009e0        	callx8	a9
40080e38:	13e330        	wsr.intclear	a3
40080e3b:	ffe706        	j	40080ddb <xtensa_int3_c+0x13>
40080e3e:	20a220        	or	a10, a2, a2
40080e41:	ffcde5        	call8	40080b20 <return_to>
40080e44:	202aa0        	or	a2, a10, a10
40080e47:	000090        	retw
	...

40080e4c <xtensa_int4_c>:
40080e4c:	004136        	entry	a1, 32
40080e4f:	03e240        	rsr.interrupt	a4
40080e52:	03e430        	rsr.intenable	a3
40080e55:	150c      	movi.n	a5, 1
40080e57:	104430        	and	a4, a4, a3
40080e5a:	330c      	movi.n	a3, 3
40080e5c:	013380        	slli	a3, a3, 24
40080e5f:	110437        	bnone	a4, a3, 40080e74 <xtensa_int4_c+0x28>
40080e62:	013580        	slli	a3, a5, 24
40080e65:	1f8437        	bany	a4, a3, 40080e88 <xtensa_int4_c+0x3c>
40080e68:	130c      	movi.n	a3, 1
40080e6a:	013370        	slli	a3, a3, 25
40080e6d:	390437        	bnone	a4, a3, 40080eaa <xtensa_int4_c+0x5e>
40080e70:	000646        	j	40080e8d <xtensa_int4_c+0x41>
40080e73:	00          	.byte 00
40080e74:	013540        	slli	a3, a5, 28
40080e77:	178437        	bany	a4, a3, 40080e92 <xtensa_int4_c+0x46>
40080e7a:	130c      	movi.n	a3, 1
40080e7c:	013320        	slli	a3, a3, 30
40080e7f:	270437        	bnone	a4, a3, 40080eaa <xtensa_int4_c+0x5e>
40080e82:	e81c      	movi.n	a8, 30
40080e84:	000306        	j	40080e94 <xtensa_int4_c+0x48>
40080e87:	00          	.byte 00
40080e88:	881c      	movi.n	a8, 24
40080e8a:	000186        	j	40080e94 <xtensa_int4_c+0x48>
40080e8d:	981c      	movi.n	a8, 25
40080e8f:	000046        	j	40080e94 <xtensa_int4_c+0x48>
40080e92:	c81c      	movi.n	a8, 28
40080e94:	fd7d91        	l32r	a9, 40080488 <_init_end+0x88> (3ffb064c <_sw_isr_table>)
40080e97:	304430        	xor	a4, a4, a3
40080e9a:	b08890        	addx8	a8, a8, a9
40080e9d:	1898      	l32i.n	a9, a8, 4
40080e9f:	08a8      	l32i.n	a10, a8, 0
40080ea1:	0009e0        	callx8	a9
40080ea4:	13e330        	wsr.intclear	a3
40080ea7:	ffebc6        	j	40080e5a <xtensa_int4_c+0xe>
40080eaa:	20a220        	or	a10, a2, a2
40080ead:	ffc725        	call8	40080b20 <return_to>
40080eb0:	202aa0        	or	a2, a10, a10
40080eb3:	000090        	retw
	...

40080eb8 <xtensa_int5_c>:
40080eb8:	004136        	entry	a1, 32
40080ebb:	03e240        	rsr.interrupt	a4
40080ebe:	03e430        	rsr.intenable	a3
40080ec1:	150c      	movi.n	a5, 1
40080ec3:	104430        	and	a4, a4, a3
40080ec6:	015560        	slli	a5, a5, 26
40080ec9:	130c      	movi.n	a3, 1
40080ecb:	113300        	slli	a3, a3, 16
40080ece:	088437        	bany	a4, a3, 40080eda <xtensa_int5_c+0x22>
40080ed1:	0b8457        	bany	a4, a5, 40080ee0 <xtensa_int5_c+0x28>
40080ed4:	012496        	bltz	a4, 40080eea <xtensa_int5_c+0x32>
40080ed7:	000bc6        	j	40080f0a <xtensa_int5_c+0x52>
40080eda:	081c      	movi.n	a8, 16
40080edc:	000506        	j	40080ef4 <xtensa_int5_c+0x3c>
40080edf:	00          	.byte 00
40080ee0:	a81c      	movi.n	a8, 26
40080ee2:	053d      	mov.n	a3, a5
40080ee4:	000306        	j	40080ef4 <xtensa_int5_c+0x3c>
40080ee7:	00          	.byte 00
40080ee8:	00          	.byte 00
40080ee9:	00          	.byte 00
40080eea:	f81c      	movi.n	a8, 31
40080eec:	f37c      	movi.n	a3, -1
40080eee:	401800        	ssl	a8
40080ef1:	a13300        	sll	a3, a3
40080ef4:	fd6591        	l32r	a9, 40080488 <_init_end+0x88> (3ffb064c <_sw_isr_table>)
40080ef7:	304430        	xor	a4, a4, a3
40080efa:	b08890        	addx8	a8, a8, a9
40080efd:	1898      	l32i.n	a9, a8, 4
40080eff:	08a8      	l32i.n	a10, a8, 0
40080f01:	0009e0        	callx8	a9
40080f04:	13e330        	wsr.intclear	a3
40080f07:	ffef86        	j	40080ec9 <xtensa_int5_c+0x11>
40080f0a:	20a220        	or	a10, a2, a2
40080f0d:	ffc125        	call8	40080b20 <return_to>
40080f10:	202aa0        	or	a2, a10, a10
40080f13:	000090        	retw
	...

40080f18 <xtensa_int6_c>:
40080f18:	004136        	entry	a1, 32
40080f1b:	20a220        	or	a10, a2, a2
40080f1e:	03e280        	rsr.interrupt	a8
40080f21:	03e480        	rsr.intenable	a8
40080f24:	ffbfa5        	call8	40080b20 <return_to>
40080f27:	202aa0        	or	a2, a10, a10
40080f2a:	000090        	retw
40080f2d:	000000        	ill

40080f30 <xtensa_int7_c>:
40080f30:	004136        	entry	a1, 32
40080f33:	03e240        	rsr.interrupt	a4
40080f36:	03e430        	rsr.intenable	a3
40080f39:	fd5351        	l32r	a5, 40080488 <_init_end+0x88> (3ffb064c <_sw_isr_table>)
40080f3c:	104430        	and	a4, a4, a3
40080f3f:	01a032        	movi	a3, 1
40080f42:	113320        	slli	a3, a3, 14
40080f45:	110437        	bnone	a4, a3, 40080f5a <xtensa_int7_c+0x2a>
40080f48:	1d2582        	l32i	a8, a5, 116
40080f4b:	1c25a2        	l32i	a10, a5, 112
40080f4e:	304430        	xor	a4, a4, a3
40080f51:	0008e0        	callx8	a8
40080f54:	13e330        	wsr.intclear	a3
40080f57:	fff906        	j	40080f3f <xtensa_int7_c+0xf>
40080f5a:	20a220        	or	a10, a2, a2
40080f5d:	ffbc25        	call8	40080b20 <return_to>
40080f60:	202aa0        	or	a2, a10, a10
40080f63:	000090        	retw
	...

40080f68 <xtensa_excint1_c>:
40080f68:	00c136        	entry	a1, 96
40080f6b:	0248      	l32i.n	a4, a2, 0
40080f6d:	017d      	mov.n	a7, a1
40080f6f:	03e850        	rsr.exccause	a5
40080f72:	024526        	beqi	a5, 4, 40080f78 <xtensa_excint1_c+0x10>
40080f75:	004a46        	j	400810a2 <xtensa_excint1_c+0x13a>
40080f78:	03e240        	rsr.interrupt	a4
40080f7b:	03e430        	rsr.intenable	a3
40080f7e:	160c      	movi.n	a6, 1
40080f80:	0186f0        	slli	a8, a6, 17
40080f83:	104430        	and	a4, a4, a3
40080f86:	80a792        	movi	a9, 0x780
40080f89:	116640        	slli	a6, a6, 12
40080f8c:	643040        	extui	a3, a4, 0, 7
40080f8f:	049316        	beqz	a3, 40080fdc <xtensa_excint1_c+0x74>
40080f92:	243040        	extui	a3, a4, 0, 3
40080f95:	739c      	beqz.n	a3, 40080fb0 <xtensa_excint1_c+0x48>
40080f97:	043040        	extui	a3, a4, 0, 1
40080f9a:	09a356        	bnez	a3, 40081038 <xtensa_excint1_c+0xd0>
40080f9d:	2b0c      	movi.n	a11, 2
40080f9f:	0204b7        	bnone	a4, a11, 40080fa5 <xtensa_excint1_c+0x3d>
40080fa2:	0025c6        	j	4008103d <xtensa_excint1_c+0xd5>
40080fa5:	430c      	movi.n	a3, 4
40080fa7:	028437        	bany	a4, a3, 40080fad <xtensa_excint1_c+0x45>
40080faa:	009546        	j	40081203 <xtensa_excint1_c+0x29b>
40080fad:	0024c6        	j	40081044 <xtensa_excint1_c+0xdc>
40080fb0:	831c      	movi.n	a3, 24
40080fb2:	120437        	bnone	a4, a3, 40080fc8 <xtensa_excint1_c+0x60>
40080fb5:	830c      	movi.n	a3, 8
40080fb7:	020437        	bnone	a4, a3, 40080fbd <xtensa_excint1_c+0x55>
40080fba:	0022c6        	j	40081049 <xtensa_excint1_c+0xe1>
40080fbd:	031c      	movi.n	a3, 16
40080fbf:	028437        	bany	a4, a3, 40080fc5 <xtensa_excint1_c+0x5d>
40080fc2:	008f46        	j	40081203 <xtensa_excint1_c+0x29b>
40080fc5:	002146        	j	4008104e <xtensa_excint1_c+0xe6>
40080fc8:	032c      	movi.n	a3, 32
40080fca:	020437        	bnone	a4, a3, 40080fd0 <xtensa_excint1_c+0x68>
40080fcd:	0020c6        	j	40081054 <xtensa_excint1_c+0xec>
40080fd0:	034c      	movi.n	a3, 64
40080fd2:	028437        	bany	a4, a3, 40080fd8 <xtensa_excint1_c+0x70>
40080fd5:	008a86        	j	40081203 <xtensa_excint1_c+0x29b>
40080fd8:	001f46        	j	40081059 <xtensa_excint1_c+0xf1>
40080fdb:	00          	.byte 00
40080fdc:	2a0497        	bnone	a4, a9, 4008100a <xtensa_excint1_c+0xa2>
40080fdf:	80a132        	movi	a3, 0x180
40080fe2:	120437        	bnone	a4, a3, 40080ff8 <xtensa_excint1_c+0x90>
40080fe5:	80a032        	movi	a3, 128
40080fe8:	728437        	bany	a4, a3, 4008105e <xtensa_excint1_c+0xf6>
40080feb:	00a132        	movi	a3, 0x100
40080fee:	028437        	bany	a4, a3, 40080ff4 <xtensa_excint1_c+0x8c>
40080ff1:	008386        	j	40081203 <xtensa_excint1_c+0x29b>
40080ff4:	001ac6        	j	40081063 <xtensa_excint1_c+0xfb>
40080ff7:	00          	.byte 00
40080ff8:	00a232        	movi	a3, 0x200
40080ffb:	698437        	bany	a4, a3, 40081068 <xtensa_excint1_c+0x100>
40080ffe:	00a432        	movi	a3, 0x400
40081001:	028437        	bany	a4, a3, 40081007 <xtensa_excint1_c+0x9f>
40081004:	007ec6        	j	40081203 <xtensa_excint1_c+0x29b>
40081007:	001886        	j	4008106d <xtensa_excint1_c+0x105>
4008100a:	330c      	movi.n	a3, 3
4008100c:	113340        	slli	a3, a3, 12
4008100f:	110437        	bnone	a4, a3, 40081024 <xtensa_excint1_c+0xbc>
40081012:	5c8467        	bany	a4, a6, 40081072 <xtensa_excint1_c+0x10a>
40081015:	130c      	movi.n	a3, 1
40081017:	113330        	slli	a3, a3, 13
4008101a:	028437        	bany	a4, a3, 40081020 <xtensa_excint1_c+0xb8>
4008101d:	007886        	j	40081203 <xtensa_excint1_c+0x29b>
40081020:	001546        	j	40081079 <xtensa_excint1_c+0x111>
40081023:	00          	.byte 00
40081024:	568487        	bany	a4, a8, 4008107e <xtensa_excint1_c+0x116>
40081027:	130c      	movi.n	a3, 1
40081029:	0133e0        	slli	a3, a3, 18
4008102c:	028437        	bany	a4, a3, 40081032 <xtensa_excint1_c+0xca>
4008102f:	007406        	j	40081203 <xtensa_excint1_c+0x29b>
40081032:	2a1c      	movi.n	a10, 18
40081034:	001286        	j	40081082 <xtensa_excint1_c+0x11a>
40081037:	00          	.byte 00
40081038:	0a0c      	movi.n	a10, 0
4008103a:	001106        	j	40081082 <xtensa_excint1_c+0x11a>
4008103d:	1a0c      	movi.n	a10, 1
4008103f:	0b3d      	mov.n	a3, a11
40081041:	000f46        	j	40081082 <xtensa_excint1_c+0x11a>
40081044:	0bad      	mov.n	a10, a11
40081046:	000e06        	j	40081082 <xtensa_excint1_c+0x11a>
40081049:	3a0c      	movi.n	a10, 3
4008104b:	000cc6        	j	40081082 <xtensa_excint1_c+0x11a>
4008104e:	05ad      	mov.n	a10, a5
40081050:	000b86        	j	40081082 <xtensa_excint1_c+0x11a>
40081053:	00          	.byte 00
40081054:	5a0c      	movi.n	a10, 5
40081056:	000a06        	j	40081082 <xtensa_excint1_c+0x11a>
40081059:	6a0c      	movi.n	a10, 6
4008105b:	0008c6        	j	40081082 <xtensa_excint1_c+0x11a>
4008105e:	7a0c      	movi.n	a10, 7
40081060:	000786        	j	40081082 <xtensa_excint1_c+0x11a>
40081063:	8a0c      	movi.n	a10, 8
40081065:	000646        	j	40081082 <xtensa_excint1_c+0x11a>
40081068:	9a0c      	movi.n	a10, 9
4008106a:	000506        	j	40081082 <xtensa_excint1_c+0x11a>
4008106d:	aa0c      	movi.n	a10, 10
4008106f:	0003c6        	j	40081082 <xtensa_excint1_c+0x11a>
40081072:	ca0c      	movi.n	a10, 12
40081074:	063d      	mov.n	a3, a6
40081076:	000206        	j	40081082 <xtensa_excint1_c+0x11a>
40081079:	da0c      	movi.n	a10, 13
4008107b:	0000c6        	j	40081082 <xtensa_excint1_c+0x11a>
4008107e:	1a1c      	movi.n	a10, 17
40081080:	083d      	mov.n	a3, a8
40081082:	fd01b1        	l32r	a11, 40080488 <_init_end+0x88> (3ffb064c <_sw_isr_table>)
40081085:	304430        	xor	a4, a4, a3
40081088:	b0aab0        	addx8	a10, a10, a11
4008108b:	1ab8      	l32i.n	a11, a10, 4
4008108d:	0aa8      	l32i.n	a10, a10, 0
4008108f:	0b6782        	s32i	a8, a7, 44
40081092:	0c6792        	s32i	a9, a7, 48
40081095:	000be0        	callx8	a11
40081098:	13e330        	wsr.intclear	a3
4008109b:	b788      	l32i.n	a8, a7, 44
4008109d:	c798      	l32i.n	a9, a7, 48
4008109f:	ffba46        	j	40080f8c <xtensa_excint1_c+0x24>
400810a2:	062462        	l32i	a6, a4, 24
400810a5:	072482        	l32i	a8, a4, 28
400810a8:	fcf031        	l32r	a3, 40080468 <_init_end+0x68> (3ffb0830 <log_const_os>)
400810ab:	371566        	bnei	a5, 1, 400810e6 <xtensa_excint1_c+0x17e>
400810ae:	e0c152        	addi	a5, a1, -32
400810b1:	8719      	s32i.n	a1, a7, 32
400810b3:	001510        	movsp	a1, a5
400810b6:	01cd      	mov.n	a12, a1
400810b8:	fcf651        	l32r	a5, 40080490 <_init_end+0x90> (3ffb03dc <CSWTCH$122+0x3a4>)
400810bb:	81a0b2        	movi	a11, 129
400810be:	5c59      	s32i.n	a5, a12, 20
400810c0:	450c      	movi.n	a5, 4
400810c2:	6c69      	s32i.n	a6, a12, 24
400810c4:	7c89      	s32i.n	a8, a12, 28
400810c6:	4c59      	s32i.n	a5, a12, 16
400810c8:	03ad      	mov.n	a10, a3
400810ca:	10ccc2        	addi	a12, a12, 16
400810cd:	11bba0        	slli	a11, a11, 6
400810d0:	ffa625        	call8	40080b34 <z_log_msg_static_create$constprop$0>
400810d3:	8738      	l32i.n	a3, a7, 32
400810d5:	02ad      	mov.n	a10, a2
400810d7:	001310        	movsp	a1, a3
400810da:	ffb265        	call8	40080c00 <z_xtensa_dump_stack>
400810dd:	7438      	l32i.n	a3, a4, 28
400810df:	333b      	addi.n	a3, a3, 3
400810e1:	7439      	s32i.n	a3, a4, 28
400810e3:	004706        	j	40081203 <xtensa_excint1_c+0x29b>
400810e6:	03eee0        	rsr.excvaddr	a14
400810e9:	fceaa1        	l32r	a10, 40080494 <_init_end+0x94> (400809ef <xtensa_arch_except_epc>)
400810ec:	090c      	movi.n	a9, 0
400810ee:	0d98a7        	bne	a8, a10, 400810ff <xtensa_excint1_c+0x197>
400810f1:	0a9597        	bne	a5, a9, 400810ff <xtensa_excint1_c+0x197>
400810f4:	f53c      	movi.n	a5, 63
400810f6:	13e850        	wsr.exccause	a5
400810f9:	883b      	addi.n	a8, a8, 3
400810fb:	a498      	l32i.n	a9, a4, 40
400810fd:	7489      	s32i.n	a8, a4, 28
400810ff:	8719      	s32i.n	a1, a7, 32
40081101:	fce5a1        	l32r	a10, 40080498 <_init_end+0x98> (3ffb03f4 <CSWTCH$122+0x3bc>)
40081104:	1b4c      	movi.n	a11, 65
40081106:	57a9      	s32i.n	a10, a7, 20
40081108:	2a0c      	movi.n	a10, 2
4008110a:	47a9      	s32i.n	a10, a7, 16
4008110c:	10c7c2        	addi	a12, a7, 16
4008110f:	11bba0        	slli	a11, a11, 6
40081112:	03ad      	mov.n	a10, a3
40081114:	b789      	s32i.n	a8, a7, 44
40081116:	c799      	s32i.n	a9, a7, 48
40081118:	a7e9      	s32i.n	a14, a7, 40
4008111a:	ffa1a5        	call8	40080b34 <z_log_msg_static_create$constprop$0>
4008111d:	03f5a0        	rsr.misc1	a10
40081120:	100ab2        	l8ui	a11, a10, 16
40081123:	05ad      	mov.n	a10, a5
40081125:	97b9      	s32i.n	a11, a7, 36
40081127:	ff7b25        	call8	400808d8 <z_xtensa_exccause>
4008112a:	d0c1c2        	addi	a12, a1, -48
4008112d:	001c10        	movsp	a1, a12
40081130:	fcdbf1        	l32r	a15, 4008049c <_init_end+0x9c> (3ffb0408 <CSWTCH$122+0x3d0>)
40081133:	10ccc2        	addi	a12, a12, 16
40081136:	1cf9      	s32i.n	a15, a12, 4
40081138:	97b8      	l32i.n	a11, a7, 36
4008113a:	3c59      	s32i.n	a5, a12, 12
4008113c:	02a452        	movi	a5, 0x402
4008113f:	0a5c52        	s16i	a5, a12, 20
40081142:	fcd751        	l32r	a5, 400804a0 <_init_end+0xa0> (1000005 <CONFIG_FLASH_SIZE+0xc00005>)
40081145:	2cb9      	s32i.n	a11, a12, 8
40081147:	b1a0b2        	movi	a11, 177
4008114a:	4ca9      	s32i.n	a10, a12, 16
4008114c:	0c59      	s32i.n	a5, a12, 0
4008114e:	03ad      	mov.n	a10, a3
40081150:	11bba0        	slli	a11, a11, 6
40081153:	ff9e25        	call8	40080b34 <z_log_msg_static_create$constprop$0>
40081156:	8758      	l32i.n	a5, a7, 32
40081158:	001510        	movsp	a1, a5
4008115b:	e0c1a2        	addi	a10, a1, -32
4008115e:	001a10        	movsp	a1, a10
40081161:	015d      	mov.n	a5, a1
40081163:	fcd0a1        	l32r	a10, 400804a4 <_init_end+0xa4> (3ffb0424 <CSWTCH$122+0x3ec>)
40081166:	81a0b2        	movi	a11, 129
40081169:	55a9      	s32i.n	a10, a5, 20
4008116b:	b788      	l32i.n	a8, a7, 44
4008116d:	03ad      	mov.n	a10, a3
4008116f:	6589      	s32i.n	a8, a5, 24
40081171:	a7e8      	l32i.n	a14, a7, 40
40081173:	480c      	movi.n	a8, 4
40081175:	4589      	s32i.n	a8, a5, 16
40081177:	75e9      	s32i.n	a14, a5, 28
40081179:	10c582        	addi	a8, a5, 16
4008117c:	08cd      	mov.n	a12, a8
4008117e:	11bba0        	slli	a11, a11, 6
40081181:	b789      	s32i.n	a8, a7, 44
40081183:	ff9b25        	call8	40080b34 <z_log_msg_static_create$constprop$0>
40081186:	87c8      	l32i.n	a12, a7, 32
40081188:	64a8      	l32i.n	a10, a4, 24
4008118a:	001c10        	movsp	a1, a12
4008118d:	e0c142        	addi	a4, a1, -32
40081190:	001410        	movsp	a1, a4
40081193:	fcc5b1        	l32r	a11, 400804a8 <_init_end+0xa8> (3ffb0438 <CSWTCH$122+0x400>)
40081196:	65a9      	s32i.n	a10, a5, 24
40081198:	3a0c      	movi.n	a10, 3
4008119a:	55b9      	s32i.n	a11, a5, 20
4008119c:	45a9      	s32i.n	a10, a5, 16
4008119e:	b788      	l32i.n	a8, a7, 44
400811a0:	61a0b2        	movi	a11, 97
400811a3:	08cd      	mov.n	a12, a8
400811a5:	03ad      	mov.n	a10, a3
400811a7:	11bba0        	slli	a11, a11, 6
400811aa:	ff98a5        	call8	40080b34 <z_log_msg_static_create$constprop$0>
400811ad:	8758      	l32i.n	a5, a7, 32
400811af:	001510        	movsp	a1, a5
400811b2:	c0c1a2        	addi	a10, a1, -64
400811b5:	001a10        	movsp	a1, a10
400811b8:	01cd      	mov.n	a12, a1
400811ba:	fcbc51        	l32r	a5, 400804ac <_init_end+0xac> (3ffb0443 <CSWTCH$122+0x40b>)
400811bd:	21a1b2        	movi	a11, 0x121
400811c0:	5c59      	s32i.n	a5, a12, 20
400811c2:	345060        	extui	a5, a6, 0, 4
400811c5:	6c59      	s32i.n	a5, a12, 24
400811c7:	045460        	extui	a5, a6, 4, 1
400811ca:	7c59      	s32i.n	a5, a12, 28
400811cc:	045560        	extui	a5, a6, 5, 1
400811cf:	8c59      	s32i.n	a5, a12, 32
400811d1:	145660        	extui	a5, a6, 6, 2
400811d4:	9c59      	s32i.n	a5, a12, 36
400811d6:	055260        	extui	a5, a6, 18, 1
400811d9:	ac59      	s32i.n	a5, a12, 40
400811db:	345860        	extui	a5, a6, 8, 4
400811de:	bc59      	s32i.n	a5, a12, 44
400811e0:	156060        	extui	a6, a6, 16, 2
400811e3:	950c      	movi.n	a5, 9
400811e5:	03ad      	mov.n	a10, a3
400811e7:	cc69      	s32i.n	a6, a12, 48
400811e9:	4c59      	s32i.n	a5, a12, 16
400811eb:	11bba0        	slli	a11, a11, 6
400811ee:	10ccc2        	addi	a12, a12, 16
400811f1:	ff9425        	call8	40080b34 <z_log_msg_static_create$constprop$0>
400811f4:	8738      	l32i.n	a3, a7, 32
400811f6:	c798      	l32i.n	a9, a7, 48
400811f8:	001310        	movsp	a1, a3
400811fb:	02bd      	mov.n	a11, a2
400811fd:	20a990        	or	a10, a9, a9
40081200:	ff6ee5        	call8	400808f0 <z_xtensa_fatal_error>
40081203:	02ad      	mov.n	a10, a2
40081205:	ff91a5        	call8	40080b20 <return_to>
40081208:	0a2d      	mov.n	a2, a10
4008120a:	f01d      	retw.n

4008120c <z_xtensa_cpu_process_stack_pc>:
4008120c:	004136        	entry	a1, 32
4008120f:	01f2d6        	bgez	a2, 40081232 <z_xtensa_cpu_process_stack_pc+0x26>
40081212:	fca891        	l32r	a9, 400804b4 <_init_end+0xb4> (3ffb1dd4 <cause>)
40081215:	fca681        	l32r	a8, 400804b0 <_init_end+0xb0> (3fffffff <dram0_seg_1_heap+0x195cf>)
40081218:	0998      	l32i.n	a9, a9, 0
4008121a:	102280        	and	a2, a2, a8
4008121d:	481c      	movi.n	a8, 20
4008121f:	071987        	beq	a9, a8, 4008122a <z_xtensa_cpu_process_stack_pc+0x1e>
40081222:	fca581        	l32r	a8, 400804b8 <_init_end+0xb8> (3ffb1dd8 <mask>)
40081225:	0888      	l32i.n	a8, a8, 0
40081227:	000106        	j	4008122f <z_xtensa_cpu_process_stack_pc+0x23>
4008122a:	180c      	movi.n	a8, 1
4008122c:	018820        	slli	a8, a8, 30
4008122f:	202280        	or	a2, a2, a8
40081232:	fdc222        	addi	a2, a2, -3
40081235:	f01d      	retw.n
	...

40081238 <z_xtensa_backtrace_get_next_frame>:
40081238:	004136        	entry	a1, 32
4008123b:	012282        	l32i	a8, a2, 4
4008123e:	0222a2        	l32i	a10, a2, 8
40081241:	f0c892        	addi	a9, a8, -16
40081244:	02a9      	s32i.n	a10, a2, 0
40081246:	0998      	l32i.n	a9, a9, 0
40081248:	f4c882        	addi	a8, a8, -12
4008124b:	2299      	s32i.n	a9, a2, 8
4008124d:	0888      	l32i.n	a8, a8, 0
4008124f:	fc9b91        	l32r	a9, 400804bc <_init_end+0xbc> (c0051ff0 <_rtc_bss_end+0x70051ff0>)
40081252:	fc9bb1        	l32r	a11, 400804c0 <_init_end+0xc0> (51fe0 <CONFIG_ESP_HEAP_MEM_POOL_REGION_1_SIZE+0x45fe0>)
40081255:	1289      	s32i.n	a8, a2, 4
40081257:	989a      	add.n	a9, a8, a9
40081259:	020c      	movi.n	a2, 0
4008125b:	0d3b97        	bltu	a11, a9, 4008126c <z_xtensa_backtrace_get_next_frame+0x34>
4008125e:	348080        	extui	a8, a8, 0, 4
40081261:	079827        	bne	a8, a2, 4008126c <z_xtensa_backtrace_get_next_frame+0x34>
40081264:	fffa65        	call8	4008120c <z_xtensa_cpu_process_stack_pc>
40081267:	ff43a5        	call8	400806a0 <esp_ptr_executable>
4008126a:	0a2d      	mov.n	a2, a10
4008126c:	042020        	extui	a2, a2, 0, 1
4008126f:	f01d      	retw.n
40081271:	000000        	ill

40081274 <z_xtensa_backtrace_print>:
40081274:	006136        	entry	a1, 48
40081277:	f47c      	movi.n	a4, -1
40081279:	0212e6        	bgei	a2, 1, 4008127f <z_xtensa_backtrace_print+0xb>
4008127c:	003086        	j	40081342 <z_xtensa_backtrace_print+0xce>
4008127f:	03dd      	mov.n	a13, a3
40081281:	c18b      	addi.n	a12, a1, 8
40081283:	b14b      	addi.n	a11, a1, 4
40081285:	01ad      	mov.n	a10, a1
40081287:	ff45e5        	call8	400806e4 <z_xtensa_backtrace_get_start>
4008128a:	0348      	l32i.n	a4, a3, 0
4008128c:	1448      	l32i.n	a4, a4, 4
4008128e:	043d      	mov.n	a3, a4
40081290:	fc8951        	l32r	a5, 400804b4 <_init_end+0xb4> (3ffb1dd4 <cause>)
40081293:	441c      	movi.n	a4, 20
40081295:	0539      	s32i.n	a3, a5, 0
40081297:	0e1347        	beq	a3, a4, 400812a9 <z_xtensa_backtrace_print+0x35>
4008129a:	0138      	l32i.n	a3, a1, 0
4008129c:	f47c      	movi.n	a4, -1
4008129e:	014420        	slli	a4, a4, 30
400812a1:	103340        	and	a3, a3, a4
400812a4:	fc8541        	l32r	a4, 400804b8 <_init_end+0xb8> (3ffb1dd8 <mask>)
400812a7:	0439      	s32i.n	a3, a4, 0
400812a9:	fc86a1        	l32r	a10, 400804c4 <_init_end+0xc4> (3ffb0488 <CSWTCH$122+0x450>)
400812ac:	130c      	movi.n	a3, 1
400812ae:	026965        	call8	40083944 <printk>
400812b1:	01a8      	l32i.n	a10, a1, 0
400812b3:	fff5a5        	call8	4008120c <z_xtensa_cpu_process_stack_pc>
400812b6:	0abd      	mov.n	a11, a10
400812b8:	11c8      	l32i.n	a12, a1, 4
400812ba:	fc83a1        	l32r	a10, 400804c8 <_init_end+0xc8> (3ffb0497 <CSWTCH$122+0x45f>)
400812bd:	026865        	call8	40083944 <printk>
400812c0:	fc7f81        	l32r	a8, 400804bc <_init_end+0xbc> (c0051ff0 <_rtc_bss_end+0x70051ff0>)
400812c3:	1148      	l32i.n	a4, a1, 4
400812c5:	fc7e91        	l32r	a9, 400804c0 <_init_end+0xc0> (51fe0 <CONFIG_ESP_HEAP_MEM_POOL_REGION_1_SIZE+0x45fe0>)
400812c8:	848a      	add.n	a8, a4, a8
400812ca:	1a3987        	bltu	a9, a8, 400812e8 <z_xtensa_backtrace_print+0x74>
400812cd:	344040        	extui	a4, a4, 0, 4
400812d0:	44dc      	bnez.n	a4, 400812e8 <z_xtensa_backtrace_print+0x74>
400812d2:	01a8      	l32i.n	a10, a1, 0
400812d4:	043d      	mov.n	a3, a4
400812d6:	fff365        	call8	4008120c <z_xtensa_cpu_process_stack_pc>
400812d9:	ff3c65        	call8	400806a0 <esp_ptr_executable>
400812dc:	8acc      	bnez.n	a10, 400812e8 <z_xtensa_backtrace_print+0x74>
400812de:	0548      	l32i.n	a4, a5, 0
400812e0:	150c      	movi.n	a5, 1
400812e2:	ecc442        	addi	a4, a4, -20
400812e5:	933540        	movnez	a3, a5, a4
400812e8:	140c      	movi.n	a4, 1
400812ea:	000786        	j	4008130c <z_xtensa_backtrace_print+0x98>
400812ed:	20a110        	or	a10, a1, a1
400812f0:	fff465        	call8	40081238 <z_xtensa_backtrace_get_next_frame>
400812f3:	303a40        	xor	a3, a10, a4
400812f6:	01a8      	l32i.n	a10, a1, 0
400812f8:	220b      	addi.n	a2, a2, -1
400812fa:	fff125        	call8	4008120c <z_xtensa_cpu_process_stack_pc>
400812fd:	0abd      	mov.n	a11, a10
400812ff:	11c8      	l32i.n	a12, a1, 4
40081301:	fc71a1        	l32r	a10, 400804c8 <_init_end+0xc8> (3ffb0497 <CSWTCH$122+0x45f>)
40081304:	743030        	extui	a3, a3, 0, 8
40081307:	0263e5        	call8	40083944 <printk>
4008130a:	828c      	beqz.n	a2, 40081316 <z_xtensa_backtrace_print+0xa2>
4008130c:	2158      	l32i.n	a5, a1, 8
4008130e:	a5ac      	beqz.n	a5, 4008133c <z_xtensa_backtrace_print+0xc8>
40081310:	fd9316        	beqz	a3, 400812ed <z_xtensa_backtrace_print+0x79>
40081313:	000046        	j	40081318 <z_xtensa_backtrace_print+0xa4>
40081316:	a38c      	beqz.n	a3, 40081324 <z_xtensa_backtrace_print+0xb0>
40081318:	fc6da1        	l32r	a10, 400804cc <_init_end+0xcc> (3ffb04a6 <CSWTCH$122+0x46e>)
4008131b:	f47c      	movi.n	a4, -1
4008131d:	026265        	call8	40083944 <printk>
40081320:	000306        	j	40081330 <z_xtensa_backtrace_print+0xbc>
40081323:	00          	.byte 00
40081324:	2128      	l32i.n	a2, a1, 8
40081326:	428c      	beqz.n	a2, 4008132e <z_xtensa_backtrace_print+0xba>
40081328:	fc6aa1        	l32r	a10, 400804d0 <_init_end+0xd0> (3ffb04b4 <CSWTCH$122+0x47c>)
4008132b:	0261a5        	call8	40083944 <printk>
4008132e:	040c      	movi.n	a4, 0
40081330:	fc69a1        	l32r	a10, 400804d4 <_init_end+0xd4> (3ffb04c2 <CSWTCH$122+0x48a>)
40081333:	026125        	call8	40083944 <printk>
40081336:	000206        	j	40081342 <z_xtensa_backtrace_print+0xce>
40081339:	00          	.byte 00
4008133a:	00          	.byte 00
4008133b:	00          	.byte 00
4008133c:	fee316        	beqz	a3, 4008132e <z_xtensa_backtrace_print+0xba>
4008133f:	fff546        	j	40081318 <z_xtensa_backtrace_print+0xa4>
40081342:	042d      	mov.n	a2, a4
40081344:	f01d      	retw.n
	...

40081348 <k_sys_fatal_error_handler>:
40081348:	008136        	entry	a1, 64
4008134b:	01a125        	call8	40082d5c <z_impl_log_panic>
4008134e:	fc6281        	l32r	a8, 400804d8 <_init_end+0xd8> (3ffb04dc <CSWTCH$401+0x14>)
40081351:	41a0b2        	movi	a11, 65
40081354:	5189      	s32i.n	a8, a1, 20
40081356:	280c      	movi.n	a8, 2
40081358:	4189      	s32i.n	a8, a1, 16
4008135a:	11bba0        	slli	a11, a11, 6
4008135d:	fc42a1        	l32r	a10, 40080468 <_init_end+0x68> (3ffb0830 <log_const_os>)
40081360:	0d0c      	movi.n	a13, 0
40081362:	10c1c2        	addi	a12, a1, 16
40081365:	026625        	call8	400839c8 <z_impl_z_log_msg_static_create>
40081368:	02ad      	mov.n	a10, a2
4008136a:	013e25        	call8	4008274c <arch_system_halt>
4008136d:	000000        	ill

40081370 <z_fatal_error>:
40081370:	004136        	entry	a1, 32
40081373:	017d      	mov.n	a7, a1
40081375:	006350        	rsil	a5, 3
40081378:	00daa5        	call8	40082124 <z_impl_z_current_get>
4008137b:	fc5881        	l32r	a8, 400804dc <_init_end+0xdc> (3ffb04eb <CSWTCH$401+0x23>)
4008137e:	0a4d      	mov.n	a4, a10
40081380:	0752f6        	bgeui	a2, 5, 4008138b <z_fatal_error+0x1b>
40081383:	fc5861        	l32r	a6, 400804e4 <_init_end+0xe4> (3ffb04c8 <CSWTCH$401>)
40081386:	a06260        	addx4	a6, a2, a6
40081389:	0688      	l32i.n	a8, a6, 0
4008138b:	d0c192        	addi	a9, a1, -48
4008138e:	016d      	mov.n	a6, a1
40081390:	001910        	movsp	a1, a9
40081393:	01cd      	mov.n	a12, a1
40081395:	7c89      	s32i.n	a8, a12, 28
40081397:	01a382        	movi	a8, 0x301
4008139a:	fc5391        	l32r	a9, 400804e8 <_init_end+0xe8> (3ffb0501 <CSWTCH$401+0x39>)
4008139d:	125c82        	s16i	a8, a12, 36
400813a0:	fc4081        	l32r	a8, 400804a0 <_init_end+0xa0> (1000005 <CONFIG_FLASH_SIZE+0xc00005>)
400813a3:	0d0c      	movi.n	a13, 0
400813a5:	b1a0b2        	movi	a11, 177
400813a8:	5c99      	s32i.n	a9, a12, 20
400813aa:	6c29      	s32i.n	a2, a12, 24
400813ac:	8cd9      	s32i.n	a13, a12, 32
400813ae:	4c89      	s32i.n	a8, a12, 16
400813b0:	11bba0        	slli	a11, a11, 6
400813b3:	fc2da1        	l32r	a10, 40080468 <_init_end+0x68> (3ffb0830 <log_const_os>)
400813b6:	10ccc2        	addi	a12, a12, 16
400813b9:	0260e5        	call8	400839c8 <z_impl_z_log_msg_static_create>
400813bc:	001610        	movsp	a1, a6
400813bf:	a48c      	beqz.n	a4, 400813cd <z_fatal_error+0x5d>
400813c1:	04ad      	mov.n	a10, a4
400813c3:	013b25        	call8	40082774 <k_thread_name_get>
400813c6:	3a8c      	beqz.n	a10, 400813cd <z_fatal_error+0x5d>
400813c8:	000a62        	l8ui	a6, a10, 0
400813cb:	16cc      	bnez.n	a6, 400813d0 <z_fatal_error+0x60>
400813cd:	fc44a1        	l32r	a10, 400804e0 <_init_end+0xe0> (3ffb04f9 <CSWTCH$401+0x31>)
400813d0:	d0c182        	addi	a8, a1, -48
400813d3:	016d      	mov.n	a6, a1
400813d5:	001810        	movsp	a1, a8
400813d8:	01cd      	mov.n	a12, a1
400813da:	fc4481        	l32r	a8, 400804ec <_init_end+0xec> (3ffb0529 <CSWTCH$401+0x61>)
400813dd:	91a0b2        	movi	a11, 145
400813e0:	5c89      	s32i.n	a8, a12, 20
400813e2:	01a382        	movi	a8, 0x301
400813e5:	105c82        	s16i	a8, a12, 32
400813e8:	fc4281        	l32r	a8, 400804f0 <_init_end+0xf0> (1000004 <CONFIG_FLASH_SIZE+0xc00004>)
400813eb:	6c49      	s32i.n	a4, a12, 24
400813ed:	7ca9      	s32i.n	a10, a12, 28
400813ef:	4c89      	s32i.n	a8, a12, 16
400813f1:	11bba0        	slli	a11, a11, 6
400813f4:	fc1da1        	l32r	a10, 40080468 <_init_end+0x68> (3ffb0830 <log_const_os>)
400813f7:	0d0c      	movi.n	a13, 0
400813f9:	10ccc2        	addi	a12, a12, 16
400813fc:	025ca5        	call8	400839c8 <z_impl_z_log_msg_static_create>
400813ff:	03bd      	mov.n	a11, a3
40081401:	02ad      	mov.n	a10, a2
40081403:	001610        	movsp	a1, a6
40081406:	fff425        	call8	40081348 <k_sys_fatal_error_handler>
40081409:	13e650        	wsr.ps	a5
4008140c:	002010        	rsync
4008140f:	04ad      	mov.n	a10, a4
40081411:	00dc25        	call8	400821d4 <z_impl_k_thread_abort>
40081414:	f01d      	retw.n
	...

40081418 <z_sys_init_run_level>:
40081418:	004136        	entry	a1, 32
4008141b:	fc3681        	l32r	a8, 400804f4 <_init_end+0xf4> (3ffb058c <levels$0>)
4008141e:	150c      	movi.n	a5, 1
40081420:	a03280        	addx4	a3, a2, a8
40081423:	a02280        	addx4	a2, a2, a8
40081426:	0338      	l32i.n	a3, a3, 0
40081428:	1248      	l32i.n	a4, a2, 4
4008142a:	ffa062        	movi	a6, 255
4008142d:	000946        	j	40081456 <z_sys_init_run_level+0x3e>
40081430:	00          	.byte 00
40081431:	1328      	l32i.n	a2, a3, 4
40081433:	0388      	l32i.n	a8, a3, 0
40081435:	02ad      	mov.n	a10, a2
40081437:	0008e0        	callx8	a8
4008143a:	629c      	beqz.n	a2, 40081454 <z_sys_init_run_level+0x3c>
4008143c:	9a8c      	beqz.n	a10, 40081449 <z_sys_init_run_level+0x31>
4008143e:	3288      	l32i.n	a8, a2, 12
40081440:	60a1a0        	abs	a10, a10
40081443:	43aa60        	min	a10, a10, a6
40081446:	0048a2        	s8i	a10, a8, 0
40081449:	3288      	l32i.n	a8, a2, 12
4008144b:	010822        	l8ui	a2, a8, 1
4008144e:	202250        	or	a2, a2, a5
40081451:	014822        	s8i	a2, a8, 1
40081454:	338b      	addi.n	a3, a3, 8
40081456:	d73347        	bltu	a3, a4, 40081431 <z_sys_init_run_level+0x19>
40081459:	f01d      	retw.n
	...

4008145c <bg_thread_main>:
4008145c:	004136        	entry	a1, 32
4008145f:	fc2681        	l32r	a8, 400804f8 <_init_end+0xf8> (3ffb2102 <z_sys_post_kernel>)
40081462:	190c      	movi.n	a9, 1
40081464:	3a0c      	movi.n	a10, 3
40081466:	004892        	s8i	a9, a8, 0
40081469:	fffae5        	call8	40081418 <z_sys_init_run_level>
4008146c:	012ae5        	call8	4008271c <boot_banner>
4008146f:	4a0c      	movi.n	a10, 4
40081471:	fffa65        	call8	40081418 <z_sys_init_run_level>
40081474:	002ae5        	call8	40081724 <z_init_static_threads>
40081477:	4ef925        	call8	400d0408 <main>
4008147a:	fc2091        	l32r	a9, 400804fc <_init_end+0xfc> (3ffb1d30 <z_main_thread>)
4008147d:	ea7c      	movi.n	a10, -2
4008147f:	0c0982        	l8ui	a8, a9, 12
40081482:	1088a0        	and	a8, a8, a10
40081485:	0c4982        	s8i	a8, a9, 12
40081488:	f01d      	retw.n
	...

4008148c <z_early_memset>:
4008148c:	004136        	entry	a1, 32
4008148f:	04cd      	mov.n	a12, a4
40081491:	03bd      	mov.n	a11, a3
40081493:	02ad      	mov.n	a10, a2
40081495:	0277e5        	call8	40083c14 <memset>
40081498:	f01d      	retw.n
	...

4008149c <z_bss_zero>:
4008149c:	004136        	entry	a1, 32
4008149f:	fc19a1        	l32r	a10, 40080504 <_init_end+0x104> (3ffb0840 <kheap__system_heap>)
400814a2:	fc17c1        	l32r	a12, 40080500 <_init_end+0x100> (3ffb2108 <__bss_end>)
400814a5:	0b0c      	movi.n	a11, 0
400814a7:	c0cca0        	sub	a12, a12, a10
400814aa:	fffe25        	call8	4008148c <z_early_memset>
400814ad:	f01d      	retw.n
	...

400814b0 <z_init_cpu>:
400814b0:	006136        	entry	a1, 48
400814b3:	fc1581        	l32r	a8, 40080508 <_init_end+0x108> (3ffb1cd8 <z_idle_threads>)
400814b6:	a03220        	addx4	a3, a2, a2
400814b9:	904320        	addx2	a4, a3, a2
400814bc:	b04480        	addx8	a4, a4, a8
400814bf:	fbd281        	l32r	a8, 40080408 <_init_end+0x8> (3ffb20b0 <_kernel>)
400814c2:	fc13b1        	l32r	a11, 40080510 <_init_end+0x110> (3ffe5e30 <z_idle_stacks>)
400814c5:	190c      	movi.n	a9, 1
400814c7:	a03380        	addx4	a3, a3, a8
400814ca:	0f0c      	movi.n	a15, 0
400814cc:	118260        	slli	a8, a2, 10
400814cf:	2199      	s32i.n	a9, a1, 8
400814d1:	fc0ed1        	l32r	a13, 4008050c <_init_end+0x10c> (4008179c <idle>)
400814d4:	f90c      	movi.n	a9, 15
400814d6:	1199      	s32i.n	a9, a1, 4
400814d8:	bb8a      	add.n	a11, a11, a8
400814da:	04ad      	mov.n	a10, a4
400814dc:	31f9      	s32i.n	a15, a1, 12
400814de:	01f9      	s32i.n	a15, a1, 0
400814e0:	03ed      	mov.n	a14, a3
400814e2:	00a4c2        	movi	a12, 0x400
400814e5:	001925        	call8	40081678 <z_setup_new_thread>
400814e8:	0d0482        	l8ui	a8, a4, 13
400814eb:	b97c      	movi.n	a9, -5
400814ed:	108890        	and	a8, a8, a9
400814f0:	0d4482        	s8i	a8, a4, 13
400814f3:	3349      	s32i.n	a4, a3, 12
400814f5:	104322        	s8i	a2, a3, 16
400814f8:	fc0741        	l32r	a4, 40080514 <_init_end+0x114> (3ffe5630 <z_interrupt_stacks>)
400814fb:	221b      	addi.n	a2, a2, 1
400814fd:	112250        	slli	a2, a2, 11
40081500:	224a      	add.n	a2, a2, a4
40081502:	1329      	s32i.n	a2, a3, 4
40081504:	f01d      	retw.n
	...

40081508 <z_cstart>:
40081508:	012136        	entry	a1, 144
4008150b:	0a0c      	movi.n	a10, 0
4008150d:	fff0a5        	call8	40081418 <z_sys_init_run_level>
40081510:	fbbe21        	l32r	a2, 40080408 <_init_end+0x8> (3ffb20b0 <_kernel>)
40081513:	030c      	movi.n	a3, 0
40081515:	0239      	s32i.n	a3, a2, 0
40081517:	13f520        	wsr.misc1	a2
4008151a:	01a142        	movi	a4, 0x101
4008151d:	017225        	call8	40082c40 <log_core_init>
40081520:	0e5142        	s16i	a4, a1, 28
40081523:	10c142        	addi	a4, a1, 16
40081526:	04ad      	mov.n	a10, a4
40081528:	011e65        	call8	40082710 <k_thread_system_pool_assign>
4008152b:	2249      	s32i.n	a4, a2, 8
4008152d:	011fa5        	call8	40082728 <z_device_state_init>
40081530:	1a0c      	movi.n	a10, 1
40081532:	ffee65        	call8	40081418 <z_sys_init_run_level>
40081535:	2a0c      	movi.n	a10, 2
40081537:	ffee25        	call8	40081418 <z_sys_init_run_level>
4008153a:	00ab25        	call8	40081fec <z_sched_init>
4008153d:	fbef41        	l32r	a4, 400804fc <_init_end+0xfc> (3ffb1d30 <z_main_thread>)
40081540:	fbf851        	l32r	a5, 40080520 <_init_end+0x120> (3ffb05a4 <levels$0+0x18>)
40081543:	5249      	s32i.n	a4, a2, 20
40081545:	fbf4d1        	l32r	a13, 40080518 <_init_end+0x118> (4008145c <bg_thread_main>)
40081548:	fbf5b1        	l32r	a11, 4008051c <_init_end+0x11c> (3ffe6230 <z_main_stack>)
4008154b:	3159      	s32i.n	a5, a1, 12
4008154d:	150c      	movi.n	a5, 1
4008154f:	11c550        	slli	a12, a5, 11
40081552:	03fd      	mov.n	a15, a3
40081554:	03ed      	mov.n	a14, a3
40081556:	2159      	s32i.n	a5, a1, 8
40081558:	1139      	s32i.n	a3, a1, 4
4008155a:	0139      	s32i.n	a3, a1, 0
4008155c:	04ad      	mov.n	a10, a4
4008155e:	0011a5        	call8	40081678 <z_setup_new_thread>
40081561:	0d0482        	l8ui	a8, a4, 13
40081564:	b57c      	movi.n	a5, -5
40081566:	108850        	and	a8, a8, a5
40081569:	04ad      	mov.n	a10, a4
4008156b:	0d4482        	s8i	a8, a4, 13
4008156e:	007825        	call8	40081cf0 <z_ready_thread>
40081571:	03ad      	mov.n	a10, a3
40081573:	fff3e5        	call8	400814b0 <z_init_cpu>
40081576:	006350        	rsil	a5, 3
40081579:	2248      	l32i.n	a4, a2, 8
4008157b:	537c      	movi.n	a3, -11
4008157d:	116432        	s32i	a3, a4, 68
40081580:	006330        	rsil	a3, 3
40081583:	00a265        	call8	40081fa8 <z_swap_next_thread>
40081586:	0a3d      	mov.n	a3, a10
40081588:	0d14a7        	beq	a4, a10, 40081599 <z_cstart+0x91>
4008158b:	22a9      	s32i.n	a10, a2, 8
4008158d:	0045e5        	call8	400819ec <z_reset_time_slice>
40081590:	1223a2        	l32i	a10, a3, 72
40081593:	48c4b2        	addi	a11, a4, 72
40081596:	ff45e5        	call8	400809f4 <xtensa_switch>
40081599:	13e650        	wsr.ps	a5
4008159c:	002010        	rsync
	...

400815a0 <k_heap_init>:
400815a0:	004136        	entry	a1, 32
400815a3:	0cc282        	addi	a8, a2, 12
400815a6:	20a220        	or	a10, a2, a2
400815a9:	036282        	s32i	a8, a2, 12
400815ac:	4289      	s32i.n	a8, a2, 16
400815ae:	04cd      	mov.n	a12, a4
400815b0:	03bd      	mov.n	a11, a3
400815b2:	4f9fa5        	call8	400d0fac <sys_heap_init>
400815b5:	f01d      	retw.n
	...

400815b8 <statics_init>:
400815b8:	004136        	entry	a1, 32
400815bb:	fbda21        	l32r	a2, 40080524 <_init_end+0x124> (3ffb0790 <_internal_heap_1>)
400815be:	000386        	j	400815d0 <statics_init+0x18>
400815c1:	0222c2        	l32i	a12, a2, 8
400815c4:	0122b2        	l32i	a11, a2, 4
400815c7:	20a220        	or	a10, a2, a2
400815ca:	fffd65        	call8	400815a0 <k_heap_init>
400815cd:	14c222        	addi	a2, a2, 20
400815d0:	fbd631        	l32r	a3, 40080528 <_init_end+0x128> (3ffb07b8 <adc1_dma_lock>)
400815d3:	ea3237        	bltu	a2, a3, 400815c1 <statics_init+0x9>
400815d6:	020c      	movi.n	a2, 0
400815d8:	f01d      	retw.n
	...

400815dc <k_heap_aligned_alloc>:
400815dc:	006136        	entry	a1, 48
400815df:	07bd      	mov.n	a11, a7
400815e1:	026172        	s32i	a7, a1, 8
400815e4:	06ad      	mov.n	a10, a6
400815e6:	00f025        	call8	400824e8 <sys_clock_timeout_end_calc>
400815e9:	2188      	l32i.n	a8, a1, 8
400815eb:	0a5d      	mov.n	a5, a10
400815ed:	207bb0        	or	a7, a11, a11
400815f0:	080666        	bnei	a6, -1, 400815fc <k_heap_aligned_alloc+0x20>
400815f3:	050866        	bnei	a8, -1, 400815fc <k_heap_aligned_alloc+0x20>
400815f6:	fb8871        	l32r	a7, 40080418 <_init_end+0x18> (7fffffff <_rtc_bss_end+0x2fffffff>)
400815f9:	205880        	or	a5, a8, a8
400815fc:	14c262        	addi	a6, a2, 20
400815ff:	0169      	s32i.n	a6, a1, 0
40081601:	006380        	rsil	a8, 3
40081604:	160c      	movi.n	a6, 1
40081606:	000906        	j	4008162e <k_heap_aligned_alloc+0x52>
40081609:	c0e5a0        	sub	a14, a5, a10
4008160c:	06ad      	mov.n	a10, a6
4008160e:	0235e7        	bltu	a5, a14, 40081614 <k_heap_aligned_alloc+0x38>
40081611:	20a990        	or	a10, a9, a9
40081614:	c0f7b0        	sub	a15, a7, a11
40081617:	c0ffa0        	sub	a15, a15, a10
4008161a:	041fe6        	bgei	a15, 1, 40081622 <k_heap_aligned_alloc+0x46>
4008161d:	024f56        	bnez	a15, 40081645 <k_heap_aligned_alloc+0x69>
40081620:	1eac      	beqz.n	a14, 40081645 <k_heap_aligned_alloc+0x69>
40081622:	01a8      	l32i.n	a10, a1, 0
40081624:	c2cb      	addi.n	a12, a2, 12
40081626:	08bd      	mov.n	a11, a8
40081628:	0073e5        	call8	40081d68 <z_pend_curr>
4008162b:	006380        	rsil	a8, 3
4008162e:	2189      	s32i.n	a8, a1, 8
40081630:	04cd      	mov.n	a12, a4
40081632:	03bd      	mov.n	a11, a3
40081634:	02ad      	mov.n	a10, a2
40081636:	4f8b25        	call8	400d0ee8 <sys_heap_aligned_alloc>
40081639:	11a9      	s32i.n	a10, a1, 4
4008163b:	00e3e5        	call8	40082478 <sys_clock_tick_get>
4008163e:	1198      	l32i.n	a9, a1, 4
40081640:	2188      	l32i.n	a8, a1, 8
40081642:	fc3916        	beqz	a9, 40081609 <k_heap_aligned_alloc+0x2d>
40081645:	13e680        	wsr.ps	a8
40081648:	002010        	rsync
4008164b:	092d      	mov.n	a2, a9
4008164d:	f01d      	retw.n
	...

40081650 <k_heap_free>:
40081650:	004136        	entry	a1, 32
40081653:	20b330        	or	a11, a3, a3
40081656:	006340        	rsil	a4, 3
40081659:	02ad      	mov.n	a10, a2
4008165b:	4f8125        	call8	400d0e6c <sys_heap_free>
4008165e:	a2cb      	addi.n	a10, a2, 12
40081660:	009665        	call8	40081fc8 <z_unpend_all>
40081663:	9a8c      	beqz.n	a10, 40081670 <k_heap_free+0x20>
40081665:	04bd      	mov.n	a11, a4
40081667:	14c2a2        	addi	a10, a2, 20
4008166a:	0081a5        	call8	40081e84 <z_reschedule>
4008166d:	000146        	j	40081676 <k_heap_free+0x26>
40081670:	13e640        	wsr.ps	a4
40081673:	002010        	rsync
40081676:	f01d      	retw.n

40081678 <z_setup_new_thread>:
40081678:	006136        	entry	a1, 48
4008167b:	38c282        	addi	a8, a2, 56
4008167e:	e289      	s32i.n	a8, a2, 56
40081680:	f289      	s32i.n	a8, a2, 60
40081682:	e188      	l32i.n	a8, a1, 56
40081684:	44fb      	addi.n	a4, a4, 15
40081686:	0c4282        	s8i	a8, a2, 12
40081689:	480c      	movi.n	a8, 4
4008168b:	0d4282        	s8i	a8, a2, 13
4008168e:	d188      	l32i.n	a8, a1, 52
40081690:	07fd      	mov.n	a15, a7
40081692:	0e4282        	s8i	a8, a2, 14
40081695:	087c      	movi.n	a8, -16
40081697:	070c      	movi.n	a7, 0
40081699:	104480        	and	a4, a4, a8
4008169c:	c188      	l32i.n	a8, a1, 48
4008169e:	2279      	s32i.n	a7, a2, 8
400816a0:	0f4272        	s8i	a7, a2, 15
400816a3:	6279      	s32i.n	a7, a2, 24
400816a5:	7279      	s32i.n	a7, a2, 28
400816a7:	434a      	add.n	a4, a3, a4
400816a9:	02ad      	mov.n	a10, a2
400816ab:	03bd      	mov.n	a11, a3
400816ad:	0189      	s32i.n	a8, a1, 0
400816af:	06ed      	mov.n	a14, a6
400816b1:	05dd      	mov.n	a13, a5
400816b3:	04cd      	mov.n	a12, a4
400816b5:	ff4ee5        	call8	40080ba4 <arch_new_thread>
400816b8:	d279      	s32i.n	a7, a2, 52
400816ba:	fb5371        	l32r	a7, 40080408 <_init_end+0x8> (3ffb20b0 <_kernel>)
400816bd:	2778      	l32i.n	a7, a7, 8
400816bf:	132772        	l32i	a7, a7, 76
400816c2:	136272        	s32i	a7, a2, 76
400816c5:	042d      	mov.n	a2, a4
400816c7:	f01d      	retw.n
400816c9:	000000        	ill

400816cc <z_impl_k_thread_create>:
400816cc:	008136        	entry	a1, 64
400816cf:	00a092        	movi	a9, 0
400816d2:	036192        	s32i	a9, a1, 12
400816d5:	122192        	l32i	a9, a1, 72
400816d8:	142182        	l32i	a8, a1, 80
400816db:	2199      	s32i.n	a9, a1, 8
400816dd:	112192        	l32i	a9, a1, 68
400816e0:	07fd      	mov.n	a15, a7
400816e2:	1199      	s32i.n	a9, a1, 4
400816e4:	102192        	l32i	a9, a1, 64
400816e7:	4189      	s32i.n	a8, a1, 16
400816e9:	0199      	s32i.n	a9, a1, 0
400816eb:	06ed      	mov.n	a14, a6
400816ed:	05dd      	mov.n	a13, a5
400816ef:	04cd      	mov.n	a12, a4
400816f1:	03bd      	mov.n	a11, a3
400816f3:	02ad      	mov.n	a10, a2
400816f5:	152172        	l32i	a7, a1, 84
400816f8:	fff7e5        	call8	40081678 <z_setup_new_thread>
400816fb:	4188      	l32i.n	a8, a1, 16
400816fd:	020866        	bnei	a8, -1, 40081703 <z_impl_k_thread_create+0x37>
40081700:	1b0726        	beqi	a7, -1, 4008171f <z_impl_k_thread_create+0x53>
40081703:	209780        	or	a9, a7, a8
40081706:	69cc      	bnez.n	a9, 40081710 <z_impl_k_thread_create+0x44>
40081708:	02ad      	mov.n	a10, a2
4008170a:	007a65        	call8	40081eb0 <z_sched_start>
4008170d:	000386        	j	4008171f <z_impl_k_thread_create+0x53>
40081710:	fb87b1        	l32r	a11, 4008052c <_init_end+0x12c> (40081d58 <z_thread_timeout>)
40081713:	20c880        	or	a12, a8, a8
40081716:	20d770        	or	a13, a7, a7
40081719:	18c2a2        	addi	a10, a2, 24
4008171c:	00b5e5        	call8	4008227c <z_add_timeout>
4008171f:	000090        	retw
	...

40081724 <z_init_static_threads>:
40081724:	006136        	entry	a1, 48
40081727:	fb8221        	l32r	a2, 40080530 <_init_end+0x130> (3f4014a8 <__devicehdl_dts_ord_9>)
4008172a:	fb8131        	l32r	a3, 40080530 <_init_end+0x130> (3f4014a8 <__devicehdl_dts_ord_9>)
4008172d:	024d      	mov.n	a4, a2
4008172f:	0009c6        	j	4008175a <z_init_static_threads+0x36>
40081732:	0a2282        	l32i	a8, a2, 40
40081735:	036182        	s32i	a8, a1, 12
40081738:	8288      	l32i.n	a8, a2, 32
4008173a:	2189      	s32i.n	a8, a1, 8
4008173c:	7288      	l32i.n	a8, a2, 28
4008173e:	1189      	s32i.n	a8, a1, 4
40081740:	6288      	l32i.n	a8, a2, 24
40081742:	0189      	s32i.n	a8, a1, 0
40081744:	52f8      	l32i.n	a15, a2, 20
40081746:	42e8      	l32i.n	a14, a2, 16
40081748:	32d8      	l32i.n	a13, a2, 12
4008174a:	22c8      	l32i.n	a12, a2, 8
4008174c:	12b8      	l32i.n	a11, a2, 4
4008174e:	02a8      	l32i.n	a10, a2, 0
40081750:	fff265        	call8	40081678 <z_setup_new_thread>
40081753:	0288      	l32i.n	a8, a2, 0
40081755:	d829      	s32i.n	a2, a8, 52
40081757:	2cc222        	addi	a2, a2, 44
4008175a:	d43237        	bltu	a2, a3, 40081732 <z_init_static_threads+0xe>
4008175d:	042d      	mov.n	a2, a4
4008175f:	008065        	call8	40081f64 <k_sched_lock>
40081762:	040c      	movi.n	a4, 0
40081764:	000b06        	j	40081794 <z_init_static_threads+0x70>
40081767:	00          	.byte 00
40081768:	0922d2        	l32i	a13, a2, 36
4008176b:	220d26        	beqi	a13, -1, 40081791 <z_init_static_threads+0x6d>
4008176e:	0aa082        	movi	a8, 10
40081771:	53dd40        	max	a13, a13, a4
40081774:	82cd80        	mull	a12, a13, a8
40081777:	b2dd80        	mulsh	a13, a13, a8
4008177a:	0022a2        	l32i	a10, a2, 0
4008177d:	208cd0        	or	a8, a12, a13
40081780:	48cc      	bnez.n	a8, 40081788 <z_init_static_threads+0x64>
40081782:	0072e5        	call8	40081eb0 <z_sched_start>
40081785:	000206        	j	40081791 <z_init_static_threads+0x6d>
40081788:	fb69b1        	l32r	a11, 4008052c <_init_end+0x12c> (40081d58 <z_thread_timeout>)
4008178b:	18caa2        	addi	a10, a10, 24
4008178e:	00aee5        	call8	4008227c <z_add_timeout>
40081791:	2cc222        	addi	a2, a2, 44
40081794:	d03237        	bltu	a2, a3, 40081768 <z_init_static_threads+0x44>
40081797:	007ea5        	call8	40081f80 <k_sched_unlock>
4008179a:	f01d      	retw.n

4008179c <idle>:
4008179c:	004136        	entry	a1, 32
4008179f:	006380        	rsil	a8, 3
400817a2:	ff12a5        	call8	400808cc <arch_cpu_idle>
400817a5:	fffd86        	j	4008179f <idle+0x3>

400817a8 <adjust_owner_prio$isra$0>:
400817a8:	004136        	entry	a1, 32
400817ab:	0e0282        	l8ui	a8, a2, 14
400817ae:	20a220        	or	a10, a2, a2
400817b1:	238800        	sext	a8, a8, 7
400817b4:	20b330        	or	a11, a3, a3
400817b7:	00a022        	movi	a2, 0
400817ba:	041837        	beq	a8, a3, 400817c2 <adjust_owner_prio$isra$0+0x1a>
400817bd:	0063a5        	call8	40081df8 <z_set_prio>
400817c0:	0a2d      	mov.n	a2, a10
400817c2:	f01d      	retw.n

400817c4 <z_impl_k_mutex_lock>:
400817c4:	004136        	entry	a1, 32
400817c7:	006360        	rsil	a6, 3
400817ca:	3238      	l32i.n	a3, a2, 12
400817cc:	fb0f81        	l32r	a8, 40080408 <_init_end+0x8> (3ffb20b0 <_kernel>)
400817cf:	d38c      	beqz.n	a3, 400817e0 <z_impl_k_mutex_lock+0x1c>
400817d1:	22a8      	l32i.n	a10, a2, 8
400817d3:	2898      	l32i.n	a9, a8, 8
400817d5:	131a97        	beq	a10, a9, 400817ec <z_impl_k_mutex_lock+0x28>
400817d8:	203450        	or	a3, a4, a5
400817db:	e3ec      	bnez.n	a3, 4008180d <z_impl_k_mutex_lock+0x49>
400817dd:	000846        	j	40081802 <z_impl_k_mutex_lock+0x3e>
400817e0:	2848      	l32i.n	a4, a8, 8
400817e2:	0e0442        	l8ui	a4, a4, 14
400817e5:	234400        	sext	a4, a4, 7
400817e8:	000086        	j	400817ee <z_impl_k_mutex_lock+0x2a>
400817eb:	00          	.byte 00
400817ec:	4248      	l32i.n	a4, a2, 16
400817ee:	331b      	addi.n	a3, a3, 1
400817f0:	3239      	s32i.n	a3, a2, 12
400817f2:	2838      	l32i.n	a3, a8, 8
400817f4:	4249      	s32i.n	a4, a2, 16
400817f6:	2239      	s32i.n	a3, a2, 8
400817f8:	13e660        	wsr.ps	a6
400817fb:	002010        	rsync
400817fe:	000f46        	j	4008183f <z_impl_k_mutex_lock+0x7b>
40081801:	00          	.byte 00
40081802:	13e660        	wsr.ps	a6
40081805:	002010        	rsync
40081808:	027c      	movi.n	a2, -16
4008180a:	001ec6        	j	40081889 <z_impl_k_mutex_lock+0xc5>
4008180d:	0e0a82        	l8ui	a8, a10, 14
40081810:	0e09b2        	l8ui	a11, a9, 14
40081813:	238800        	sext	a8, a8, 7
40081816:	23bb00        	sext	a11, a11, 7
40081819:	81af32        	movi	a3, -127
4008181c:	43bb80        	min	a11, a11, a8
4008181f:	53bb30        	max	a11, a11, a3
40081822:	030c      	movi.n	a3, 0
40081824:	04ab87        	bge	a11, a8, 4008182c <z_impl_k_mutex_lock+0x68>
40081827:	fff825        	call8	400817a8 <adjust_owner_prio$isra$0>
4008182a:	0a3d      	mov.n	a3, a10
4008182c:	fb42a1        	l32r	a10, 40080534 <_init_end+0x134> (3ffb2103 <slice_expired>)
4008182f:	20e440        	or	a14, a4, a4
40081832:	20f550        	or	a15, a5, a5
40081835:	20c220        	or	a12, a2, a2
40081838:	06bd      	mov.n	a11, a6
4008183a:	0052e5        	call8	40081d68 <z_pend_curr>
4008183d:	4acc      	bnez.n	a10, 40081845 <z_impl_k_mutex_lock+0x81>
4008183f:	020c      	movi.n	a2, 0
40081841:	001106        	j	40081889 <z_impl_k_mutex_lock+0xc5>
40081844:	00          	.byte 00
40081845:	006350        	rsil	a5, 3
40081848:	0222a2        	l32i	a10, a2, 8
4008184b:	02ea16        	beqz	a10, 4008187d <z_impl_k_mutex_lock+0xb9>
4008184e:	002242        	l32i	a4, a2, 0
40081851:	42b8      	l32i.n	a11, a2, 16
40081853:	011416        	beqz	a4, 40081868 <z_impl_k_mutex_lock+0xa4>
40081856:	0e1247        	beq	a2, a4, 40081868 <z_impl_k_mutex_lock+0xa4>
40081859:	0e0422        	l8ui	a2, a4, 14
4008185c:	232200        	sext	a2, a2, 7
4008185f:	43bb20        	min	a11, a11, a2
40081862:	81af22        	movi	a2, -127
40081865:	53bb20        	max	a11, a11, a2
40081868:	fff3e5        	call8	400817a8 <adjust_owner_prio$isra$0>
4008186b:	13cc      	bnez.n	a3, 40081870 <z_impl_k_mutex_lock+0xac>
4008186d:	00fa16        	beqz	a10, 40081880 <z_impl_k_mutex_lock+0xbc>
40081870:	fb31a1        	l32r	a10, 40080534 <_init_end+0x134> (3ffb2103 <slice_expired>)
40081873:	05bd      	mov.n	a11, a5
40081875:	0060e5        	call8	40081e84 <z_reschedule>
40081878:	527c      	movi.n	a2, -11
4008187a:	0002c6        	j	40081889 <z_impl_k_mutex_lock+0xc5>
4008187d:	fef356        	bnez	a3, 40081870 <z_impl_k_mutex_lock+0xac>
40081880:	13e650        	wsr.ps	a5
40081883:	002010        	rsync
40081886:	fffb86        	j	40081878 <z_impl_k_mutex_lock+0xb4>
40081889:	f01d      	retw.n
	...

4008188c <z_impl_k_mutex_unlock>:
4008188c:	004136        	entry	a1, 32
4008188f:	2238      	l32i.n	a3, a2, 8
40081891:	a86c      	movi.n	a8, -22
40081893:	055316        	beqz	a3, 400818ec <z_impl_k_mutex_unlock+0x60>
40081896:	fadc81        	l32r	a8, 40080408 <_init_end+0x8> (3ffb20b0 <_kernel>)
40081899:	2898      	l32i.n	a9, a8, 8
4008189b:	f87c      	movi.n	a8, -1
4008189d:	4b9397        	bne	a3, a9, 400818ec <z_impl_k_mutex_unlock+0x60>
400818a0:	3288      	l32i.n	a8, a2, 12
400818a2:	0828b6        	bltui	a8, 2, 400818ae <z_impl_k_mutex_unlock+0x22>
400818a5:	880b      	addi.n	a8, a8, -1
400818a7:	3289      	s32i.n	a8, a2, 12
400818a9:	080c      	movi.n	a8, 0
400818ab:	000f46        	j	400818ec <z_impl_k_mutex_unlock+0x60>
400818ae:	006330        	rsil	a3, 3
400818b1:	42b8      	l32i.n	a11, a2, 16
400818b3:	0222a2        	l32i	a10, a2, 8
400818b6:	ffef25        	call8	400817a8 <adjust_owner_prio$isra$0>
400818b9:	20a220        	or	a10, a2, a2
400818bc:	004ee5        	call8	40081dac <z_unpend_first_thread>
400818bf:	22a9      	s32i.n	a10, a2, 8
400818c1:	ba9c      	beqz.n	a10, 400818e0 <z_impl_k_mutex_unlock+0x54>
400818c3:	0e0a82        	l8ui	a8, a10, 14
400818c6:	238800        	sext	a8, a8, 7
400818c9:	4289      	s32i.n	a8, a2, 16
400818cb:	00a022        	movi	a2, 0
400818ce:	116a22        	s32i	a2, a10, 68
400818d1:	0041e5        	call8	40081cf0 <z_ready_thread>
400818d4:	fb18a1        	l32r	a10, 40080534 <_init_end+0x134> (3ffb2103 <slice_expired>)
400818d7:	03bd      	mov.n	a11, a3
400818d9:	005aa5        	call8	40081e84 <z_reschedule>
400818dc:	fff246        	j	400818a9 <z_impl_k_mutex_unlock+0x1d>
400818df:	00          	.byte 00
400818e0:	32a9      	s32i.n	a10, a2, 12
400818e2:	13e630        	wsr.ps	a3
400818e5:	002010        	rsync
400818e8:	ffef46        	j	400818a9 <z_impl_k_mutex_unlock+0x1d>
400818eb:	00          	.byte 00
400818ec:	082d      	mov.n	a2, a8
400818ee:	f01d      	retw.n

400818f0 <z_impl_k_sem_give>:
400818f0:	004136        	entry	a1, 32
400818f3:	006330        	rsil	a3, 3
400818f6:	20a220        	or	a10, a2, a2
400818f9:	004b25        	call8	40081dac <z_unpend_first_thread>
400818fc:	00da16        	beqz	a10, 4008190d <z_impl_k_sem_give+0x1d>
400818ff:	00a022        	movi	a2, 0
40081902:	116a22        	s32i	a2, a10, 68
40081905:	003ea5        	call8	40081cf0 <z_ready_thread>
40081908:	000506        	j	40081920 <z_impl_k_sem_give+0x30>
4008190b:	00          	.byte 00
4008190c:	00          	.byte 00
4008190d:	0222b2        	l32i	a11, a2, 8
40081910:	032292        	l32i	a9, a2, 12
40081913:	01a082        	movi	a8, 1
40081916:	c099b0        	sub	a9, a9, a11
40081919:	838a90        	moveqz	a8, a10, a9
4008191c:	88ba      	add.n	a8, a8, a11
4008191e:	2289      	s32i.n	a8, a2, 8
40081920:	fb06a1        	l32r	a10, 40080538 <_init_end+0x138> (3ffb2103 <slice_expired>)
40081923:	03bd      	mov.n	a11, a3
40081925:	0055e5        	call8	40081e84 <z_reschedule>
40081928:	f01d      	retw.n
	...

4008192c <z_impl_k_sem_take>:
4008192c:	004136        	entry	a1, 32
4008192f:	02cd      	mov.n	a12, a2
40081931:	04ed      	mov.n	a14, a4
40081933:	05fd      	mov.n	a15, a5
40081935:	0063b0        	rsil	a11, 3
40081938:	2288      	l32i.n	a8, a2, 8
4008193a:	e88c      	beqz.n	a8, 4008194c <z_impl_k_sem_take+0x20>
4008193c:	880b      	addi.n	a8, a8, -1
4008193e:	2289      	s32i.n	a8, a2, 8
40081940:	13e6b0        	wsr.ps	a11
40081943:	002010        	rsync
40081946:	0a0c      	movi.n	a10, 0
40081948:	000586        	j	40081962 <z_impl_k_sem_take+0x36>
4008194b:	00          	.byte 00
4008194c:	208450        	or	a8, a4, a5
4008194f:	98cc      	bnez.n	a8, 4008195c <z_impl_k_sem_take+0x30>
40081951:	13e6b0        	wsr.ps	a11
40081954:	002010        	rsync
40081957:	0a7c      	movi.n	a10, -16
40081959:	000146        	j	40081962 <z_impl_k_sem_take+0x36>
4008195c:	faf7a1        	l32r	a10, 40080538 <_init_end+0x138> (3ffb2103 <slice_expired>)
4008195f:	0040a5        	call8	40081d68 <z_pend_curr>
40081962:	0a2d      	mov.n	a2, a10
40081964:	f01d      	retw.n
	...

40081968 <sliceable>:
40081968:	004136        	entry	a1, 32
4008196b:	071292        	l16ui	a9, a2, 14
4008196e:	7fa0a2        	movi	a10, 127
40081971:	080c      	movi.n	a8, 0
40081973:	313a97        	bltu	a10, a9, 400819a8 <sliceable+0x40>
40081976:	faf181        	l32r	a8, 4008053c <_init_end+0x13c> (3ffb20d4 <slice_ticks>)
40081979:	0888      	l32i.n	a8, a8, 0
4008197b:	98ac      	beqz.n	a8, 400819a8 <sliceable+0x40>
4008197d:	faf081        	l32r	a8, 40080540 <_init_end+0x140> (3ffb20d0 <slice_max_prio>)
40081980:	0e0292        	l8ui	a9, a2, 14
40081983:	08a8      	l32i.n	a10, a8, 0
40081985:	239900        	sext	a9, a9, 7
40081988:	080c      	movi.n	a8, 0
4008198a:	1a29a7        	blt	a9, a10, 400819a8 <sliceable+0x40>
4008198d:	0d0292        	l8ui	a9, a2, 13
40081990:	01a0a2        	movi	a10, 1
40081993:	449090        	extui	a9, a9, 0, 5
40081996:	20b880        	or	a11, a8, a8
40081999:	83ba90        	moveqz	a11, a10, a9
4008199c:	fadb91        	l32r	a9, 40080508 <_init_end+0x108> (3ffb1cd8 <z_idle_threads>)
4008199f:	c02290        	sub	a2, a2, a9
400819a2:	938a20        	movnez	a8, a10, a2
400819a5:	108b80        	and	a8, a11, a8
400819a8:	042080        	extui	a2, a8, 0, 1
400819ab:	f01d      	retw.n
400819ad:	000000        	ill

400819b0 <slice_timeout>:
400819b0:	004136        	entry	a1, 32
400819b3:	fae581        	l32r	a8, 40080548 <_init_end+0x148> (3ffb1d88 <slice_timeouts>)
400819b6:	fae591        	l32r	a9, 4008054c <_init_end+0x14c> (aaaaaaab <_rtc_bss_end+0x5aaaaaab>)
400819b9:	c08280        	sub	a8, a2, a8
400819bc:	218380        	srai	a8, a8, 3
400819bf:	828890        	mull	a8, a8, a9
400819c2:	fae091        	l32r	a9, 40080544 <_init_end+0x144> (3ffb2103 <slice_expired>)
400819c5:	898a      	add.n	a8, a9, a8
400819c7:	190c      	movi.n	a9, 1
400819c9:	004892        	s8i	a9, a8, 0
400819cc:	f01d      	retw.n
	...

400819d0 <unpend_thread_no_timeout>:
400819d0:	004136        	entry	a1, 32
400819d3:	02ad      	mov.n	a10, a2
400819d5:	00dca5        	call8	400827a0 <sys_dlist_remove>
400819d8:	0d0282        	l8ui	a8, a2, 13
400819db:	d97c      	movi.n	a9, -3
400819dd:	108890        	and	a8, a8, a9
400819e0:	0d4282        	s8i	a8, a2, 13
400819e3:	080c      	movi.n	a8, 0
400819e5:	2289      	s32i.n	a8, a2, 8
400819e7:	f01d      	retw.n
400819e9:	000000        	ill

400819ec <z_reset_time_slice>:
400819ec:	004136        	entry	a1, 32
400819ef:	fa8631        	l32r	a3, 40080408 <_init_end+0x8> (3ffb20b0 <_kernel>)
400819f2:	fad581        	l32r	a8, 40080548 <_init_end+0x148> (3ffb1d88 <slice_timeouts>)
400819f5:	100342        	l8ui	a4, a3, 16
400819f8:	903440        	addx2	a3, a4, a4
400819fb:	b03380        	addx8	a3, a3, a8
400819fe:	20a330        	or	a10, a3, a3
40081a01:	0097e5        	call8	40082380 <z_abort_timeout>
40081a04:	fad081        	l32r	a8, 40080544 <_init_end+0x144> (3ffb2103 <slice_expired>)
40081a07:	02ad      	mov.n	a10, a2
40081a09:	884a      	add.n	a8, a8, a4
40081a0b:	040c      	movi.n	a4, 0
40081a0d:	004842        	s8i	a4, a8, 0
40081a10:	fff565        	call8	40081968 <sliceable>
40081a13:	2a9c      	beqz.n	a10, 40081a29 <z_reset_time_slice+0x3d>
40081a15:	fac941        	l32r	a4, 4008053c <_init_end+0x13c> (3ffb20d4 <slice_ticks>)
40081a18:	faceb1        	l32r	a11, 40080550 <_init_end+0x150> (400819b0 <slice_timeout>)
40081a1b:	04d8      	l32i.n	a13, a4, 0
40081a1d:	03ad      	mov.n	a10, a3
40081a1f:	dd0b      	addi.n	a13, a13, -1
40081a21:	0dcd      	mov.n	a12, a13
40081a23:	31dfd0        	srai	a13, a13, 31
40081a26:	008565        	call8	4008227c <z_add_timeout>
40081a29:	f01d      	retw.n
	...

40081a2c <z_swap_irqlock>:
40081a2c:	004136        	entry	a1, 32
40081a2f:	fa7631        	l32r	a3, 40080408 <_init_end+0x8> (3ffb20b0 <_kernel>)
40081a32:	f5af42        	movi	a4, -11
40081a35:	022352        	l32i	a5, a3, 8
40081a38:	116542        	s32i	a4, a5, 68
40081a3b:	006340        	rsil	a4, 3
40081a3e:	5348      	l32i.n	a4, a3, 20
40081a40:	101547        	beq	a5, a4, 40081a54 <z_swap_irqlock+0x28>
40081a43:	04ad      	mov.n	a10, a4
40081a45:	026342        	s32i	a4, a3, 8
40081a48:	fffa25        	call8	400819ec <z_reset_time_slice>
40081a4b:	1224a2        	l32i	a10, a4, 72
40081a4e:	48c5b2        	addi	a11, a5, 72
40081a51:	fefa25        	call8	400809f4 <xtensa_switch>
40081a54:	13e620        	wsr.ps	a2
40081a57:	002010        	rsync
40081a5a:	2338      	l32i.n	a3, a3, 8
40081a5c:	112322        	l32i	a2, a3, 68
40081a5f:	f01d      	retw.n
40081a61:	000000        	ill

40081a64 <z_swap>:
40081a64:	004136        	entry	a1, 32
40081a67:	fa6841        	l32r	a4, 40080408 <_init_end+0x8> (3ffb20b0 <_kernel>)
40081a6a:	f5af82        	movi	a8, -11
40081a6d:	022452        	l32i	a5, a4, 8
40081a70:	116582        	s32i	a8, a5, 68
40081a73:	fab881        	l32r	a8, 40080554 <_init_end+0x154> (3ffb2104 <sched_spinlock>)
40081a76:	021827        	beq	a8, a2, 40081a7c <z_swap+0x18>
40081a79:	006320        	rsil	a2, 3
40081a7c:	5428      	l32i.n	a2, a4, 20
40081a7e:	0f1527        	beq	a5, a2, 40081a91 <z_swap+0x2d>
40081a81:	02ad      	mov.n	a10, a2
40081a83:	2429      	s32i.n	a2, a4, 8
40081a85:	fff665        	call8	400819ec <z_reset_time_slice>
40081a88:	1222a2        	l32i	a10, a2, 72
40081a8b:	48c5b2        	addi	a11, a5, 72
40081a8e:	fef665        	call8	400809f4 <xtensa_switch>
40081a91:	13e630        	wsr.ps	a3
40081a94:	002010        	rsync
40081a97:	2428      	l32i.n	a2, a4, 8
40081a99:	112222        	l32i	a2, a2, 68
40081a9c:	f01d      	retw.n
	...

40081aa0 <update_cache>:
40081aa0:	004136        	entry	a1, 32
40081aa3:	fa5941        	l32r	a4, 40080408 <_init_end+0x8> (3ffb20b0 <_kernel>)
40081aa6:	faaca1        	l32r	a10, 40080558 <_init_end+0x158> (3ffb20c8 <_kernel+0x18>)
40081aa9:	062432        	l32i	a3, a4, 24
40081aac:	01a082        	movi	a8, 1
40081aaf:	c0a3a0        	sub	a10, a3, a10
40081ab2:	00a092        	movi	a9, 0
40081ab5:	8398a0        	moveqz	a9, a8, a10
40081ab8:	74a090        	extui	a10, a9, 0, 8
40081abb:	004956        	bnez	a9, 40081ac3 <update_cache+0x23>
40081abe:	938a30        	movnez	a8, a10, a3
40081ac1:	088c      	beqz.n	a8, 40081ac5 <update_cache+0x25>
40081ac3:	3438      	l32i.n	a3, a4, 12
40081ac5:	2488      	l32i.n	a8, a4, 8
40081ac7:	011256        	bnez	a2, 40081adc <update_cache+0x3c>
40081aca:	0d0892        	l8ui	a9, a8, 13
40081acd:	449090        	extui	a9, a9, 0, 5
40081ad0:	008956        	bnez	a9, 40081adc <update_cache+0x3c>
40081ad3:	071892        	l16ui	a9, a8, 14
40081ad6:	7fa0a2        	movi	a10, 127
40081ad9:	093a97        	bltu	a10, a9, 40081ae6 <update_cache+0x46>
40081adc:	041837        	beq	a8, a3, 40081ae4 <update_cache+0x44>
40081adf:	03ad      	mov.n	a10, a3
40081ae1:	fff0a5        	call8	400819ec <z_reset_time_slice>
40081ae4:	038d      	mov.n	a8, a3
40081ae6:	5489      	s32i.n	a8, a4, 20
40081ae8:	f01d      	retw.n
	...

40081aec <move_thread_to_end_of_prio_q>:
40081aec:	004136        	entry	a1, 32
40081aef:	0d0282        	l8ui	a8, a2, 13
40081af2:	239800        	sext	a9, a8, 7
40081af5:	00a9d6        	bgez	a9, 40081b03 <move_thread_to_end_of_prio_q+0x17>
40081af8:	648080        	extui	a8, a8, 0, 7
40081afb:	0d4282        	s8i	a8, a2, 13
40081afe:	02ad      	mov.n	a10, a2
40081b00:	00c9e5        	call8	400827a0 <sys_dlist_remove>
40081b03:	0d0282        	l8ui	a8, a2, 13
40081b06:	80af92        	movi	a9, -128
40081b09:	208890        	or	a8, a8, a9
40081b0c:	fa3f91        	l32r	a9, 40080408 <_init_end+0x8> (3ffb20b0 <_kernel>)
40081b0f:	0d4282        	s8i	a8, a2, 13
40081b12:	6988      	l32i.n	a8, a9, 24
40081b14:	fa91d1        	l32r	a13, 40080558 <_init_end+0x158> (3ffb20c8 <_kernel+0x18>)
40081b17:	0198d7        	bne	a8, a13, 40081b1c <move_thread_to_end_of_prio_q+0x30>
40081b1a:	080c      	movi.n	a8, 0
40081b1c:	79c8      	l32i.n	a12, a9, 28
40081b1e:	000906        	j	40081b46 <move_thread_to_end_of_prio_q+0x5a>
40081b21:	0e02b2        	l8ui	a11, a2, 14
40081b24:	0e08a2        	l8ui	a10, a8, 14
40081b27:	23bb00        	sext	a11, a11, 7
40081b2a:	23aa00        	sext	a10, a10, 7
40081b2d:	0f1ba7        	beq	a11, a10, 40081b40 <move_thread_to_end_of_prio_q+0x54>
40081b30:	0caba7        	bge	a11, a10, 40081b40 <move_thread_to_end_of_prio_q+0x54>
40081b33:	18a8      	l32i.n	a10, a8, 4
40081b35:	0289      	s32i.n	a8, a2, 0
40081b37:	12a9      	s32i.n	a10, a2, 4
40081b39:	0a29      	s32i.n	a2, a10, 0
40081b3b:	1829      	s32i.n	a2, a8, 4
40081b3d:	000486        	j	40081b53 <move_thread_to_end_of_prio_q+0x67>
40081b40:	051c87        	beq	a12, a8, 40081b49 <move_thread_to_end_of_prio_q+0x5d>
40081b43:	002882        	l32i	a8, a8, 0
40081b46:	fd7856        	bnez	a8, 40081b21 <move_thread_to_end_of_prio_q+0x35>
40081b49:	0062d2        	s32i	a13, a2, 0
40081b4c:	0162c2        	s32i	a12, a2, 4
40081b4f:	0c29      	s32i.n	a2, a12, 0
40081b51:	7929      	s32i.n	a2, a9, 28
40081b53:	2988      	l32i.n	a8, a9, 8
40081b55:	1a0c      	movi.n	a10, 1
40081b57:	c02820        	sub	a2, a8, a2
40081b5a:	080c      	movi.n	a8, 0
40081b5c:	93a820        	movnez	a10, a8, a2
40081b5f:	fff425        	call8	40081aa0 <update_cache>
40081b62:	f01d      	retw.n

40081b64 <ready_thread>:
40081b64:	004136        	entry	a1, 32
40081b67:	0d0292        	l8ui	a9, a2, 13
40081b6a:	238900        	sext	a8, a9, 7
40081b6d:	05f896        	bltz	a8, 40081bd0 <ready_thread+0x6c>
40081b70:	448090        	extui	a8, a9, 0, 5
40081b73:	059856        	bnez	a8, 40081bd0 <ready_thread+0x6c>
40081b76:	6288      	l32i.n	a8, a2, 24
40081b78:	054856        	bnez	a8, 40081bd0 <ready_thread+0x6c>
40081b7b:	80afa2        	movi	a10, -128
40081b7e:	2099a0        	or	a9, a9, a10
40081b81:	fa21b1        	l32r	a11, 40080408 <_init_end+0x8> (3ffb20b0 <_kernel>)
40081b84:	0d4292        	s8i	a9, a2, 13
40081b87:	6b98      	l32i.n	a9, a11, 24
40081b89:	fa73d1        	l32r	a13, 40080558 <_init_end+0x158> (3ffb20c8 <_kernel+0x18>)
40081b8c:	7bc8      	l32i.n	a12, a11, 28
40081b8e:	c0a9d0        	sub	a10, a9, a13
40081b91:	9389a0        	movnez	a8, a9, a10
40081b94:	000986        	j	40081bbe <ready_thread+0x5a>
40081b97:	00          	.byte 00
40081b98:	0e02a2        	l8ui	a10, a2, 14
40081b9b:	0e0892        	l8ui	a9, a8, 14
40081b9e:	23aa00        	sext	a10, a10, 7
40081ba1:	239900        	sext	a9, a9, 7
40081ba4:	101a97        	beq	a10, a9, 40081bb8 <ready_thread+0x54>
40081ba7:	0daa97        	bge	a10, a9, 40081bb8 <ready_thread+0x54>
40081baa:	1898      	l32i.n	a9, a8, 4
40081bac:	0289      	s32i.n	a8, a2, 0
40081bae:	1299      	s32i.n	a9, a2, 4
40081bb0:	0929      	s32i.n	a2, a9, 0
40081bb2:	1829      	s32i.n	a2, a8, 4
40081bb4:	0004c6        	j	40081bcb <ready_thread+0x67>
40081bb7:	00          	.byte 00
40081bb8:	0518c7        	beq	a8, a12, 40081bc1 <ready_thread+0x5d>
40081bbb:	002882        	l32i	a8, a8, 0
40081bbe:	fd6856        	bnez	a8, 40081b98 <ready_thread+0x34>
40081bc1:	0062d2        	s32i	a13, a2, 0
40081bc4:	0162c2        	s32i	a12, a2, 4
40081bc7:	0c29      	s32i.n	a2, a12, 0
40081bc9:	7b29      	s32i.n	a2, a11, 28
40081bcb:	0a0c      	movi.n	a10, 0
40081bcd:	ffed25        	call8	40081aa0 <update_cache>
40081bd0:	f01d      	retw.n
	...

40081bd4 <unready_thread>:
40081bd4:	004136        	entry	a1, 32
40081bd7:	0d0282        	l8ui	a8, a2, 13
40081bda:	239800        	sext	a9, a8, 7
40081bdd:	00b9d6        	bgez	a9, 40081bec <unready_thread+0x18>
40081be0:	648080        	extui	a8, a8, 0, 7
40081be3:	0d4282        	s8i	a8, a2, 13
40081be6:	20a220        	or	a10, a2, a2
40081be9:	00bb65        	call8	400827a0 <sys_dlist_remove>
40081bec:	fa0781        	l32r	a8, 40080408 <_init_end+0x8> (3ffb20b0 <_kernel>)
40081bef:	01a0a2        	movi	a10, 1
40081bf2:	2888      	l32i.n	a8, a8, 8
40081bf4:	c02820        	sub	a2, a8, a2
40081bf7:	00a082        	movi	a8, 0
40081bfa:	93a820        	movnez	a10, a8, a2
40081bfd:	ffea25        	call8	40081aa0 <update_cache>
40081c00:	f01d      	retw.n
	...

40081c04 <add_to_waitq_locked>:
40081c04:	004136        	entry	a1, 32
40081c07:	02ad      	mov.n	a10, a2
40081c09:	fffca5        	call8	40081bd4 <unready_thread>
40081c0c:	0d0282        	l8ui	a8, a2, 13
40081c0f:	290c      	movi.n	a9, 2
40081c11:	208890        	or	a8, a8, a9
40081c14:	0d4282        	s8i	a8, a2, 13
40081c17:	f3bc      	beqz.n	a3, 40081c5a <add_to_waitq_locked+0x56>
40081c19:	2239      	s32i.n	a3, a2, 8
40081c1b:	0388      	l32i.n	a8, a3, 0
40081c1d:	2c9387        	bne	a3, a8, 40081c4d <add_to_waitq_locked+0x49>
40081c20:	000b06        	j	40081c50 <add_to_waitq_locked+0x4c>
40081c23:	00          	.byte 00
40081c24:	0e02a2        	l8ui	a10, a2, 14
40081c27:	0e0892        	l8ui	a9, a8, 14
40081c2a:	23aa00        	sext	a10, a10, 7
40081c2d:	239900        	sext	a9, a9, 7
40081c30:	121a97        	beq	a10, a9, 40081c46 <add_to_waitq_locked+0x42>
40081c33:	0faa97        	bge	a10, a9, 40081c46 <add_to_waitq_locked+0x42>
40081c36:	1838      	l32i.n	a3, a8, 4
40081c38:	0289      	s32i.n	a8, a2, 0
40081c3a:	1239      	s32i.n	a3, a2, 4
40081c3c:	0329      	s32i.n	a2, a3, 0
40081c3e:	1829      	s32i.n	a2, a8, 4
40081c40:	000586        	j	40081c5a <add_to_waitq_locked+0x56>
40081c43:	00          	.byte 00
40081c44:	00          	.byte 00
40081c45:	00          	.byte 00
40081c46:	1398      	l32i.n	a9, a3, 4
40081c48:	041897        	beq	a8, a9, 40081c50 <add_to_waitq_locked+0x4c>
40081c4b:	0888      	l32i.n	a8, a8, 0
40081c4d:	fd3856        	bnez	a8, 40081c24 <add_to_waitq_locked+0x20>
40081c50:	1388      	l32i.n	a8, a3, 4
40081c52:	0239      	s32i.n	a3, a2, 0
40081c54:	1289      	s32i.n	a8, a2, 4
40081c56:	0829      	s32i.n	a2, a8, 0
40081c58:	1329      	s32i.n	a2, a3, 4
40081c5a:	f01d      	retw.n

40081c5c <pend_locked>:
40081c5c:	004136        	entry	a1, 32
40081c5f:	20b330        	or	a11, a3, a3
40081c62:	20a220        	or	a10, a2, a2
40081c65:	fff9e5        	call8	40081c04 <add_to_waitq_locked>
40081c68:	020466        	bnei	a4, -1, 40081c6e <pend_locked+0x12>
40081c6b:	0d0526        	beqi	a5, -1, 40081c7c <pend_locked+0x20>
40081c6e:	fa2fb1        	l32r	a11, 4008052c <_init_end+0x12c> (40081d58 <z_thread_timeout>)
40081c71:	04cd      	mov.n	a12, a4
40081c73:	20d550        	or	a13, a5, a5
40081c76:	18c2a2        	addi	a10, a2, 24
40081c79:	006025        	call8	4008227c <z_add_timeout>
40081c7c:	f01d      	retw.n
	...

40081c80 <k_sched_time_slice_set>:
40081c80:	004136        	entry	a1, 32
40081c83:	006340        	rsil	a4, 3
40081c86:	a08220        	addx4	a8, a2, a2
40081c89:	888a      	add.n	a8, a8, a8
40081c8b:	0512a6        	blti	a2, 1, 40081c94 <k_sched_time_slice_set+0x14>
40081c8e:	02a022        	movi	a2, 2
40081c91:	538820        	max	a8, a8, a2
40081c94:	fa2a21        	l32r	a2, 4008053c <_init_end+0x13c> (3ffb20d4 <slice_ticks>)
40081c97:	006282        	s32i	a8, a2, 0
40081c9a:	fa2921        	l32r	a2, 40080540 <_init_end+0x140> (3ffb20d0 <slice_max_prio>)
40081c9d:	006232        	s32i	a3, a2, 0
40081ca0:	f9da21        	l32r	a2, 40080408 <_init_end+0x8> (3ffb20b0 <_kernel>)
40081ca3:	0222a2        	l32i	a10, a2, 8
40081ca6:	ffd465        	call8	400819ec <z_reset_time_slice>
40081ca9:	13e640        	wsr.ps	a4
40081cac:	002010        	rsync
40081caf:	f01d      	retw.n
40081cb1:	000000        	ill

40081cb4 <z_time_slice>:
40081cb4:	004136        	entry	a1, 32
40081cb7:	006330        	rsil	a3, 3
40081cba:	f9d381        	l32r	a8, 40080408 <_init_end+0x8> (3ffb20b0 <_kernel>)
40081cbd:	fa2121        	l32r	a2, 40080544 <_init_end+0x144> (3ffb2103 <slice_expired>)
40081cc0:	100892        	l8ui	a9, a8, 16
40081cc3:	802290        	add	a2, a2, a9
40081cc6:	000222        	l8ui	a2, a2, 0
40081cc9:	01a216        	beqz	a2, 40081ce7 <z_time_slice+0x33>
40081ccc:	2828      	l32i.n	a2, a8, 8
40081cce:	02ad      	mov.n	a10, a2
40081cd0:	ffc965        	call8	40081968 <sliceable>
40081cd3:	0a9c      	beqz.n	a10, 40081ce7 <z_time_slice+0x33>
40081cd5:	0d0282        	l8ui	a8, a2, 13
40081cd8:	448080        	extui	a8, a8, 0, 5
40081cdb:	38cc      	bnez.n	a8, 40081ce2 <z_time_slice+0x2e>
40081cdd:	02ad      	mov.n	a10, a2
40081cdf:	ffe0e5        	call8	40081aec <move_thread_to_end_of_prio_q>
40081ce2:	02ad      	mov.n	a10, a2
40081ce4:	ffd065        	call8	400819ec <z_reset_time_slice>
40081ce7:	13e630        	wsr.ps	a3
40081cea:	002010        	rsync
40081ced:	f01d      	retw.n
	...

40081cf0 <z_ready_thread>:
40081cf0:	004136        	entry	a1, 32
40081cf3:	02ad      	mov.n	a10, a2
40081cf5:	006330        	rsil	a3, 3
40081cf8:	ffe6a5        	call8	40081b64 <ready_thread>
40081cfb:	13e630        	wsr.ps	a3
40081cfe:	002010        	rsync
40081d01:	f01d      	retw.n
	...

40081d04 <z_unpend_thread_no_timeout>:
40081d04:	004136        	entry	a1, 32
40081d07:	02ad      	mov.n	a10, a2
40081d09:	006320        	rsil	a2, 3
40081d0c:	2a88      	l32i.n	a8, a10, 8
40081d0e:	002816        	beqz	a8, 40081d14 <z_unpend_thread_no_timeout+0x10>
40081d11:	ffcbe5        	call8	400819d0 <unpend_thread_no_timeout>
40081d14:	13e620        	wsr.ps	a2
40081d17:	002010        	rsync
40081d1a:	f01d      	retw.n

40081d1c <z_sched_wake_thread>:
40081d1c:	004136        	entry	a1, 32
40081d1f:	743030        	extui	a3, a3, 0, 8
40081d22:	006340        	rsil	a4, 3
40081d25:	0d0282        	l8ui	a8, a2, 13
40081d28:	892c      	movi.n	a9, 40
40081d2a:	1f8987        	bany	a9, a8, 40081d4d <z_sched_wake_thread+0x31>
40081d2d:	2288      	l32i.n	a8, a2, 8
40081d2f:	388c      	beqz.n	a8, 40081d36 <z_sched_wake_thread+0x1a>
40081d31:	02ad      	mov.n	a10, a2
40081d33:	ffc9e5        	call8	400819d0 <unpend_thread_no_timeout>
40081d36:	0d0292        	l8ui	a9, a2, 13
40081d39:	b86c      	movi.n	a8, -21
40081d3b:	108980        	and	a8, a9, a8
40081d3e:	33cc      	bnez.n	a3, 40081d45 <z_sched_wake_thread+0x29>
40081d40:	b87c      	movi.n	a8, -5
40081d42:	108980        	and	a8, a9, a8
40081d45:	0d4282        	s8i	a8, a2, 13
40081d48:	02ad      	mov.n	a10, a2
40081d4a:	ffe1a5        	call8	40081b64 <ready_thread>
40081d4d:	13e640        	wsr.ps	a4
40081d50:	002010        	rsync
40081d53:	f01d      	retw.n
40081d55:	000000        	ill

40081d58 <z_thread_timeout>:
40081d58:	004136        	entry	a1, 32
40081d5b:	1b0c      	movi.n	a11, 1
40081d5d:	e8c2a2        	addi	a10, a2, -24
40081d60:	fffba5        	call8	40081d1c <z_sched_wake_thread>
40081d63:	f01d      	retw.n
40081d65:	000000        	ill

40081d68 <z_pend_curr>:
40081d68:	004136        	entry	a1, 32
40081d6b:	07dd      	mov.n	a13, a7
40081d6d:	06cd      	mov.n	a12, a6
40081d6f:	04bd      	mov.n	a11, a4
40081d71:	006380        	rsil	a8, 3
40081d74:	f9a581        	l32r	a8, 40080408 <_init_end+0x8> (3ffb20b0 <_kernel>)
40081d77:	28a8      	l32i.n	a10, a8, 8
40081d79:	ffee25        	call8	40081c5c <pend_locked>
40081d7c:	f9f6a1        	l32r	a10, 40080554 <_init_end+0x154> (3ffb2104 <sched_spinlock>)
40081d7f:	03bd      	mov.n	a11, a3
40081d81:	ffce25        	call8	40081a64 <z_swap>
40081d84:	0a2d      	mov.n	a2, a10
40081d86:	f01d      	retw.n

40081d88 <z_unpend1_no_timeout>:
40081d88:	004136        	entry	a1, 32
40081d8b:	028d      	mov.n	a8, a2
40081d8d:	006330        	rsil	a3, 3
40081d90:	0228      	l32i.n	a2, a2, 0
40081d92:	a28c      	beqz.n	a2, 40081da0 <z_unpend1_no_timeout+0x18>
40081d94:	081827        	beq	a8, a2, 40081da0 <z_unpend1_no_timeout+0x18>
40081d97:	02ad      	mov.n	a10, a2
40081d99:	ffc365        	call8	400819d0 <unpend_thread_no_timeout>
40081d9c:	000086        	j	40081da2 <z_unpend1_no_timeout+0x1a>
40081d9f:	00          	.byte 00
40081da0:	020c      	movi.n	a2, 0
40081da2:	13e630        	wsr.ps	a3
40081da5:	002010        	rsync
40081da8:	f01d      	retw.n
	...

40081dac <z_unpend_first_thread>:
40081dac:	004136        	entry	a1, 32
40081daf:	208220        	or	a8, a2, a2
40081db2:	006330        	rsil	a3, 3
40081db5:	002222        	l32i	a2, a2, 0
40081db8:	029c      	beqz.n	a2, 40081dcc <z_unpend_first_thread+0x20>
40081dba:	0e1827        	beq	a8, a2, 40081dcc <z_unpend_first_thread+0x20>
40081dbd:	20a220        	or	a10, a2, a2
40081dc0:	ffc0e5        	call8	400819d0 <unpend_thread_no_timeout>
40081dc3:	18c2a2        	addi	a10, a2, 24
40081dc6:	005ba5        	call8	40082380 <z_abort_timeout>
40081dc9:	000046        	j	40081dce <z_unpend_first_thread+0x22>
40081dcc:	020c      	movi.n	a2, 0
40081dce:	13e630        	wsr.ps	a3
40081dd1:	002010        	rsync
40081dd4:	f01d      	retw.n
	...

40081dd8 <z_unpend_thread>:
40081dd8:	004136        	entry	a1, 32
40081ddb:	006330        	rsil	a3, 3
40081dde:	2288      	l32i.n	a8, a2, 8
40081de0:	004816        	beqz	a8, 40081de8 <z_unpend_thread+0x10>
40081de3:	02ad      	mov.n	a10, a2
40081de5:	ffbea5        	call8	400819d0 <unpend_thread_no_timeout>
40081de8:	13e630        	wsr.ps	a3
40081deb:	002010        	rsync
40081dee:	18c2a2        	addi	a10, a2, 24
40081df1:	0058e5        	call8	40082380 <z_abort_timeout>
40081df4:	f01d      	retw.n
	...

40081df8 <z_set_prio>:
40081df8:	004136        	entry	a1, 32
40081dfb:	006350        	rsil	a5, 3
40081dfe:	0d0282        	l8ui	a8, a2, 13
40081e01:	743030        	extui	a3, a3, 0, 8
40081e04:	444080        	extui	a4, a8, 0, 5
40081e07:	24fc      	bnez.n	a4, 40081e3d <z_set_prio+0x45>
40081e09:	6248      	l32i.n	a4, a2, 24
40081e0b:	e4ec      	bnez.n	a4, 40081e3d <z_set_prio+0x45>
40081e0d:	648080        	extui	a8, a8, 0, 7
40081e10:	0d4282        	s8i	a8, a2, 13
40081e13:	02ad      	mov.n	a10, a2
40081e15:	0098a5        	call8	400827a0 <sys_dlist_remove>
40081e18:	0d0282        	l8ui	a8, a2, 13
40081e1b:	80af92        	movi	a9, -128
40081e1e:	208890        	or	a8, a8, a9
40081e21:	f97991        	l32r	a9, 40080408 <_init_end+0x8> (3ffb20b0 <_kernel>)
40081e24:	0e4232        	s8i	a3, a2, 14
40081e27:	0d4282        	s8i	a8, a2, 13
40081e2a:	6988      	l32i.n	a8, a9, 24
40081e2c:	f9cbb1        	l32r	a11, 40080558 <_init_end+0x158> (3ffb20c8 <_kernel+0x18>)
40081e2f:	233300        	sext	a3, a3, 7
40081e32:	c0a8b0        	sub	a10, a8, a11
40081e35:	9348a0        	movnez	a4, a8, a10
40081e38:	79a8      	l32i.n	a10, a9, 28
40081e3a:	000a06        	j	40081e66 <z_set_prio+0x6e>
40081e3d:	0e4232        	s8i	a3, a2, 14
40081e40:	020c      	movi.n	a2, 0
40081e42:	000d06        	j	40081e7a <z_set_prio+0x82>
40081e45:	0e0482        	l8ui	a8, a4, 14
40081e48:	238800        	sext	a8, a8, 7
40081e4b:	111387        	beq	a3, a8, 40081e60 <z_set_prio+0x68>
40081e4e:	0ea387        	bge	a3, a8, 40081e60 <z_set_prio+0x68>
40081e51:	1438      	l32i.n	a3, a4, 4
40081e53:	0249      	s32i.n	a4, a2, 0
40081e55:	1239      	s32i.n	a3, a2, 4
40081e57:	0329      	s32i.n	a2, a3, 0
40081e59:	1429      	s32i.n	a2, a4, 4
40081e5b:	000506        	j	40081e73 <z_set_prio+0x7b>
40081e5e:	00          	.byte 00
40081e5f:	00          	.byte 00
40081e60:	051a47        	beq	a10, a4, 40081e69 <z_set_prio+0x71>
40081e63:	002442        	l32i	a4, a4, 0
40081e66:	fdb456        	bnez	a4, 40081e45 <z_set_prio+0x4d>
40081e69:	0062b2        	s32i	a11, a2, 0
40081e6c:	0162a2        	s32i	a10, a2, 4
40081e6f:	0a29      	s32i.n	a2, a10, 0
40081e71:	7929      	s32i.n	a2, a9, 28
40081e73:	1a0c      	movi.n	a10, 1
40081e75:	ffc2a5        	call8	40081aa0 <update_cache>
40081e78:	120c      	movi.n	a2, 1
40081e7a:	13e650        	wsr.ps	a5
40081e7d:	002010        	rsync
40081e80:	f01d      	retw.n
	...

40081e84 <z_reschedule>:
40081e84:	004136        	entry	a1, 32
40081e87:	348030        	extui	a8, a3, 0, 4
40081e8a:	02ad      	mov.n	a10, a2
40081e8c:	03bd      	mov.n	a11, a3
40081e8e:	68dc      	bnez.n	a8, 40081ea8 <z_reschedule+0x24>
40081e90:	03f580        	rsr.misc1	a8
40081e93:	0888      	l32i.n	a8, a8, 0
40081e95:	f8cc      	bnez.n	a8, 40081ea8 <z_reschedule+0x24>
40081e97:	f95c81        	l32r	a8, 40080408 <_init_end+0x8> (3ffb20b0 <_kernel>)
40081e9a:	5898      	l32i.n	a9, a8, 20
40081e9c:	2888      	l32i.n	a8, a8, 8
40081e9e:	061987        	beq	a9, a8, 40081ea8 <z_reschedule+0x24>
40081ea1:	ffbc25        	call8	40081a64 <z_swap>
40081ea4:	000186        	j	40081eae <z_reschedule+0x2a>
40081ea7:	00          	.byte 00
40081ea8:	13e6b0        	wsr.ps	a11
40081eab:	002010        	rsync
40081eae:	f01d      	retw.n

40081eb0 <z_sched_start>:
40081eb0:	004136        	entry	a1, 32
40081eb3:	02ad      	mov.n	a10, a2
40081eb5:	006320        	rsil	a2, 3
40081eb8:	0d0a82        	l8ui	a8, a10, 13
40081ebb:	0be827        	bbsi	a8, 2, 40081eca <z_sched_start+0x1a>
40081ebe:	13e620        	wsr.ps	a2
40081ec1:	002010        	rsync
40081ec4:	0005c6        	j	40081edf <z_sched_start+0x2f>
40081ec7:	00          	.byte 00
40081ec8:	00          	.byte 00
40081ec9:	00          	.byte 00
40081eca:	fbaf92        	movi	a9, -5
40081ecd:	108890        	and	a8, a8, a9
40081ed0:	0d4a82        	s8i	a8, a10, 13
40081ed3:	ffc925        	call8	40081b64 <ready_thread>
40081ed6:	f99fa1        	l32r	a10, 40080554 <_init_end+0x154> (3ffb2104 <sched_spinlock>)
40081ed9:	20b220        	or	a11, a2, a2
40081edc:	fffa65        	call8	40081e84 <z_reschedule>
40081edf:	000090        	retw
	...

40081ee4 <z_reschedule_irqlock>:
40081ee4:	004136        	entry	a1, 32
40081ee7:	348020        	extui	a8, a2, 0, 4
40081eea:	20a220        	or	a10, a2, a2
40081eed:	00f856        	bnez	a8, 40081f00 <z_reschedule_irqlock+0x1c>
40081ef0:	03f580        	rsr.misc1	a8
40081ef3:	002882        	l32i	a8, a8, 0
40081ef6:	006856        	bnez	a8, 40081f00 <z_reschedule_irqlock+0x1c>
40081ef9:	ffb325        	call8	40081a2c <z_swap_irqlock>
40081efc:	000186        	j	40081f06 <z_reschedule_irqlock+0x22>
40081eff:	00          	.byte 00
40081f00:	13e6a0        	wsr.ps	a10
40081f03:	002010        	rsync
40081f06:	f01d      	retw.n

40081f08 <z_reschedule_unlocked>:
40081f08:	004136        	entry	a1, 32
40081f0b:	0063a0        	rsil	a10, 3
40081f0e:	fffd65        	call8	40081ee4 <z_reschedule_irqlock>
40081f11:	f01d      	retw.n
	...

40081f14 <z_impl_k_thread_suspend>:
40081f14:	004136        	entry	a1, 32
40081f17:	18c2a2        	addi	a10, a2, 24
40081f1a:	004665        	call8	40082380 <z_abort_timeout>
40081f1d:	006330        	rsil	a3, 3
40081f20:	0d0282        	l8ui	a8, a2, 13
40081f23:	234800        	sext	a4, a8, 7
40081f26:	00a4d6        	bgez	a4, 40081f34 <z_impl_k_thread_suspend+0x20>
40081f29:	648080        	extui	a8, a8, 0, 7
40081f2c:	0d4282        	s8i	a8, a2, 13
40081f2f:	02ad      	mov.n	a10, a2
40081f31:	0086e5        	call8	400827a0 <sys_dlist_remove>
40081f34:	0d0282        	l8ui	a8, a2, 13
40081f37:	041c      	movi.n	a4, 16
40081f39:	208840        	or	a8, a8, a4
40081f3c:	f93341        	l32r	a4, 40080408 <_init_end+0x8> (3ffb20b0 <_kernel>)
40081f3f:	0d4282        	s8i	a8, a2, 13
40081f42:	022482        	l32i	a8, a4, 8
40081f45:	090c      	movi.n	a9, 0
40081f47:	c08820        	sub	a8, a8, a2
40081f4a:	01a0a2        	movi	a10, 1
40081f4d:	93a980        	movnez	a10, a9, a8
40081f50:	ffb4e5        	call8	40081aa0 <update_cache>
40081f53:	13e630        	wsr.ps	a3
40081f56:	002010        	rsync
40081f59:	2438      	l32i.n	a3, a4, 8
40081f5b:	029327        	bne	a3, a2, 40081f61 <z_impl_k_thread_suspend+0x4d>
40081f5e:	fffaa5        	call8	40081f08 <z_reschedule_unlocked>
40081f61:	f01d      	retw.n
	...

40081f64 <k_sched_lock>:
40081f64:	004136        	entry	a1, 32
40081f67:	0063a0        	rsil	a10, 3
40081f6a:	f92781        	l32r	a8, 40080408 <_init_end+0x8> (3ffb20b0 <_kernel>)
40081f6d:	2898      	l32i.n	a9, a8, 8
40081f6f:	0f0982        	l8ui	a8, a9, 15
40081f72:	880b      	addi.n	a8, a8, -1
40081f74:	0f4982        	s8i	a8, a9, 15
40081f77:	13e6a0        	wsr.ps	a10
40081f7a:	002010        	rsync
40081f7d:	f01d      	retw.n
	...

40081f80 <k_sched_unlock>:
40081f80:	004136        	entry	a1, 32
40081f83:	006320        	rsil	a2, 3
40081f86:	f92081        	l32r	a8, 40080408 <_init_end+0x8> (3ffb20b0 <_kernel>)
40081f89:	00a0a2        	movi	a10, 0
40081f8c:	022892        	l32i	a9, a8, 8
40081f8f:	0f0982        	l8ui	a8, a9, 15
40081f92:	01c882        	addi	a8, a8, 1
40081f95:	0f4982        	s8i	a8, a9, 15
40081f98:	ffb065        	call8	40081aa0 <update_cache>
40081f9b:	13e620        	wsr.ps	a2
40081f9e:	002010        	rsync
40081fa1:	fff665        	call8	40081f08 <z_reschedule_unlocked>
40081fa4:	f01d      	retw.n
	...

40081fa8 <z_swap_next_thread>:
40081fa8:	004136        	entry	a1, 32
40081fab:	f91781        	l32r	a8, 40080408 <_init_end+0x8> (3ffb20b0 <_kernel>)
40081fae:	5828      	l32i.n	a2, a8, 20
40081fb0:	f01d      	retw.n
	...

40081fb4 <z_get_next_switch_handle>:
40081fb4:	004136        	entry	a1, 32
40081fb7:	f91481        	l32r	a8, 40080408 <_init_end+0x8> (3ffb20b0 <_kernel>)
40081fba:	28a8      	l32i.n	a10, a8, 8
40081fbc:	5898      	l32i.n	a9, a8, 20
40081fbe:	126a22        	s32i	a2, a10, 72
40081fc1:	122922        	l32i	a2, a9, 72
40081fc4:	2899      	s32i.n	a9, a8, 8
40081fc6:	f01d      	retw.n

40081fc8 <z_unpend_all>:
40081fc8:	004136        	entry	a1, 32
40081fcb:	080c      	movi.n	a8, 0
40081fcd:	140c      	movi.n	a4, 1
40081fcf:	000346        	j	40081fe0 <z_unpend_all+0x18>
40081fd2:	20a330        	or	a10, a3, a3
40081fd5:	ffe025        	call8	40081dd8 <z_unpend_thread>
40081fd8:	20a330        	or	a10, a3, a3
40081fdb:	ffd165        	call8	40081cf0 <z_ready_thread>
40081fde:	048d      	mov.n	a8, a4
40081fe0:	0238      	l32i.n	a3, a2, 0
40081fe2:	002316        	beqz	a3, 40081fe8 <z_unpend_all+0x20>
40081fe5:	e99237        	bne	a2, a3, 40081fd2 <z_unpend_all+0xa>
40081fe8:	082d      	mov.n	a2, a8
40081fea:	f01d      	retw.n

40081fec <z_sched_init>:
40081fec:	004136        	entry	a1, 32
40081fef:	f90681        	l32r	a8, 40080408 <_init_end+0x8> (3ffb20b0 <_kernel>)
40081ff2:	f95991        	l32r	a9, 40080558 <_init_end+0x158> (3ffb20c8 <_kernel+0x18>)
40081ff5:	0b0c      	movi.n	a11, 0
40081ff7:	0bad      	mov.n	a10, a11
40081ff9:	6899      	s32i.n	a9, a8, 24
40081ffb:	7899      	s32i.n	a9, a8, 28
40081ffd:	ffc825        	call8	40081c80 <k_sched_time_slice_set>
40082000:	f01d      	retw.n
	...

40082004 <z_impl_k_yield>:
40082004:	004136        	entry	a1, 32
40082007:	006330        	rsil	a3, 3
4008200a:	f8ff21        	l32r	a2, 40080408 <_init_end+0x8> (3ffb20b0 <_kernel>)
4008200d:	0222a2        	l32i	a10, a2, 8
40082010:	0d0a82        	l8ui	a8, a10, 13
40082013:	648080        	extui	a8, a8, 0, 7
40082016:	0d4a82        	s8i	a8, a10, 13
40082019:	007865        	call8	400827a0 <sys_dlist_remove>
4008201c:	022282        	l32i	a8, a2, 8
4008201f:	80afa2        	movi	a10, -128
40082022:	0d0892        	l8ui	a9, a8, 13
40082025:	f94cd1        	l32r	a13, 40080558 <_init_end+0x158> (3ffb20c8 <_kernel+0x18>)
40082028:	2099a0        	or	a9, a9, a10
4008202b:	0d4892        	s8i	a9, a8, 13
4008202e:	062292        	l32i	a9, a2, 24
40082031:	0199d7        	bne	a9, a13, 40082036 <z_impl_k_yield+0x32>
40082034:	090c      	movi.n	a9, 0
40082036:	72c8      	l32i.n	a12, a2, 28
40082038:	000986        	j	40082062 <z_impl_k_yield+0x5e>
4008203b:	00          	.byte 00
4008203c:	0e08b2        	l8ui	a11, a8, 14
4008203f:	0e09a2        	l8ui	a10, a9, 14
40082042:	23bb00        	sext	a11, a11, 7
40082045:	23aa00        	sext	a10, a10, 7
40082048:	101ba7        	beq	a11, a10, 4008205c <z_impl_k_yield+0x58>
4008204b:	0daba7        	bge	a11, a10, 4008205c <z_impl_k_yield+0x58>
4008204e:	1928      	l32i.n	a2, a9, 4
40082050:	0899      	s32i.n	a9, a8, 0
40082052:	1829      	s32i.n	a2, a8, 4
40082054:	0289      	s32i.n	a8, a2, 0
40082056:	1989      	s32i.n	a8, a9, 4
40082058:	000486        	j	4008206e <z_impl_k_yield+0x6a>
4008205b:	00          	.byte 00
4008205c:	0519c7        	beq	a9, a12, 40082065 <z_impl_k_yield+0x61>
4008205f:	002992        	l32i	a9, a9, 0
40082062:	fd6956        	bnez	a9, 4008203c <z_impl_k_yield+0x38>
40082065:	0068d2        	s32i	a13, a8, 0
40082068:	18c9      	s32i.n	a12, a8, 4
4008206a:	0c89      	s32i.n	a8, a12, 0
4008206c:	7289      	s32i.n	a8, a2, 28
4008206e:	01a0a2        	movi	a10, 1
40082071:	ffa2e5        	call8	40081aa0 <update_cache>
40082074:	f938a1        	l32r	a10, 40080554 <_init_end+0x154> (3ffb2104 <sched_spinlock>)
40082077:	03bd      	mov.n	a11, a3
40082079:	ff9ea5        	call8	40081a64 <z_swap>
4008207c:	f01d      	retw.n
	...

40082080 <z_tick_sleep>:
40082080:	004136        	entry	a1, 32
40082083:	204230        	or	a4, a2, a3
40082086:	74cc      	bnez.n	a4, 40082091 <z_tick_sleep+0x11>
40082088:	fff7a5        	call8	40082004 <z_impl_k_yield>
4008208b:	0015c6        	j	400820e6 <z_tick_sleep+0x66>
4008208e:	00          	.byte 00
4008208f:	00          	.byte 00
40082090:	00          	.byte 00
40082091:	1003a6        	blti	a3, -1, 400820a5 <z_tick_sleep+0x25>
40082094:	040366        	bnei	a3, -1, 4008209c <z_tick_sleep+0x1c>
40082097:	e47c      	movi.n	a4, -2
40082099:	083247        	bltu	a2, a4, 400820a5 <z_tick_sleep+0x25>
4008209c:	004025        	call8	400824a0 <sys_clock_tick_get_32>
4008209f:	42aa      	add.n	a4, a2, a10
400820a1:	000146        	j	400820aa <z_tick_sleep+0x2a>
400820a4:	00          	.byte 00
400820a5:	e47c      	movi.n	a4, -2
400820a7:	c04420        	sub	a4, a4, a2
400820aa:	006350        	rsil	a5, 3
400820ad:	f8d661        	l32r	a6, 40080408 <_init_end+0x8> (3ffb20b0 <_kernel>)
400820b0:	26a8      	l32i.n	a10, a6, 8
400820b2:	ffb225        	call8	40081bd4 <unready_thread>
400820b5:	26a8      	l32i.n	a10, a6, 8
400820b7:	f91db1        	l32r	a11, 4008052c <_init_end+0x12c> (40081d58 <z_thread_timeout>)
400820ba:	02cd      	mov.n	a12, a2
400820bc:	03dd      	mov.n	a13, a3
400820be:	18caa2        	addi	a10, a10, 24
400820c1:	001ba5        	call8	4008227c <z_add_timeout>
400820c4:	2638      	l32i.n	a3, a6, 8
400820c6:	10a062        	movi	a6, 16
400820c9:	0d0322        	l8ui	a2, a3, 13
400820cc:	f922a1        	l32r	a10, 40080554 <_init_end+0x154> (3ffb2104 <sched_spinlock>)
400820cf:	202260        	or	a2, a2, a6
400820d2:	0d4322        	s8i	a2, a3, 13
400820d5:	20b550        	or	a11, a5, a5
400820d8:	ff98a5        	call8	40081a64 <z_swap>
400820db:	003c65        	call8	400824a0 <sys_clock_tick_get_32>
400820de:	c024a0        	sub	a2, a4, a10
400820e1:	013427        	bltu	a4, a2, 400820e6 <z_tick_sleep+0x66>
400820e4:	02cc      	bnez.n	a2, 400820e8 <z_tick_sleep+0x68>
400820e6:	020c      	movi.n	a2, 0
400820e8:	f01d      	retw.n
	...

400820ec <z_impl_k_sleep>:
400820ec:	004136        	entry	a1, 32
400820ef:	20a220        	or	a10, a2, a2
400820f2:	120266        	bnei	a2, -1, 40082108 <z_impl_k_sleep+0x1c>
400820f5:	0f0366        	bnei	a3, -1, 40082108 <z_impl_k_sleep+0x1c>
400820f8:	f8c481        	l32r	a8, 40080408 <_init_end+0x8> (3ffb20b0 <_kernel>)
400820fb:	0228a2        	l32i	a10, a8, 8
400820fe:	ffe165        	call8	40081f14 <z_impl_k_thread_suspend>
40082101:	20a330        	or	a10, a3, a3
40082104:	000546        	j	4008211d <z_impl_k_sleep+0x31>
40082107:	00          	.byte 00
40082108:	20b330        	or	a11, a3, a3
4008210b:	fff765        	call8	40082080 <z_tick_sleep>
4008210e:	0aa0c2        	movi	a12, 10
40082111:	00a0d2        	movi	a13, 0
40082114:	31bfa0        	srai	a11, a10, 31
40082117:	f91181        	l32r	a8, 4008055c <_init_end+0x15c> (4000cff8 <__udivdi3>)
4008211a:	0008e0        	callx8	a8
4008211d:	0a2d      	mov.n	a2, a10
4008211f:	f01d      	retw.n
40082121:	000000        	ill

40082124 <z_impl_z_current_get>:
40082124:	004136        	entry	a1, 32
40082127:	f8b881        	l32r	a8, 40080408 <_init_end+0x8> (3ffb20b0 <_kernel>)
4008212a:	2828      	l32i.n	a2, a8, 8
4008212c:	f01d      	retw.n
	...

40082130 <z_thread_abort>:
40082130:	004136        	entry	a1, 32
40082133:	006340        	rsil	a4, 3
40082136:	0c0232        	l8ui	a3, a2, 12
40082139:	106307        	bbci	a3, 0, 4008214d <z_thread_abort+0x1d>
4008213c:	13e640        	wsr.ps	a4
4008213f:	002010        	rsync
40082142:	4a0c      	movi.n	a10, 4
40082144:	fe8a65        	call8	400809ec <xtensa_arch_except>
40082147:	0021c6        	j	400821d2 <z_thread_abort+0xa2>
4008214a:	00          	.byte 00
4008214b:	00          	.byte 00
4008214c:	00          	.byte 00
4008214d:	0d0282        	l8ui	a8, a2, 13
40082150:	890c      	movi.n	a9, 8
40082152:	020897        	bnone	a8, a9, 40082158 <z_thread_abort+0x28>
40082155:	001cc6        	j	400821cc <z_thread_abort+0x9c>
40082158:	dfaf32        	movi	a3, -33
4008215b:	103830        	and	a3, a8, a3
4008215e:	203390        	or	a3, a3, a9
40082161:	74a030        	extui	a10, a3, 0, 8
40082164:	05e377        	bbsi	a3, 7, 4008216d <z_thread_abort+0x3d>
40082167:	0d42a2        	s8i	a10, a2, 13
4008216a:	000406        	j	4008217e <z_thread_abort+0x4e>
4008216d:	5fa032        	movi	a3, 95
40082170:	108830        	and	a8, a8, a3
40082173:	208890        	or	a8, a8, a9
40082176:	0d4282        	s8i	a8, a2, 13
40082179:	02ad      	mov.n	a10, a2
4008217b:	006265        	call8	400827a0 <sys_dlist_remove>
4008217e:	2238      	l32i.n	a3, a2, 8
40082180:	338c      	beqz.n	a3, 40082187 <z_thread_abort+0x57>
40082182:	02ad      	mov.n	a10, a2
40082184:	ff84a5        	call8	400819d0 <unpend_thread_no_timeout>
40082187:	18c2a2        	addi	a10, a2, 24
4008218a:	001f65        	call8	40082380 <z_abort_timeout>
4008218d:	000506        	j	400821a5 <z_thread_abort+0x75>
40082190:	03ad      	mov.n	a10, a3
40082192:	ff83e5        	call8	400819d0 <unpend_thread_no_timeout>
40082195:	18c3a2        	addi	a10, a3, 24
40082198:	001e65        	call8	40082380 <z_abort_timeout>
4008219b:	080c      	movi.n	a8, 0
4008219d:	116382        	s32i	a8, a3, 68
400821a0:	03ad      	mov.n	a10, a3
400821a2:	ff9c25        	call8	40081b64 <ready_thread>
400821a5:	e238      	l32i.n	a3, a2, 56
400821a7:	438c      	beqz.n	a3, 400821af <z_thread_abort+0x7f>
400821a9:	38c282        	addi	a8, a2, 56
400821ac:	e09387        	bne	a3, a8, 40082190 <z_thread_abort+0x60>
400821af:	1a0c      	movi.n	a10, 1
400821b1:	ff8ee5        	call8	40081aa0 <update_cache>
400821b4:	f89531        	l32r	a3, 40080408 <_init_end+0x8> (3ffb20b0 <_kernel>)
400821b7:	2338      	l32i.n	a3, a3, 8
400821b9:	0f9327        	bne	a3, a2, 400821cc <z_thread_abort+0x9c>
400821bc:	03f520        	rsr.misc1	a2
400821bf:	0228      	l32i.n	a2, a2, 0
400821c1:	007256        	bnez	a2, 400821cc <z_thread_abort+0x9c>
400821c4:	f8e4a1        	l32r	a10, 40080554 <_init_end+0x154> (3ffb2104 <sched_spinlock>)
400821c7:	04bd      	mov.n	a11, a4
400821c9:	ff89a5        	call8	40081a64 <z_swap>
400821cc:	13e640        	wsr.ps	a4
400821cf:	002010        	rsync
400821d2:	f01d      	retw.n

400821d4 <z_impl_k_thread_abort>:
400821d4:	004136        	entry	a1, 32
400821d7:	02ad      	mov.n	a10, a2
400821d9:	fff565        	call8	40082130 <z_thread_abort>
400821dc:	f01d      	retw.n
	...

400821e0 <elapsed>:
400821e0:	004136        	entry	a1, 32
400821e3:	f8df81        	l32r	a8, 40080560 <_init_end+0x160> (3ffb20d8 <announce_remaining>)
400821e6:	0a0c      	movi.n	a10, 0
400821e8:	0888      	l32i.n	a8, a8, 0
400821ea:	0298a7        	bne	a8, a10, 400821f0 <elapsed+0x10>
400821ed:	007c65        	call8	400829b4 <sys_clock_elapsed>
400821f0:	0a2d      	mov.n	a2, a10
400821f2:	f01d      	retw.n

400821f4 <next_timeout>:
400821f4:	004136        	entry	a1, 32
400821f7:	f8db81        	l32r	a8, 40080564 <_init_end+0x164> (3ffb0030 <timeout_list>)
400821fa:	0828      	l32i.n	a2, a8, 0
400821fc:	089287        	bne	a2, a8, 40082208 <next_timeout+0x14>
400821ff:	fffe25        	call8	400821e0 <elapsed>
40082202:	000b06        	j	40082232 <next_timeout+0x3e>
40082205:	00          	.byte 00
40082206:	00          	.byte 00
40082207:	00          	.byte 00
40082208:	fffd65        	call8	400821e0 <elapsed>
4008220b:	023216        	beqz	a2, 40082232 <next_timeout+0x3e>
4008220e:	042292        	l32i	a9, a2, 16
40082211:	31bfa0        	srai	a11, a10, 31
40082214:	c0a9a0        	sub	a10, a9, a10
40082217:	052282        	l32i	a8, a2, 20
4008221a:	120c      	movi.n	a2, 1
4008221c:	0139a7        	bltu	a9, a10, 40082221 <next_timeout+0x2d>
4008221f:	020c      	movi.n	a2, 0
40082221:	c088b0        	sub	a8, a8, a11
40082224:	c08820        	sub	a8, a8, a2
40082227:	0718e6        	bgei	a8, 1, 40082232 <next_timeout+0x3e>
4008222a:	a8cc      	bnez.n	a8, 40082238 <next_timeout+0x44>
4008222c:	f87b21        	l32r	a2, 40080418 <_init_end+0x18> (7fffffff <_rtc_bss_end+0x2fffffff>)
4008222f:	05b2a7        	bgeu	a2, a10, 40082238 <next_timeout+0x44>
40082232:	f87921        	l32r	a2, 40080418 <_init_end+0x18> (7fffffff <_rtc_bss_end+0x2fffffff>)
40082235:	000106        	j	4008223d <next_timeout+0x49>
40082238:	020c      	movi.n	a2, 0
4008223a:	b32a80        	movgez	a2, a10, a8
4008223d:	f01d      	retw.n
	...

40082240 <remove_timeout>:
40082240:	004136        	entry	a1, 32
40082243:	32ac      	beqz.n	a2, 4008226a <remove_timeout+0x2a>
40082245:	f8c781        	l32r	a8, 40080564 <_init_end+0x164> (3ffb0030 <timeout_list>)
40082248:	1888      	l32i.n	a8, a8, 4
4008224a:	1c1287        	beq	a2, a8, 4008226a <remove_timeout+0x2a>
4008224d:	0288      	l32i.n	a8, a2, 0
4008224f:	789c      	beqz.n	a8, 4008226a <remove_timeout+0x2a>
40082251:	48c8      	l32i.n	a12, a8, 16
40082253:	42a8      	l32i.n	a10, a2, 16
40082255:	58b8      	l32i.n	a11, a8, 20
40082257:	acaa      	add.n	a10, a12, a10
40082259:	52d8      	l32i.n	a13, a2, 20
4008225b:	190c      	movi.n	a9, 1
4008225d:	013ac7        	bltu	a10, a12, 40082262 <remove_timeout+0x22>
40082260:	090c      	movi.n	a9, 0
40082262:	bbda      	add.n	a11, a11, a13
40082264:	99ba      	add.n	a9, a9, a11
40082266:	48a9      	s32i.n	a10, a8, 16
40082268:	5899      	s32i.n	a9, a8, 20
4008226a:	0288      	l32i.n	a8, a2, 0
4008226c:	1298      	l32i.n	a9, a2, 4
4008226e:	0989      	s32i.n	a8, a9, 0
40082270:	1899      	s32i.n	a9, a8, 4
40082272:	080c      	movi.n	a8, 0
40082274:	0289      	s32i.n	a8, a2, 0
40082276:	1289      	s32i.n	a8, a2, 4
40082278:	f01d      	retw.n
	...

4008227c <z_add_timeout>:
4008227c:	004136        	entry	a1, 32
4008227f:	046d      	mov.n	a6, a4
40082281:	059d      	mov.n	a9, a5
40082283:	050466        	bnei	a4, -1, 4008228c <z_add_timeout+0x10>
40082286:	020566        	bnei	a5, -1, 4008228c <z_add_timeout+0x10>
40082289:	003c46        	j	4008237e <z_add_timeout+0x102>
4008228c:	2239      	s32i.n	a3, a2, 8
4008228e:	006330        	rsil	a3, 3
40082291:	03f9d6        	bgez	a9, 400822d4 <z_add_timeout+0x58>
40082294:	e87c      	movi.n	a8, -2
40082296:	020966        	bnei	a9, -1, 4008229c <z_add_timeout+0x20>
40082299:	373867        	bltu	a8, a6, 400822d4 <z_add_timeout+0x58>
4008229c:	f8b361        	l32r	a6, 40080568 <_init_end+0x168> (3ffb1da0 <curr_tick>)
4008229f:	0698      	l32i.n	a9, a6, 0
400822a1:	16a8      	l32i.n	a10, a6, 4
400822a3:	c09890        	sub	a9, a8, a9
400822a6:	160c      	movi.n	a6, 1
400822a8:	023897        	bltu	a8, a9, 400822ae <z_add_timeout+0x32>
400822ab:	00a062        	movi	a6, 0
400822ae:	f87c      	movi.n	a8, -1
400822b0:	c088a0        	sub	a8, a8, a10
400822b3:	c0a940        	sub	a10, a9, a4
400822b6:	c08860        	sub	a8, a8, a6
400822b9:	140c      	movi.n	a4, 1
400822bb:	0139a7        	bltu	a9, a10, 400822c0 <z_add_timeout+0x44>
400822be:	040c      	movi.n	a4, 0
400822c0:	c05850        	sub	a5, a8, a5
400822c3:	c05540        	sub	a5, a5, a4
400822c6:	2815e6        	bgei	a5, 1, 400822f2 <z_add_timeout+0x76>
400822c9:	05cc      	bnez.n	a5, 400822cd <z_add_timeout+0x51>
400822cb:	3aec      	bnez.n	a10, 400822f2 <z_add_timeout+0x76>
400822cd:	1a0c      	movi.n	a10, 1
400822cf:	050c      	movi.n	a5, 0
400822d1:	000746        	j	400822f2 <z_add_timeout+0x76>
400822d4:	fff0a5        	call8	400821e0 <elapsed>
400822d7:	441b      	addi.n	a4, a4, 1
400822d9:	180c      	movi.n	a8, 1
400822db:	013467        	bltu	a4, a6, 400822e0 <z_add_timeout+0x64>
400822de:	080c      	movi.n	a8, 0
400822e0:	316fa0        	srai	a6, a10, 31
400822e3:	a4aa      	add.n	a10, a4, a10
400822e5:	885a      	add.n	a8, a8, a5
400822e7:	150c      	movi.n	a5, 1
400822e9:	013a47        	bltu	a10, a4, 400822ee <z_add_timeout+0x72>
400822ec:	050c      	movi.n	a5, 0
400822ee:	886a      	add.n	a8, a8, a6
400822f0:	558a      	add.n	a5, a5, a8
400822f2:	f89c41        	l32r	a4, 40080564 <_init_end+0x164> (3ffb0030 <timeout_list>)
400822f5:	5259      	s32i.n	a5, a2, 20
400822f7:	0458      	l32i.n	a5, a4, 0
400822f9:	42a9      	s32i.n	a10, a2, 16
400822fb:	019547        	bne	a5, a4, 40082300 <z_add_timeout+0x84>
400822fe:	050c      	movi.n	a5, 0
40082300:	14c8      	l32i.n	a12, a4, 4
40082302:	160c      	movi.n	a6, 1
40082304:	0d0c      	movi.n	a13, 0
40082306:	0014c6        	j	4008235d <z_add_timeout+0xe1>
40082309:	5598      	l32i.n	a9, a5, 20
4008230b:	5288      	l32i.n	a8, a2, 20
4008230d:	0425a2        	l32i	a10, a5, 16
40082310:	0422b2        	l32i	a11, a2, 16
40082313:	052897        	blt	a8, a9, 4008231c <z_add_timeout+0xa0>
40082316:	269987        	bne	a9, a8, 40082340 <z_add_timeout+0xc4>
40082319:	23bba7        	bgeu	a11, a10, 40082340 <z_add_timeout+0xc4>
4008231c:	c0bab0        	sub	a11, a10, a11
4008231f:	01a062        	movi	a6, 1
40082322:	023ab7        	bltu	a10, a11, 40082328 <z_add_timeout+0xac>
40082325:	00a062        	movi	a6, 0
40082328:	c09980        	sub	a9, a9, a8
4008232b:	c09960        	sub	a9, a9, a6
4008232e:	1568      	l32i.n	a6, a5, 4
40082330:	45b9      	s32i.n	a11, a5, 16
40082332:	5599      	s32i.n	a9, a5, 20
40082334:	1269      	s32i.n	a6, a2, 4
40082336:	0259      	s32i.n	a5, a2, 0
40082338:	0629      	s32i.n	a2, a6, 0
4008233a:	1529      	s32i.n	a2, a5, 4
4008233c:	000a06        	j	40082368 <z_add_timeout+0xec>
4008233f:	00          	.byte 00
40082340:	c0aba0        	sub	a10, a11, a10
40082343:	20e660        	or	a14, a6, a6
40082346:	023ba7        	bltu	a11, a10, 4008234c <z_add_timeout+0xd0>
40082349:	20edd0        	or	a14, a13, a13
4008234c:	c08890        	sub	a8, a8, a9
4008234f:	c088e0        	sub	a8, a8, a14
40082352:	0462a2        	s32i	a10, a2, 16
40082355:	056282        	s32i	a8, a2, 20
40082358:	0415c7        	beq	a5, a12, 40082360 <z_add_timeout+0xe4>
4008235b:	0558      	l32i.n	a5, a5, 0
4008235d:	fa8556        	bnez	a5, 40082309 <z_add_timeout+0x8d>
40082360:	0249      	s32i.n	a4, a2, 0
40082362:	12c9      	s32i.n	a12, a2, 4
40082364:	0c29      	s32i.n	a2, a12, 0
40082366:	1429      	s32i.n	a2, a4, 4
40082368:	0458      	l32i.n	a5, a4, 0
4008236a:	0a9257        	bne	a2, a5, 40082378 <z_add_timeout+0xfc>
4008236d:	071547        	beq	a5, a4, 40082378 <z_add_timeout+0xfc>
40082370:	ffe825        	call8	400821f4 <next_timeout>
40082373:	0b0c      	movi.n	a11, 0
40082375:	005da5        	call8	40082950 <sys_clock_set_timeout>
40082378:	13e630        	wsr.ps	a3
4008237b:	002010        	rsync
4008237e:	f01d      	retw.n

40082380 <z_abort_timeout>:
40082380:	004136        	entry	a1, 32
40082383:	02ad      	mov.n	a10, a2
40082385:	006320        	rsil	a2, 3
40082388:	0a98      	l32i.n	a9, a10, 0
4008238a:	a86c      	movi.n	a8, -22
4008238c:	004916        	beqz	a9, 40082394 <z_abort_timeout+0x14>
4008238f:	ffeb25        	call8	40082240 <remove_timeout>
40082392:	080c      	movi.n	a8, 0
40082394:	13e620        	wsr.ps	a2
40082397:	002010        	rsync
4008239a:	082d      	mov.n	a2, a8
4008239c:	f01d      	retw.n
	...

400823a0 <sys_clock_announce>:
400823a0:	006136        	entry	a1, 48
400823a3:	0063b0        	rsil	a11, 3
400823a6:	f86ec1        	l32r	a12, 40080560 <_init_end+0x160> (3ffb20d8 <announce_remaining>)
400823a9:	f86ee1        	l32r	a14, 40080564 <_init_end+0x164> (3ffb0030 <timeout_list>)
400823ac:	0c29      	s32i.n	a2, a12, 0
400823ae:	0e28      	l32i.n	a2, a14, 0
400823b0:	0192e7        	bne	a2, a14, 400823b5 <sys_clock_announce+0x15>
400823b3:	020c      	movi.n	a2, 0
400823b5:	040c      	movi.n	a4, 0
400823b7:	045d      	mov.n	a5, a4
400823b9:	001406        	j	4008240d <sys_clock_announce+0x6d>
400823bc:	969a      	add.n	a9, a6, a9
400823be:	318f60        	srai	a8, a6, 31
400823c1:	170c      	movi.n	a7, 1
400823c3:	013967        	bltu	a9, a6, 400823c8 <sys_clock_announce+0x28>
400823c6:	070c      	movi.n	a7, 0
400823c8:	8088d0        	add	a8, a8, a13
400823cb:	807780        	add	a7, a7, a8
400823ce:	006392        	s32i	a9, a3, 0
400823d1:	1379      	s32i.n	a7, a3, 4
400823d3:	4249      	s32i.n	a4, a2, 16
400823d5:	5259      	s32i.n	a5, a2, 20
400823d7:	01b9      	s32i.n	a11, a1, 0
400823d9:	02ad      	mov.n	a10, a2
400823db:	11c9      	s32i.n	a12, a1, 4
400823dd:	21e9      	s32i.n	a14, a1, 8
400823df:	ffe625        	call8	40082240 <remove_timeout>
400823e2:	01b8      	l32i.n	a11, a1, 0
400823e4:	13e6b0        	wsr.ps	a11
400823e7:	002010        	rsync
400823ea:	2278      	l32i.n	a7, a2, 8
400823ec:	02ad      	mov.n	a10, a2
400823ee:	0007e0        	callx8	a7
400823f1:	006370        	rsil	a7, 3
400823f4:	11c8      	l32i.n	a12, a1, 4
400823f6:	07bd      	mov.n	a11, a7
400823f8:	0c88      	l32i.n	a8, a12, 0
400823fa:	c08860        	sub	a8, a8, a6
400823fd:	0c89      	s32i.n	a8, a12, 0
400823ff:	21e8      	l32i.n	a14, a1, 8
40082401:	0e28      	l32i.n	a2, a14, 0
40082403:	0692e7        	bne	a2, a14, 4008240d <sys_clock_announce+0x6d>
40082406:	0398      	l32i.n	a9, a3, 0
40082408:	13d8      	l32i.n	a13, a3, 4
4008240a:	000806        	j	4008242e <sys_clock_announce+0x8e>
4008240d:	f85631        	l32r	a3, 40080568 <_init_end+0x168> (3ffb1da0 <curr_tick>)
40082410:	0c88      	l32i.n	a8, a12, 0
40082412:	0398      	l32i.n	a9, a3, 0
40082414:	13d8      	l32i.n	a13, a3, 4
40082416:	0b7d      	mov.n	a7, a11
40082418:	229c      	beqz.n	a2, 4008242e <sys_clock_announce+0x8e>
4008241a:	52a8      	l32i.n	a10, a2, 20
4008241c:	31ff80        	srai	a15, a8, 31
4008241f:	4268      	l32i.n	a6, a2, 16
40082421:	372fa7        	blt	a15, a10, 4008245c <sys_clock_announce+0xbc>
40082424:	949af7        	bne	a10, a15, 400823bc <sys_clock_announce+0x1c>
40082427:	91b867        	bgeu	a8, a6, 400823bc <sys_clock_announce+0x1c>
4008242a:	000b86        	j	4008245c <sys_clock_announce+0xbc>
4008242d:	00          	.byte 00
4008242e:	989a      	add.n	a9, a8, a9
40082430:	314f80        	srai	a4, a8, 31
40082433:	120c      	movi.n	a2, 1
40082435:	013987        	bltu	a9, a8, 4008243a <sys_clock_announce+0x9a>
40082438:	020c      	movi.n	a2, 0
4008243a:	8044d0        	add	a4, a4, a13
4008243d:	224a      	add.n	a2, a2, a4
4008243f:	1329      	s32i.n	a2, a3, 4
40082441:	020c      	movi.n	a2, 0
40082443:	0399      	s32i.n	a9, a3, 0
40082445:	0c29      	s32i.n	a2, a12, 0
40082447:	ffdae5        	call8	400821f4 <next_timeout>
4008244a:	02bd      	mov.n	a11, a2
4008244c:	005025        	call8	40082950 <sys_clock_set_timeout>
4008244f:	13e670        	wsr.ps	a7
40082452:	002010        	rsync
40082455:	ff85e5        	call8	40081cb4 <z_time_slice>
40082458:	f01d      	retw.n
4008245a:	00          	.byte 00
4008245b:	00          	.byte 00
4008245c:	c04680        	sub	a4, a6, a8
4008245f:	01a052        	movi	a5, 1
40082462:	023647        	bltu	a6, a4, 40082468 <sys_clock_announce+0xc8>
40082465:	00a052        	movi	a5, 0
40082468:	c0aaf0        	sub	a10, a10, a15
4008246b:	c0aa50        	sub	a10, a10, a5
4008246e:	4249      	s32i.n	a4, a2, 16
40082470:	52a9      	s32i.n	a10, a2, 20
40082472:	ffee06        	j	4008242e <sys_clock_announce+0x8e>
40082475:	000000        	ill

40082478 <sys_clock_tick_get>:
40082478:	004136        	entry	a1, 32
4008247b:	006340        	rsil	a4, 3
4008247e:	ffd625        	call8	400821e0 <elapsed>
40082481:	f83931        	l32r	a3, 40080568 <_init_end+0x168> (3ffb1da0 <curr_tick>)
40082484:	318fa0        	srai	a8, a10, 31
40082487:	0328      	l32i.n	a2, a3, 0
40082489:	1398      	l32i.n	a9, a3, 4
4008248b:	2a2a      	add.n	a2, a10, a2
4008248d:	130c      	movi.n	a3, 1
4008248f:	0132a7        	bltu	a2, a10, 40082494 <sys_clock_tick_get+0x1c>
40082492:	030c      	movi.n	a3, 0
40082494:	889a      	add.n	a8, a8, a9
40082496:	338a      	add.n	a3, a3, a8
40082498:	13e640        	wsr.ps	a4
4008249b:	002010        	rsync
4008249e:	f01d      	retw.n

400824a0 <sys_clock_tick_get_32>:
400824a0:	004136        	entry	a1, 32
400824a3:	fffd65        	call8	40082478 <sys_clock_tick_get>
400824a6:	0a2d      	mov.n	a2, a10
400824a8:	f01d      	retw.n
	...

400824ac <z_impl_k_uptime_ticks>:
400824ac:	004136        	entry	a1, 32
400824af:	fffca5        	call8	40082478 <sys_clock_tick_get>
400824b2:	202aa0        	or	a2, a10, a10
400824b5:	203bb0        	or	a3, a11, a11
400824b8:	000090        	retw
	...

400824bc <z_impl_k_busy_wait>:
400824bc:	004136        	entry	a1, 32
400824bf:	22ac      	beqz.n	a2, 400824e5 <z_impl_k_busy_wait+0x29>
400824c1:	0053a5        	call8	400829fc <sys_clock_cycle_get_32>
400824c4:	0a3d      	mov.n	a3, a10
400824c6:	f829a1        	l32r	a10, 4008056c <_init_end+0x16c> (e4e1c00 <CONFIG_SYS_CLOCK_HW_CYCLES_PER_SEC>)
400824c9:	f829c1        	l32r	a12, 40080570 <_init_end+0x170> (f4240 <CONFIG_ESP_HEAP_MEM_POOL_REGION_1_SIZE+0xe8240>)
400824cc:	a2b2a0        	muluh	a11, a2, a10
400824cf:	82a2a0        	mull	a10, a2, a10
400824d2:	0d0c      	movi.n	a13, 0
400824d4:	f82281        	l32r	a8, 4008055c <_init_end+0x15c> (4000cff8 <__udivdi3>)
400824d7:	0008e0        	callx8	a8
400824da:	0a2d      	mov.n	a2, a10
400824dc:	0051e5        	call8	400829fc <sys_clock_cycle_get_32>
400824df:	c0aa30        	sub	a10, a10, a3
400824e2:	f63a27        	bltu	a10, a2, 400824dc <z_impl_k_busy_wait+0x20>
400824e5:	f01d      	retw.n
	...

400824e8 <sys_clock_timeout_end_calc>:
400824e8:	004136        	entry	a1, 32
400824eb:	020266        	bnei	a2, -1, 400824f1 <sys_clock_timeout_end_calc+0x9>
400824ee:	460326        	beqi	a3, -1, 40082538 <sys_clock_timeout_end_calc+0x50>
400824f1:	208320        	or	a8, a3, a2
400824f4:	00c856        	bnez	a8, 40082504 <sys_clock_timeout_end_calc+0x1c>
400824f7:	fff825        	call8	40082478 <sys_clock_tick_get>
400824fa:	202aa0        	or	a2, a10, a10
400824fd:	203bb0        	or	a3, a11, a11
40082500:	000d86        	j	4008253a <sys_clock_timeout_end_calc+0x52>
40082503:	00          	.byte 00
40082504:	e87c      	movi.n	a8, -2
40082506:	c0a820        	sub	a10, a8, a2
40082509:	190c      	movi.n	a9, 1
4008250b:	0138a7        	bltu	a8, a10, 40082510 <sys_clock_timeout_end_calc+0x28>
4008250e:	090c      	movi.n	a9, 0
40082510:	f87c      	movi.n	a8, -1
40082512:	c08830        	sub	a8, a8, a3
40082515:	c08890        	sub	a8, a8, a9
40082518:	008896        	bltz	a8, 40082524 <sys_clock_timeout_end_calc+0x3c>
4008251b:	0a2d      	mov.n	a2, a10
4008251d:	083d      	mov.n	a3, a8
4008251f:	0005c6        	j	4008253a <sys_clock_timeout_end_calc+0x52>
40082522:	00          	.byte 00
40082523:	00          	.byte 00
40082524:	fff525        	call8	40082478 <sys_clock_tick_get>
40082527:	2a2a      	add.n	a2, a10, a2
40082529:	180c      	movi.n	a8, 1
4008252b:	0132a7        	bltu	a2, a10, 40082530 <sys_clock_timeout_end_calc+0x48>
4008252e:	080c      	movi.n	a8, 0
40082530:	bb3a      	add.n	a11, a11, a3
40082532:	38ba      	add.n	a3, a8, a11
40082534:	000086        	j	4008253a <sys_clock_timeout_end_calc+0x52>
40082537:	00          	.byte 00
40082538:	032d      	mov.n	a2, a3
4008253a:	f01d      	retw.n

4008253c <z_timer_expiration_handler>:
4008253c:	004136        	entry	a1, 32
4008253f:	006340        	rsil	a4, 3
40082542:	02a8      	l32i.n	a10, a2, 0
40082544:	1a8c      	beqz.n	a10, 40082549 <z_timer_expiration_handler+0xd>
40082546:	0031c6        	j	40082611 <z_timer_expiration_handler+0xd5>
40082549:	a298      	l32i.n	a9, a2, 40
4008254b:	b288      	l32i.n	a8, a2, 44
4008254d:	591b      	addi.n	a5, a9, 1
4008254f:	130c      	movi.n	a3, 1
40082551:	013597        	bltu	a5, a9, 40082556 <z_timer_expiration_handler+0x1a>
40082554:	0a3d      	mov.n	a3, a10
40082556:	338a      	add.n	a3, a3, a8
40082558:	005356        	bnez	a3, 40082561 <z_timer_expiration_handler+0x25>
4008255b:	0225f6        	bgeui	a5, 2, 40082561 <z_timer_expiration_handler+0x25>
4008255e:	001f06        	j	400825de <z_timer_expiration_handler+0xa2>
40082561:	0818e6        	bgei	a8, 1, 4008256d <z_timer_expiration_handler+0x31>
40082564:	18cc      	bnez.n	a8, 40082569 <z_timer_expiration_handler+0x2d>
40082566:	003956        	bnez	a9, 4008256d <z_timer_expiration_handler+0x31>
40082569:	190c      	movi.n	a9, 1
4008256b:	080c      	movi.n	a8, 0
4008256d:	390b      	addi.n	a3, a9, -1
4008256f:	150c      	movi.n	a5, 1
40082571:	013397        	bltu	a3, a9, 40082576 <z_timer_expiration_handler+0x3a>
40082574:	050c      	movi.n	a5, 0
40082576:	880b      	addi.n	a8, a8, -1
40082578:	558a      	add.n	a5, a5, a8
4008257a:	fff325        	call8	400824ac <z_impl_k_uptime_ticks>
4008257d:	ca1b      	addi.n	a12, a10, 1
4008257f:	180c      	movi.n	a8, 1
40082581:	013ca7        	bltu	a12, a10, 40082586 <z_timer_expiration_handler+0x4a>
40082584:	080c      	movi.n	a8, 0
40082586:	ac3a      	add.n	a10, a12, a3
40082588:	88ba      	add.n	a8, a8, a11
4008258a:	190c      	movi.n	a9, 1
4008258c:	013ac7        	bltu	a10, a12, 40082591 <z_timer_expiration_handler+0x55>
4008258f:	090c      	movi.n	a9, 0
40082591:	885a      	add.n	a8, a8, a5
40082593:	898a      	add.n	a8, a9, a8
40082595:	0318e6        	bgei	a8, 1, 4008259c <z_timer_expiration_handler+0x60>
40082598:	68fc      	bnez.n	a8, 400825d2 <z_timer_expiration_handler+0x96>
4008259a:	4abc      	beqz.n	a10, 400825d2 <z_timer_expiration_handler+0x96>
4008259c:	fff0e5        	call8	400824ac <z_impl_k_uptime_ticks>
4008259f:	9a1b      	addi.n	a9, a10, 1
400825a1:	180c      	movi.n	a8, 1
400825a3:	0239a7        	bltu	a9, a10, 400825a9 <z_timer_expiration_handler+0x6d>
400825a6:	00a082        	movi	a8, 0
400825a9:	c93a      	add.n	a12, a9, a3
400825ab:	b8ba      	add.n	a11, a8, a11
400825ad:	130c      	movi.n	a3, 1
400825af:	013c97        	bltu	a12, a9, 400825b4 <z_timer_expiration_handler+0x78>
400825b2:	030c      	movi.n	a3, 0
400825b4:	bb5a      	add.n	a11, a11, a5
400825b6:	e57c      	movi.n	a5, -2
400825b8:	c0c5c0        	sub	a12, a5, a12
400825bb:	b3ba      	add.n	a11, a3, a11
400825bd:	130c      	movi.n	a3, 1
400825bf:	0135c7        	bltu	a5, a12, 400825c4 <z_timer_expiration_handler+0x88>
400825c2:	030c      	movi.n	a3, 0
400825c4:	fd7c      	movi.n	a13, -1
400825c6:	c0ddb0        	sub	a13, a13, a11
400825c9:	c0dd30        	sub	a13, a13, a3
400825cc:	000186        	j	400825d6 <z_timer_expiration_handler+0x9a>
400825cf:	00          	.byte 00
400825d0:	00          	.byte 00
400825d1:	00          	.byte 00
400825d2:	ec7c      	movi.n	a12, -2
400825d4:	fd7c      	movi.n	a13, -1
400825d6:	f7e7b1        	l32r	a11, 40080574 <_init_end+0x174> (4008253c <z_timer_expiration_handler>)
400825d9:	02ad      	mov.n	a10, a2
400825db:	ffca25        	call8	4008227c <z_add_timeout>
400825de:	c238      	l32i.n	a3, a2, 48
400825e0:	331b      	addi.n	a3, a3, 1
400825e2:	c239      	s32i.n	a3, a2, 48
400825e4:	8238      	l32i.n	a3, a2, 32
400825e6:	e38c      	beqz.n	a3, 400825f8 <z_timer_expiration_handler+0xbc>
400825e8:	13e640        	wsr.ps	a4
400825eb:	002010        	rsync
400825ee:	8238      	l32i.n	a3, a2, 32
400825f0:	02ad      	mov.n	a10, a2
400825f2:	0003e0        	callx8	a3
400825f5:	006340        	rsil	a4, 3
400825f8:	6238      	l32i.n	a3, a2, 24
400825fa:	150c      	movi.n	a5, 1
400825fc:	080c      	movi.n	a8, 0
400825fe:	838530        	moveqz	a8, a5, a3
40082601:	749080        	extui	a9, a8, 0, 8
40082604:	98cc      	bnez.n	a8, 40082611 <z_timer_expiration_handler+0xd5>
40082606:	18c222        	addi	a2, a2, 24
40082609:	c02320        	sub	a2, a3, a2
4008260c:	935920        	movnez	a5, a9, a2
4008260f:	758c      	beqz.n	a5, 4008261a <z_timer_expiration_handler+0xde>
40082611:	13e640        	wsr.ps	a4
40082614:	002010        	rsync
40082617:	000506        	j	4008262f <z_timer_expiration_handler+0xf3>
4008261a:	20a330        	or	a10, a3, a3
4008261d:	ff6e65        	call8	40081d04 <z_unpend_thread_no_timeout>
40082620:	116352        	s32i	a5, a3, 68
40082623:	13e640        	wsr.ps	a4
40082626:	002010        	rsync
40082629:	20a330        	or	a10, a3, a3
4008262c:	ff6c25        	call8	40081cf0 <z_ready_thread>
4008262f:	000090        	retw
	...

40082634 <z_impl_k_timer_start>:
40082634:	006136        	entry	a1, 48
40082637:	04cd      	mov.n	a12, a4
40082639:	053d      	mov.n	a3, a5
4008263b:	020466        	bnei	a4, -1, 40082641 <z_impl_k_timer_start+0xd>
4008263e:	400526        	beqi	a5, -1, 40082682 <z_impl_k_timer_start+0x4e>
40082641:	0085d6        	bgez	a5, 4008264d <z_impl_k_timer_start+0x19>
40082644:	1d0566        	bnei	a5, -1, 40082665 <z_impl_k_timer_start+0x31>
40082647:	feaf82        	movi	a8, -2
4008264a:	17b847        	bgeu	a8, a4, 40082665 <z_impl_k_timer_start+0x31>
4008264d:	0715e6        	bgei	a5, 1, 40082658 <z_impl_k_timer_start+0x24>
40082650:	05cc      	bnez.n	a5, 40082654 <z_impl_k_timer_start+0x20>
40082652:	24cc      	bnez.n	a4, 40082658 <z_impl_k_timer_start+0x24>
40082654:	140c      	movi.n	a4, 1
40082656:	050c      	movi.n	a5, 0
40082658:	c40b      	addi.n	a12, a4, -1
4008265a:	130c      	movi.n	a3, 1
4008265c:	013c47        	bltu	a12, a4, 40082661 <z_impl_k_timer_start+0x2d>
4008265f:	030c      	movi.n	a3, 0
40082661:	550b      	addi.n	a5, a5, -1
40082663:	335a      	add.n	a3, a3, a5
40082665:	0061c2        	s32i	a12, a1, 0
40082668:	20a220        	or	a10, a2, a2
4008266b:	040c      	movi.n	a4, 0
4008266d:	ffd125        	call8	40082380 <z_abort_timeout>
40082670:	a269      	s32i.n	a6, a2, 40
40082672:	b279      	s32i.n	a7, a2, 44
40082674:	c249      	s32i.n	a4, a2, 48
40082676:	01c8      	l32i.n	a12, a1, 0
40082678:	f7bfb1        	l32r	a11, 40080574 <_init_end+0x174> (4008253c <z_timer_expiration_handler>)
4008267b:	03dd      	mov.n	a13, a3
4008267d:	02ad      	mov.n	a10, a2
4008267f:	ffbfe5        	call8	4008227c <z_add_timeout>
40082682:	f01d      	retw.n

40082684 <z_impl_k_timer_stop>:
40082684:	004136        	entry	a1, 32
40082687:	20a220        	or	a10, a2, a2
4008268a:	ffcf65        	call8	40082380 <z_abort_timeout>
4008268d:	9adc      	bnez.n	a10, 400826aa <z_impl_k_timer_stop+0x26>
4008268f:	9288      	l32i.n	a8, a2, 36
40082691:	488c      	beqz.n	a8, 40082699 <z_impl_k_timer_stop+0x15>
40082693:	20a220        	or	a10, a2, a2
40082696:	0008e0        	callx8	a8
40082699:	18c2a2        	addi	a10, a2, 24
4008269c:	ff6ea5        	call8	40081d88 <z_unpend1_no_timeout>
4008269f:	7a8c      	beqz.n	a10, 400826aa <z_impl_k_timer_stop+0x26>
400826a1:	ff64e5        	call8	40081cf0 <z_ready_thread>
400826a4:	0063a0        	rsil	a10, 3
400826a7:	ff83e5        	call8	40081ee4 <z_reschedule_irqlock>
400826aa:	f01d      	retw.n

400826ac <z_heap_aligned_alloc>:
400826ac:	004136        	entry	a1, 32
400826af:	c44b      	addi.n	a12, a4, 4
400826b1:	04bc47        	bgeu	a12, a4, 400826b9 <z_heap_aligned_alloc+0xd>
400826b4:	020c      	movi.n	a2, 0
400826b6:	000546        	j	400826cf <z_heap_aligned_alloc+0x23>
400826b9:	0e0c      	movi.n	a14, 0
400826bb:	4b0c      	movi.n	a11, 4
400826bd:	0efd      	mov.n	a15, a14
400826bf:	20b3b0        	or	a11, a3, a11
400826c2:	20a220        	or	a10, a2, a2
400826c5:	fef165        	call8	400815dc <k_heap_aligned_alloc>
400826c8:	fe8a16        	beqz	a10, 400826b4 <z_heap_aligned_alloc+0x8>
400826cb:	0a29      	s32i.n	a2, a10, 0
400826cd:	2a4b      	addi.n	a2, a10, 4
400826cf:	f01d      	retw.n
400826d1:	000000        	ill

400826d4 <k_free>:
400826d4:	004136        	entry	a1, 32
400826d7:	00b216        	beqz	a2, 400826e6 <k_free+0x12>
400826da:	fcc222        	addi	a2, a2, -4
400826dd:	0022a2        	l32i	a10, a2, 0
400826e0:	20b220        	or	a11, a2, a2
400826e3:	fef6e5        	call8	40081650 <k_heap_free>
400826e6:	f01d      	retw.n

400826e8 <k_aligned_alloc>:
400826e8:	004136        	entry	a1, 32
400826eb:	f7a3a1        	l32r	a10, 40080578 <_init_end+0x178> (3ffb07a4 <_system_heap>)
400826ee:	20b220        	or	a11, a2, a2
400826f1:	20c330        	or	a12, a3, a3
400826f4:	fffb65        	call8	400826ac <z_heap_aligned_alloc>
400826f7:	202aa0        	or	a2, a10, a10
400826fa:	f01d      	retw.n

400826fc <k_malloc>:
400826fc:	004136        	entry	a1, 32
400826ff:	20b220        	or	a11, a2, a2
40082702:	04a0a2        	movi	a10, 4
40082705:	fffe25        	call8	400826e8 <k_aligned_alloc>
40082708:	202aa0        	or	a2, a10, a10
4008270b:	f01d      	retw.n
4008270d:	000000        	ill

40082710 <k_thread_system_pool_assign>:
40082710:	004136        	entry	a1, 32
40082713:	f79981        	l32r	a8, 40080578 <_init_end+0x178> (3ffb07a4 <_system_heap>)
40082716:	136282        	s32i	a8, a2, 76
40082719:	f01d      	retw.n
	...

4008271c <boot_banner>:
4008271c:	004136        	entry	a1, 32
4008271f:	f797a1        	l32r	a10, 4008057c <_init_end+0x17c> (3f401328 <xtal_freq+0x96>)
40082722:	012225        	call8	40083944 <printk>
40082725:	f01d      	retw.n
	...

40082728 <z_device_state_init>:
40082728:	004136        	entry	a1, 32
4008272b:	f01d      	retw.n
4008272d:	000000        	ill

40082730 <z_device_is_ready>:
40082730:	004136        	entry	a1, 32
40082733:	129c      	beqz.n	a2, 40082748 <z_device_is_ready+0x18>
40082735:	3288      	l32i.n	a8, a2, 12
40082737:	020c      	movi.n	a2, 0
40082739:	010892        	l8ui	a9, a8, 1
4008273c:	085927        	bbc	a9, a2, 40082748 <z_device_is_ready+0x18>
4008273f:	000892        	l8ui	a9, a8, 0
40082742:	01a082        	movi	a8, 1
40082745:	832890        	moveqz	a2, a8, a9
40082748:	f01d      	retw.n
	...

4008274c <arch_system_halt>:
4008274c:	004136        	entry	a1, 32
4008274f:	006380        	rsil	a8, 3
40082752:	ffff06        	j	40082752 <arch_system_halt+0x6>
40082755:	000000        	ill

40082758 <k_is_in_isr>:
40082758:	004136        	entry	a1, 32
4008275b:	03f520        	rsr.misc1	a2
4008275e:	0298      	l32i.n	a9, a2, 0
40082760:	080c      	movi.n	a8, 0
40082762:	120c      	movi.n	a2, 1
40082764:	832890        	moveqz	a2, a8, a9
40082767:	f01d      	retw.n
40082769:	000000        	ill

4008276c <z_impl_k_thread_name_set>:
4008276c:	004136        	entry	a1, 32
4008276f:	a8af22        	movi	a2, -88
40082772:	f01d      	retw.n

40082774 <k_thread_name_get>:
40082774:	004136        	entry	a1, 32
40082777:	020c      	movi.n	a2, 0
40082779:	f01d      	retw.n
	...

4008277c <z_impl_k_sem_init>:
4008277c:	004136        	entry	a1, 32
4008277f:	080c      	movi.n	a8, 0
40082781:	190c      	movi.n	a9, 1
40082783:	939840        	movnez	a9, a8, a4
40082786:	748090        	extui	a8, a9, 0, 8
40082789:	f9cc      	bnez.n	a9, 4008279c <z_impl_k_sem_init+0x20>
4008278b:	0d3437        	bltu	a4, a3, 4008279c <z_impl_k_sem_init+0x20>
4008278e:	2239      	s32i.n	a3, a2, 8
40082790:	3249      	s32i.n	a4, a2, 12
40082792:	0229      	s32i.n	a2, a2, 0
40082794:	1229      	s32i.n	a2, a2, 4
40082796:	082d      	mov.n	a2, a8
40082798:	000086        	j	4008279e <z_impl_k_sem_init+0x22>
4008279b:	00          	.byte 00
4008279c:	a26c      	movi.n	a2, -22
4008279e:	f01d      	retw.n

400827a0 <sys_dlist_remove>:
400827a0:	004136        	entry	a1, 32
400827a3:	0288      	l32i.n	a8, a2, 0
400827a5:	1298      	l32i.n	a9, a2, 4
400827a7:	0989      	s32i.n	a8, a9, 0
400827a9:	1899      	s32i.n	a9, a8, 4
400827ab:	080c      	movi.n	a8, 0
400827ad:	0289      	s32i.n	a8, a2, 0
400827af:	1289      	s32i.n	a8, a2, 4
400827b1:	f01d      	retw.n
	...

400827b4 <k_timer_init>:
400827b4:	004136        	entry	a1, 32
400827b7:	080c      	movi.n	a8, 0
400827b9:	18c292        	addi	a9, a2, 24
400827bc:	8239      	s32i.n	a3, a2, 32
400827be:	9249      	s32i.n	a4, a2, 36
400827c0:	c289      	s32i.n	a8, a2, 48
400827c2:	6299      	s32i.n	a9, a2, 24
400827c4:	7299      	s32i.n	a9, a2, 28
400827c6:	0289      	s32i.n	a8, a2, 0
400827c8:	1289      	s32i.n	a8, a2, 4
400827ca:	d289      	s32i.n	a8, a2, 52
400827cc:	f01d      	retw.n
	...

400827d0 <xthal_window_spill_nw>:
400827d0:	034820        	rsr.windowbase	a2
400827d3:	221b      	addi.n	a2, a2, 1
400827d5:	400200        	ssr	a2
400827d8:	034930        	rsr.windowstart	a3
400827db:	912030        	srl	a2, a3
400827de:	a13300        	sll	a3, a3
400827e1:	0bf3d6        	bgez	a3, 400828a4 <xthal_window_spill_nw+0xd4>
400827e4:	f53030        	extui	a3, a3, 16, 16
400827e7:	202230        	or	a2, a2, a3
400827ea:	603020        	neg	a3, a2
400827ed:	103320        	and	a3, a3, a2
400827f0:	40f330        	nsau	a3, a3
400827f3:	401300        	ssl	a3
400827f6:	912020        	srl	a2, a2
400827f9:	134920        	wsr.windowstart	a2
400827fc:	034820        	rsr.windowbase	a2
400827ff:	1fc222        	addi	a2, a2, 31
40082802:	c03230        	sub	a3, a2, a3
40082805:	134830        	wsr.windowbase	a3
40082808:	002010        	rsync
4008280b:	034920        	rsr.windowstart	a2
4008280e:	07a216        	beqz	a2, 4008288c <xthal_window_spill_nw+0xbc>
40082811:	08e207        	bbsi	a2, 0, 4008281d <xthal_window_spill_nw+0x4d>
40082814:	19e217        	bbsi	a2, 1, 40082831 <xthal_window_spill_nw+0x61>
40082817:	3ae227        	bbsi	a2, 2, 40082855 <xthal_window_spill_nw+0x85>
4008281a:	002306        	j	400828aa <xthal_window_spill_nw+0xda>
4008281d:	f0c932        	addi	a3, a9, -16
40082820:	0349      	s32i.n	a4, a3, 0
40082822:	1359      	s32i.n	a5, a3, 4
40082824:	2369      	s32i.n	a6, a3, 8
40082826:	3379      	s32i.n	a7, a3, 12
40082828:	416120        	srli	a6, a2, 1
4008282b:	408010        	rotw	1
4008282e:	fff706        	j	4008280e <xthal_window_spill_nw+0x3e>
40082831:	f0cd32        	addi	a3, a13, -16
40082834:	0349      	s32i.n	a4, a3, 0
40082836:	1359      	s32i.n	a5, a3, 4
40082838:	2369      	s32i.n	a6, a3, 8
4008283a:	3379      	s32i.n	a7, a3, 12
4008283c:	f4c532        	addi	a3, a5, -12
4008283f:	0338      	l32i.n	a3, a3, 0
40082841:	e0c332        	addi	a3, a3, -32
40082844:	0389      	s32i.n	a8, a3, 0
40082846:	1399      	s32i.n	a9, a3, 4
40082848:	23a9      	s32i.n	a10, a3, 8
4008284a:	33b9      	s32i.n	a11, a3, 12
4008284c:	41a220        	srli	a10, a2, 2
4008284f:	408020        	rotw	2
40082852:	ffee06        	j	4008280e <xthal_window_spill_nw+0x3e>
40082855:	408010        	rotw	1
40082858:	f0cdd2        	addi	a13, a13, -16
4008285b:	0d09      	s32i.n	a0, a13, 0
4008285d:	1d19      	s32i.n	a1, a13, 4
4008285f:	2d29      	s32i.n	a2, a13, 8
40082861:	3d39      	s32i.n	a3, a13, 12
40082863:	f4c132        	addi	a3, a1, -12
40082866:	0338      	l32i.n	a3, a3, 0
40082868:	10cdd2        	addi	a13, a13, 16
4008286b:	d0c332        	addi	a3, a3, -48
4008286e:	0349      	s32i.n	a4, a3, 0
40082870:	1359      	s32i.n	a5, a3, 4
40082872:	2369      	s32i.n	a6, a3, 8
40082874:	3379      	s32i.n	a7, a3, 12
40082876:	4389      	s32i.n	a8, a3, 16
40082878:	5399      	s32i.n	a9, a3, 20
4008287a:	63a9      	s32i.n	a10, a3, 24
4008287c:	73b9      	s32i.n	a11, a3, 28
4008287e:	4080f0        	rotw	-1
40082881:	41e320        	srli	a14, a2, 3
40082884:	408030        	rotw	3
40082887:	ffe0c6        	j	4008280e <xthal_window_spill_nw+0x3e>
4008288a:	00          	.byte 00
4008288b:	00          	.byte 00
4008288c:	408010        	rotw	1
4008288f:	034820        	rsr.windowbase	a2
40082892:	401200        	ssl	a2
40082895:	120c      	movi.n	a2, 1
40082897:	a12200        	sll	a2, a2
4008289a:	134920        	wsr.windowstart	a2
4008289d:	002010        	rsync
400828a0:	020c      	movi.n	a2, 0
400828a2:	f00d      	ret.n
400828a4:	120c      	movi.n	a2, 1
400828a6:	f00d      	ret.n
400828a8:	00          	.byte 00
400828a9:	00          	.byte 00
400828aa:	1122f0        	slli	a2, a2, 1
400828ad:	221b      	addi.n	a2, a2, 1
400828af:	034830        	rsr.windowbase	a3
400828b2:	0ae2f7        	bbsi	a2, 15, 400828c0 <xthal_window_spill_nw+0xf0>
400828b5:	330b      	addi.n	a3, a3, -1
400828b7:	1122f0        	slli	a2, a2, 1
400828ba:	f762f7        	bbci	a2, 15, 400828b5 <xthal_window_spill_nw+0xe5>
400828bd:	343030        	extui	a3, a3, 0, 4
400828c0:	401300        	ssl	a3
400828c3:	113200        	slli	a3, a2, 16
400828c6:	812230        	src	a2, a2, a3
400828c9:	f42020        	extui	a2, a2, 0, 16
400828cc:	134920        	wsr.windowstart	a2
400828cf:	030330        	rsr.sar	a3
400828d2:	022c      	movi.n	a2, 32
400828d4:	c03230        	sub	a3, a2, a3
400828d7:	134830        	wsr.windowbase	a3
400828da:	002010        	rsync
400828dd:	220c      	movi.n	a2, 2
400828df:	f00d      	ret.n
400828e1:	000000        	ill

400828e4 <xthal_window_spill>:
400828e4:	002136        	entry	a1, 16
400828e7:	f72661        	l32r	a6, 40080580 <_init_end+0x180> (fffbfff0 <_rtc_bss_end+0xaffbfff0>)
400828ea:	03e650        	rsr.ps	a5
400828ed:	004d      	mov.n	a4, a0
400828ef:	102560        	and	a2, a5, a6
400828f2:	223b      	addi.n	a2, a2, 3
400828f4:	13e620        	wsr.ps	a2
400828f7:	002010        	rsync
400828fa:	ffed45        	call0	400827d0 <xthal_window_spill_nw>
400828fd:	040d      	mov.n	a0, a4
400828ff:	13e650        	wsr.ps	a5
40082902:	002010        	rsync
40082905:	f01d      	retw.n
	...

40082908 <esp_log_early_timestamp>:
40082908:	004136        	entry	a1, 32
4008290b:	ffba25        	call8	400824ac <z_impl_k_uptime_ticks>
4008290e:	ac0c      	movi.n	a12, 10
40082910:	0d0c      	movi.n	a13, 0
40082912:	f71281        	l32r	a8, 4008055c <_init_end+0x15c> (4000cff8 <__udivdi3>)
40082915:	0008e0        	callx8	a8
40082918:	0a2d      	mov.n	a2, a10
4008291a:	f01d      	retw.n

4008291c <ccompare_isr>:
4008291c:	004136        	entry	a1, 32
4008291f:	0063c0        	rsil	a12, 3
40082922:	03eaa0        	rsr.ccount	a10
40082925:	f71791        	l32r	a9, 40080584 <_init_end+0x184> (3ffb20ac <last_count>)
40082928:	f71881        	l32r	a8, 40080588 <_init_end+0x188> (57619f1 <CONFIG_FLASH_SIZE+0x53619f1>)
4008292b:	09b8      	l32i.n	a11, a9, 0
4008292d:	c0aab0        	sub	a10, a10, a11
40082930:	a2aa80        	muluh	a10, a10, a8
40082933:	77a182        	movi	a8, 0x177
40082936:	41a9a0        	srli	a10, a10, 9
40082939:	1188a0        	slli	a8, a8, 6
4008293c:	828a80        	mull	a8, a10, a8
4008293f:	88ba      	add.n	a8, a8, a11
40082941:	0989      	s32i.n	a8, a9, 0
40082943:	13e6c0        	wsr.ps	a12
40082946:	002010        	rsync
40082949:	ffa565        	call8	400823a0 <sys_clock_announce>
4008294c:	f01d      	retw.n
	...

40082950 <sys_clock_set_timeout>:
40082950:	004136        	entry	a1, 32
40082953:	0d0226        	beqi	a2, -1, 40082964 <sys_clock_set_timeout+0x14>
40082956:	080c      	movi.n	a8, 0
40082958:	0d22a6        	blti	a2, 2, 40082969 <sys_clock_set_timeout+0x19>
4008295b:	f70c81        	l32r	a8, 4008058c <_init_end+0x18c> (2bb0b <CONFIG_ESP_HEAP_MEM_POOL_REGION_1_SIZE+0x1fb0b>)
4008295e:	072827        	blt	a8, a2, 40082969 <sys_clock_set_timeout+0x19>
40082961:	000086        	j	40082967 <sys_clock_set_timeout+0x17>
40082964:	f70a21        	l32r	a2, 4008058c <_init_end+0x18c> (2bb0b <CONFIG_ESP_HEAP_MEM_POOL_REGION_1_SIZE+0x1fb0b>)
40082967:	820b      	addi.n	a8, a2, -1
40082969:	0063e0        	rsil	a14, 3
4008296c:	03ead0        	rsr.ccount	a13
4008296f:	f70521        	l32r	a2, 40080584 <_init_end+0x184> (3ffb20ac <last_count>)
40082972:	f707b1        	l32r	a11, 40080590 <_init_end+0x190> (5dbf <_image_irom_start+0x45f>)
40082975:	0298      	l32i.n	a9, a2, 0
40082977:	77a1c2        	movi	a12, 0x177
4008297a:	11cca0        	slli	a12, a12, 6
4008297d:	c0bb90        	sub	a11, a11, a9
40082980:	82a8c0        	mull	a10, a8, a12
40082983:	bbda      	add.n	a11, a11, a13
40082985:	f87c      	movi.n	a8, -1
40082987:	3028b0        	xor	a2, a8, a11
4008298a:	0232a7        	bltu	a2, a10, 40082990 <sys_clock_set_timeout+0x40>
4008298d:	808ab0        	add	a8, a10, a11
40082990:	f6fe21        	l32r	a2, 40080588 <_init_end+0x188> (57619f1 <CONFIG_FLASH_SIZE+0x53619f1>)
40082993:	a28820        	muluh	a8, a8, a2
40082996:	e7a322        	movi	a2, 0x3e7
40082999:	418980        	srli	a8, a8, 9
4008299c:	8288c0        	mull	a8, a8, a12
4008299f:	898a      	add.n	a8, a9, a8
400829a1:	c0d8d0        	sub	a13, a8, a13
400829a4:	0132d7        	bltu	a2, a13, 400829a9 <sys_clock_set_timeout+0x59>
400829a7:	88ca      	add.n	a8, a8, a12
400829a9:	13f080        	wsr.ccompare0	a8
400829ac:	13e6e0        	wsr.ps	a14
400829af:	002010        	rsync
400829b2:	f01d      	retw.n

400829b4 <sys_clock_elapsed>:
400829b4:	004136        	entry	a1, 32
400829b7:	006380        	rsil	a8, 3
400829ba:	03ea20        	rsr.ccount	a2
400829bd:	f6f191        	l32r	a9, 40080584 <_init_end+0x184> (3ffb20ac <last_count>)
400829c0:	0998      	l32i.n	a9, a9, 0
400829c2:	c02290        	sub	a2, a2, a9
400829c5:	f6f091        	l32r	a9, 40080588 <_init_end+0x188> (57619f1 <CONFIG_FLASH_SIZE+0x53619f1>)
400829c8:	a22290        	muluh	a2, a2, a9
400829cb:	412920        	srli	a2, a2, 9
400829ce:	13e680        	wsr.ps	a8
400829d1:	002010        	rsync
400829d4:	f01d      	retw.n
	...

400829d8 <sys_clock_driver_init>:
400829d8:	004136        	entry	a1, 32
400829db:	03ea80        	rsr.ccount	a8
400829de:	77a192        	movi	a9, 0x177
400829e1:	1199a0        	slli	a9, a9, 6
400829e4:	889a      	add.n	a8, a8, a9
400829e6:	13f080        	wsr.ccompare0	a8
400829e9:	03e480        	rsr.intenable	a8
400829ec:	094c      	movi.n	a9, 64
400829ee:	208890        	or	a8, a8, a9
400829f1:	13e480        	wsr.intenable	a8
400829f4:	002010        	rsync
400829f7:	020c      	movi.n	a2, 0
400829f9:	f01d      	retw.n
	...

400829fc <sys_clock_cycle_get_32>:
400829fc:	004136        	entry	a1, 32
400829ff:	03ea20        	rsr.ccount	a2
40082a02:	f01d      	retw.n

40082a04 <activate_foreach_backend>:
40082a04:	004136        	entry	a1, 32
40082a07:	025d      	mov.n	a5, a2
40082a09:	140c      	movi.n	a4, 1
40082a0b:	001446        	j	40082a60 <activate_foreach_backend+0x5c>
40082a0e:	00          	.byte 00
40082a0f:	00          	.byte 00
40082a10:	608050        	neg	a8, a5
40082a13:	108850        	and	a8, a8, a5
40082a16:	40f880        	nsau	a8, a8
40082a19:	608080        	neg	a8, a8
40082a1c:	1fc882        	addi	a8, a8, 31
40082a1f:	401800        	ssl	a8
40082a22:	a13400        	sll	a3, a4
40082a25:	f97c      	movi.n	a9, -1
40082a27:	306930        	xor	a6, a9, a3
40082a2a:	1138c0        	slli	a3, a8, 4
40082a2d:	f6d981        	l32r	a8, 40080594 <_init_end+0x194> (3ffb0838 <__data_end>)
40082a30:	105560        	and	a5, a5, a6
40082a33:	783a      	add.n	a7, a8, a3
40082a35:	0c0782        	l8ui	a8, a7, 12
40082a38:	48ac      	beqz.n	a8, 40082a60 <activate_foreach_backend+0x5c>
40082a3a:	0788      	l32i.n	a8, a7, 0
40082a3c:	4888      	l32i.n	a8, a8, 16
40082a3e:	68dc      	bnez.n	a8, 40082a58 <activate_foreach_backend+0x54>
40082a40:	102260        	and	a2, a2, a6
40082a43:	f6d461        	l32r	a6, 40080594 <_init_end+0x194> (3ffb0838 <__data_end>)
40082a46:	4c0c      	movi.n	a12, 4
40082a48:	363a      	add.n	a3, a6, a3
40082a4a:	1338      	l32i.n	a3, a3, 4
40082a4c:	07ad      	mov.n	a10, a7
40082a4e:	0023b2        	l32i	a11, a3, 0
40082a51:	4e9de5        	call8	400d1430 <log_backend_enable>
40082a54:	000206        	j	40082a60 <activate_foreach_backend+0x5c>
40082a57:	00          	.byte 00
40082a58:	07ad      	mov.n	a10, a7
40082a5a:	0008e0        	callx8	a8
40082a5d:	fdfa16        	beqz	a10, 40082a40 <activate_foreach_backend+0x3c>
40082a60:	fac556        	bnez	a5, 40082a10 <activate_foreach_backend+0xc>
40082a63:	f01d      	retw.n
40082a65:	000000        	ill

40082a68 <enable_logger>:
40082a68:	008136        	entry	a1, 64
40082a6b:	f6cbb1        	l32r	a11, 40080598 <_init_end+0x198> (40082ab8 <log_process_thread_timer_expiry_fn>)
40082a6e:	f6cba1        	l32r	a10, 4008059c <_init_end+0x19c> (3ffb1ca0 <log_process_thread_timer>)
40082a71:	00a0c2        	movi	a12, 0
40082a74:	ffd3e5        	call8	400827b4 <k_timer_init>
40082a77:	020c      	movi.n	a2, 0
40082a79:	e80c      	movi.n	a8, 14
40082a7b:	f6c9d1        	l32r	a13, 400805a0 <_init_end+0x1a0> (40082d9c <log_process_thread_func>)
40082a7e:	f6c9b1        	l32r	a11, 400805a4 <_init_end+0x1a4> (3ffe5230 <logging_stack>)
40082a81:	f6c9a1        	l32r	a10, 400805a8 <_init_end+0x1a8> (3ffb1c40 <logging_thread>)
40082a84:	4129      	s32i.n	a2, a1, 16
40082a86:	5129      	s32i.n	a2, a1, 20
40082a88:	2129      	s32i.n	a2, a1, 8
40082a8a:	1189      	s32i.n	a8, a1, 4
40082a8c:	0129      	s32i.n	a2, a1, 0
40082a8e:	02fd      	mov.n	a15, a2
40082a90:	02ed      	mov.n	a14, a2
40082a92:	00a4c2        	movi	a12, 0x400
40082a95:	fec365        	call8	400816cc <z_impl_k_thread_create>
40082a98:	f6c5b1        	l32r	a11, 400805ac <_init_end+0x1ac> (3ffb0640 <mpsc_config+0x14>)
40082a9b:	f6c3a1        	l32r	a10, 400805a8 <_init_end+0x1a8> (3ffb1c40 <logging_thread>)
40082a9e:	ffcce5        	call8	4008276c <z_impl_k_thread_name_set>
40082aa1:	f01d      	retw.n
	...

40082aa4 <default_lf_get_timestamp>:
40082aa4:	004136        	entry	a1, 32
40082aa7:	ffa065        	call8	400824ac <z_impl_k_uptime_ticks>
40082aaa:	ac0c      	movi.n	a12, 10
40082aac:	0d0c      	movi.n	a13, 0
40082aae:	f6ab81        	l32r	a8, 4008055c <_init_end+0x15c> (4000cff8 <__udivdi3>)
40082ab1:	0008e0        	callx8	a8
40082ab4:	0a2d      	mov.n	a2, a10
40082ab6:	f01d      	retw.n

40082ab8 <log_process_thread_timer_expiry_fn>:
40082ab8:	004136        	entry	a1, 32
40082abb:	f6bda1        	l32r	a10, 400805b0 <_init_end+0x1b0> (3ffb07e0 <log_process_thread_sem>)
40082abe:	fee325        	call8	400818f0 <z_impl_k_sem_give>
40082ac1:	f01d      	retw.n
	...

40082ac4 <z_log_init>:
40082ac4:	004136        	entry	a1, 32
40082ac7:	f6bb61        	l32r	a6, 400805b4 <_init_end+0x1b4> (3ffb1db8 <initialized>)
40082aca:	0658      	l32i.n	a5, a6, 0
40082acc:	451b      	addi.n	a4, a5, 1
40082ace:	058d      	mov.n	a8, a5
40082ad0:	130c80        	wsr.scompare1	a8
40082ad3:	00e642        	s32c1i	a4, a6, 0
40082ad6:	f09547        	bne	a5, a4, 40082aca <z_log_init+0x6>
40082ad9:	060c      	movi.n	a6, 0
40082adb:	f6ae51        	l32r	a5, 40080594 <_init_end+0x194> (3ffb0838 <__data_end>)
40082ade:	461467        	beq	a4, a6, 40082b28 <z_log_init+0x64>
40082ae1:	060c      	movi.n	a6, 0
40082ae3:	0019c6        	j	40082b4e <z_log_init+0x8a>
40082ae6:	00          	.byte 00
40082ae7:	00          	.byte 00
40082ae8:	0c0582        	l8ui	a8, a5, 12
40082aeb:	68bc      	beqz.n	a8, 40082b25 <z_log_init+0x61>
40082aed:	0588      	l32i.n	a8, a5, 0
40082aef:	3888      	l32i.n	a8, a8, 12
40082af1:	388c      	beqz.n	a8, 40082af8 <z_log_init+0x34>
40082af3:	05ad      	mov.n	a10, a5
40082af5:	0008e0        	callx8	a8
40082af8:	0588      	l32i.n	a8, a5, 0
40082afa:	4888      	l32i.n	a8, a8, 16
40082afc:	08dc      	bnez.n	a8, 40082b10 <z_log_init+0x4c>
40082afe:	012582        	l32i	a8, a5, 4
40082b01:	04a0c2        	movi	a12, 4
40082b04:	0028b2        	l32i	a11, a8, 0
40082b07:	05ad      	mov.n	a10, a5
40082b09:	4e9265        	call8	400d1430 <log_backend_enable>
40082b0c:	0004c6        	j	40082b23 <z_log_init+0x5f>
40082b0f:	00          	.byte 00
40082b10:	05ad      	mov.n	a10, a5
40082b12:	0008e0        	callx8	a8
40082b15:	fe5a16        	beqz	a10, 40082afe <z_log_init+0x3a>
40082b18:	180c      	movi.n	a8, 1
40082b1a:	401400        	ssl	a4
40082b1d:	a18800        	sll	a8, a8
40082b20:	206680        	or	a6, a6, a8
40082b23:	441b      	addi.n	a4, a4, 1
40082b25:	10c552        	addi	a5, a5, 16
40082b28:	f69b81        	l32r	a8, 40080594 <_init_end+0x194> (3ffb0838 <__data_end>)
40082b2b:	b93587        	bltu	a5, a8, 40082ae8 <z_log_init+0x24>
40082b2e:	c29c      	beqz.n	a2, 40082b4e <z_log_init+0x8a>
40082b30:	64a022        	movi	a2, 100
40082b33:	000446        	j	40082b48 <z_log_init+0x84>
40082b36:	20a660        	or	a10, a6, a6
40082b39:	ffeca5        	call8	40082a04 <activate_foreach_backend>
40082b3c:	206aa0        	or	a6, a10, a10
40082b3f:	538c      	beqz.n	a3, 40082b48 <z_log_init+0x84>
40082b41:	0b0c      	movi.n	a11, 0
40082b43:	02ad      	mov.n	a10, a2
40082b45:	ff5a65        	call8	400820ec <z_impl_k_sleep>
40082b48:	fea656        	bnez	a6, 40082b36 <z_log_init+0x72>
40082b4b:	ffe486        	j	40082ae1 <z_log_init+0x1d>
40082b4e:	062d      	mov.n	a2, a6
40082b50:	f01d      	retw.n
	...

40082b54 <z_log_vprintk>:
40082b54:	00a136        	entry	a1, 80
40082b57:	8139      	s32i.n	a3, a1, 32
40082b59:	9149      	s32i.n	a4, a1, 36
40082b5b:	a159      	s32i.n	a5, a1, 40
40082b5d:	4139      	s32i.n	a3, a1, 16
40082b5f:	5149      	s32i.n	a4, a1, 20
40082b61:	6159      	s32i.n	a5, a1, 24
40082b63:	4198      	l32i.n	a9, a1, 16
40082b65:	0f0c      	movi.n	a15, 0
40082b67:	1199      	s32i.n	a9, a1, 4
40082b69:	5198      	l32i.n	a9, a1, 20
40082b6b:	0129      	s32i.n	a2, a1, 0
40082b6d:	2199      	s32i.n	a9, a1, 8
40082b6f:	6198      	l32i.n	a9, a1, 24
40082b71:	0fed      	mov.n	a14, a15
40082b73:	3199      	s32i.n	a9, a1, 12
40082b75:	0fdd      	mov.n	a13, a15
40082b77:	0fcd      	mov.n	a12, a15
40082b79:	0fbd      	mov.n	a11, a15
40082b7b:	0fad      	mov.n	a10, a15
40082b7d:	00f525        	call8	40083ad0 <z_impl_z_log_msg_runtime_vcreate>
40082b80:	f01d      	retw.n
	...

40082b84 <z_log_notify_backend_enabled>:
40082b84:	004136        	entry	a1, 32
40082b87:	f68c21        	l32r	a2, 400805b8 <_init_end+0x1b8> (3ffb20dc <backend_attached>)
40082b8a:	000282        	l8ui	a8, a2, 0
40082b8d:	005856        	bnez	a8, 40082b96 <z_log_notify_backend_enabled+0x12>
40082b90:	f688a1        	l32r	a10, 400805b0 <_init_end+0x1b0> (3ffb07e0 <log_process_thread_sem>)
40082b93:	fed5e5        	call8	400818f0 <z_impl_k_sem_give>
40082b96:	01a082        	movi	a8, 1
40082b99:	004282        	s8i	a8, a2, 0
40082b9c:	000090        	retw
	...

40082ba0 <z_log_dropped>:
40082ba0:	004136        	entry	a1, 32
40082ba3:	f686a1        	l32r	a10, 400805bc <_init_end+0x1bc> (3ffb1db0 <dropped_cnt>)
40082ba6:	742020        	extui	a2, a2, 0, 8
40082ba9:	0a98      	l32i.n	a9, a10, 0
40082bab:	891b      	addi.n	a8, a9, 1
40082bad:	09bd      	mov.n	a11, a9
40082baf:	130cb0        	wsr.scompare1	a11
40082bb2:	00ea82        	s32c1i	a8, a10, 0
40082bb5:	f09987        	bne	a9, a8, 40082ba9 <z_log_dropped+0x9>
40082bb8:	029c      	beqz.n	a2, 40082bcc <z_log_dropped+0x2c>
40082bba:	f681a1        	l32r	a10, 400805c0 <_init_end+0x1c0> (3ffb1db4 <buffered_cnt>)
40082bbd:	0a98      	l32i.n	a9, a10, 0
40082bbf:	890b      	addi.n	a8, a9, -1
40082bc1:	09bd      	mov.n	a11, a9
40082bc3:	130cb0        	wsr.scompare1	a11
40082bc6:	00ea82        	s32c1i	a8, a10, 0
40082bc9:	f09987        	bne	a9, a8, 40082bbd <z_log_dropped+0x1d>
40082bcc:	f01d      	retw.n
	...

40082bd0 <z_log_notify_drop>:
40082bd0:	004136        	entry	a1, 32
40082bd3:	1a0c      	movi.n	a10, 1
40082bd5:	fffca5        	call8	40082ba0 <z_log_dropped>
40082bd8:	f01d      	retw.n
	...

40082bdc <z_log_dropped_read_and_clear>:
40082bdc:	004136        	entry	a1, 32
40082bdf:	f67791        	l32r	a9, 400805bc <_init_end+0x1bc> (3ffb1db0 <dropped_cnt>)
40082be2:	0b0c      	movi.n	a11, 0
40082be4:	0928      	l32i.n	a2, a9, 0
40082be6:	0b8d      	mov.n	a8, a11
40082be8:	02ad      	mov.n	a10, a2
40082bea:	130ca0        	wsr.scompare1	a10
40082bed:	00e982        	s32c1i	a8, a9, 0
40082bf0:	f09287        	bne	a2, a8, 40082be4 <z_log_dropped_read_and_clear+0x8>
40082bf3:	f01d      	retw.n
40082bf5:	000000        	ill

40082bf8 <dropped_notify>:
40082bf8:	004136        	entry	a1, 32
40082bfb:	fffe25        	call8	40082bdc <z_log_dropped_read_and_clear>
40082bfe:	0a3d      	mov.n	a3, a10
40082c00:	f66521        	l32r	a2, 40080594 <_init_end+0x194> (3ffb0838 <__data_end>)
40082c03:	000646        	j	40082c20 <dropped_notify+0x28>
40082c06:	00          	.byte 00
40082c07:	00          	.byte 00
40082c08:	00          	.byte 00
40082c09:	1288      	l32i.n	a8, a2, 4
40082c0b:	050882        	l8ui	a8, a8, 5
40082c0e:	b88c      	beqz.n	a8, 40082c1d <dropped_notify+0x25>
40082c10:	0288      	l32i.n	a8, a2, 0
40082c12:	1888      	l32i.n	a8, a8, 4
40082c14:	588c      	beqz.n	a8, 40082c1d <dropped_notify+0x25>
40082c16:	03bd      	mov.n	a11, a3
40082c18:	02ad      	mov.n	a10, a2
40082c1a:	0008e0        	callx8	a8
40082c1d:	10c222        	addi	a2, a2, 16
40082c20:	f65d41        	l32r	a4, 40080594 <_init_end+0x194> (3ffb0838 <__data_end>)
40082c23:	e23247        	bltu	a2, a4, 40082c09 <dropped_notify+0x11>
40082c26:	f01d      	retw.n

40082c28 <z_log_msg_init>:
40082c28:	004136        	entry	a1, 32
40082c2b:	f66721        	l32r	a2, 400805c8 <_init_end+0x1c8> (3ffb0754 <log_buffer>)
40082c2e:	f665b1        	l32r	a11, 400805c4 <_init_end+0x1c4> (3ffb062c <mpsc_config>)
40082c31:	20a220        	or	a10, a2, a2
40082c34:	4e5a25        	call8	400d11d8 <mpsc_pbuf_init>
40082c37:	f66581        	l32r	a8, 400805cc <_init_end+0x1cc> (3ffb1da8 <curr_log_buffer>)
40082c3a:	006822        	s32i	a2, a8, 0
40082c3d:	000090        	retw

40082c40 <log_core_init>:
40082c40:	004136        	entry	a1, 32
40082c43:	f66381        	l32r	a8, 400805d0 <_init_end+0x1d0> (3ffb20dd <panic_mode>)
40082c46:	00a092        	movi	a9, 0
40082c49:	004892        	s8i	a9, a8, 0
40082c4c:	f65c91        	l32r	a9, 400805bc <_init_end+0x1bc> (3ffb1db0 <dropped_cnt>)
40082c4f:	00a082        	movi	a8, 0
40082c52:	006982        	s32i	a8, a9, 0
40082c55:	f65a91        	l32r	a9, 400805c0 <_init_end+0x1c0> (3ffb1db4 <buffered_cnt>)
40082c58:	0989      	s32i.n	a8, a9, 0
40082c5a:	f65e81        	l32r	a8, 400805d4 <_init_end+0x1d4> (3ffb0004 <timestamp_func>)
40082c5d:	f65e91        	l32r	a9, 400805d8 <_init_end+0x1d8> (40082aa4 <default_lf_get_timestamp>)
40082c60:	0899      	s32i.n	a9, a8, 0
40082c62:	fffc65        	call8	40082c28 <z_log_msg_init>
40082c65:	f01d      	retw.n
	...

40082c68 <z_log_msg_alloc>:
40082c68:	004136        	entry	a1, 32
40082c6b:	00a0d2        	movi	a13, 0
40082c6e:	f656a1        	l32r	a10, 400805c8 <_init_end+0x1c8> (3ffb0754 <log_buffer>)
40082c71:	20b220        	or	a11, a2, a2
40082c74:	20cdd0        	or	a12, a13, a13
40082c77:	4e5a65        	call8	400d121c <mpsc_pbuf_alloc>
40082c7a:	0a2d      	mov.n	a2, a10
40082c7c:	f01d      	retw.n
	...

40082c80 <z_log_msg_local_claim>:
40082c80:	004136        	entry	a1, 32
40082c83:	f651a1        	l32r	a10, 400805c8 <_init_end+0x1c8> (3ffb0754 <log_buffer>)
40082c86:	4e6aa5        	call8	400d1330 <mpsc_pbuf_claim>
40082c89:	0a2d      	mov.n	a2, a10
40082c8b:	f01d      	retw.n
40082c8d:	000000        	ill

40082c90 <z_log_msg_free>:
40082c90:	004136        	entry	a1, 32
40082c93:	f64e81        	l32r	a8, 400805cc <_init_end+0x1cc> (3ffb1da8 <curr_log_buffer>)
40082c96:	20b220        	or	a11, a2, a2
40082c99:	0028a2        	l32i	a10, a8, 0
40082c9c:	4e7265        	call8	400d13c4 <mpsc_pbuf_free>
40082c9f:	000090        	retw
	...

40082ca4 <z_log_msg_pending>:
40082ca4:	004136        	entry	a1, 32
40082ca7:	f648a1        	l32r	a10, 400805c8 <_init_end+0x1c8> (3ffb0754 <log_buffer>)
40082caa:	51d3e5        	call8	400d49e8 <mpsc_pbuf_is_pending>
40082cad:	0a2d      	mov.n	a2, a10
40082caf:	f01d      	retw.n
40082cb1:	000000        	ill

40082cb4 <z_impl_log_process>:
40082cb4:	004136        	entry	a1, 32
40082cb7:	f64021        	l32r	a2, 400805b8 <_init_end+0x1b8> (3ffb20dc <backend_attached>)
40082cba:	000222        	l8ui	a2, a2, 0
40082cbd:	097216        	beqz	a2, 40082d58 <z_impl_log_process+0xa4>
40082cc0:	fffbe5        	call8	40082c80 <z_log_msg_local_claim>
40082cc3:	0a3d      	mov.n	a3, a10
40082cc5:	9abc      	beqz.n	a10, 40082d02 <z_impl_log_process+0x4e>
40082cc7:	f63e91        	l32r	a9, 400805c0 <_init_end+0x1c0> (3ffb1db4 <buffered_cnt>)
40082cca:	0988      	l32i.n	a8, a9, 0
40082ccc:	280b      	addi.n	a2, a8, -1
40082cce:	08ad      	mov.n	a10, a8
40082cd0:	130ca0        	wsr.scompare1	a10
40082cd3:	00e922        	s32c1i	a2, a9, 0
40082cd6:	f09827        	bne	a8, a2, 40082cca <z_impl_log_process+0x16>
40082cd9:	f62e21        	l32r	a2, 40080594 <_init_end+0x194> (3ffb0838 <__data_end>)
40082cdc:	0005c6        	j	40082cf7 <z_impl_log_process+0x43>
40082cdf:	00          	.byte 00
40082ce0:	00          	.byte 00
40082ce1:	00          	.byte 00
40082ce2:	1288      	l32i.n	a8, a2, 4
40082ce4:	050882        	l8ui	a8, a8, 5
40082ce7:	988c      	beqz.n	a8, 40082cf4 <z_impl_log_process+0x40>
40082ce9:	0288      	l32i.n	a8, a2, 0
40082ceb:	03bd      	mov.n	a11, a3
40082ced:	0888      	l32i.n	a8, a8, 0
40082cef:	02ad      	mov.n	a10, a2
40082cf1:	0008e0        	callx8	a8
40082cf4:	10c222        	addi	a2, a2, 16
40082cf7:	f62741        	l32r	a4, 40080594 <_init_end+0x194> (3ffb0838 <__data_end>)
40082cfa:	e43247        	bltu	a2, a4, 40082ce2 <z_impl_log_process+0x2e>
40082cfd:	03ad      	mov.n	a10, a3
40082cff:	fff925        	call8	40082c90 <z_log_msg_free>
40082d02:	f62e21        	l32r	a2, 400805bc <_init_end+0x1bc> (3ffb1db0 <dropped_cnt>)
40082d05:	0238      	l32i.n	a3, a2, 0
40082d07:	f63521        	l32r	a2, 400805dc <_init_end+0x1dc> (3ffb1c98 <last_failure_report>)
40082d0a:	2c13a6        	blti	a3, 1, 40082d3a <z_impl_log_process+0x86>
40082d0d:	ff79e5        	call8	400824ac <z_impl_k_uptime_ticks>
40082d10:	ac0c      	movi.n	a12, 10
40082d12:	0d0c      	movi.n	a13, 0
40082d14:	f61281        	l32r	a8, 4008055c <_init_end+0x15c> (4000cff8 <__udivdi3>)
40082d17:	0008e0        	callx8	a8
40082d1a:	0288      	l32i.n	a8, a2, 0
40082d1c:	1298      	l32i.n	a9, a2, 4
40082d1e:	c08a80        	sub	a8, a10, a8
40082d21:	130c      	movi.n	a3, 1
40082d23:	013a87        	bltu	a10, a8, 40082d28 <z_impl_log_process+0x74>
40082d26:	030c      	movi.n	a3, 0
40082d28:	c0bb90        	sub	a11, a11, a9
40082d2b:	059b37        	bne	a11, a3, 40082d34 <z_impl_log_process+0x80>
40082d2e:	e8a332        	movi	a3, 0x3e8
40082d31:	05b387        	bgeu	a3, a8, 40082d3a <z_impl_log_process+0x86>
40082d34:	201110        	or	a1, a1, a1
40082d37:	ffec25        	call8	40082bf8 <dropped_notify>
40082d3a:	0238      	l32i.n	a3, a2, 0
40082d3c:	e8a392        	movi	a9, 0x3e8
40082d3f:	939a      	add.n	a9, a3, a9
40082d41:	12a8      	l32i.n	a10, a2, 4
40082d43:	180c      	movi.n	a8, 1
40082d45:	013937        	bltu	a9, a3, 40082d4a <z_impl_log_process+0x96>
40082d48:	080c      	movi.n	a8, 0
40082d4a:	8088a0        	add	a8, a8, a10
40082d4d:	006292        	s32i	a9, a2, 0
40082d50:	016282        	s32i	a8, a2, 4
40082d53:	fff525        	call8	40082ca4 <z_log_msg_pending>
40082d56:	0a2d      	mov.n	a2, a10
40082d58:	f01d      	retw.n
	...

40082d5c <z_impl_log_panic>:
40082d5c:	004136        	entry	a1, 32
40082d5f:	f61c31        	l32r	a3, 400805d0 <_init_end+0x1d0> (3ffb20dd <panic_mode>)
40082d62:	0003b2        	l8ui	a11, a3, 0
40082d65:	fbec      	bnez.n	a11, 40082d98 <z_impl_log_panic+0x3c>
40082d67:	1a0c      	movi.n	a10, 1
40082d69:	ffd5a5        	call8	40082ac4 <z_log_init>
40082d6c:	f60a21        	l32r	a2, 40080594 <_init_end+0x194> (3ffb0838 <__data_end>)
40082d6f:	000506        	j	40082d87 <z_impl_log_panic+0x2b>
40082d72:	1288      	l32i.n	a8, a2, 4
40082d74:	050882        	l8ui	a8, a8, 5
40082d77:	988c      	beqz.n	a8, 40082d84 <z_impl_log_panic+0x28>
40082d79:	002282        	l32i	a8, a2, 0
40082d7c:	02ad      	mov.n	a10, a2
40082d7e:	022882        	l32i	a8, a8, 8
40082d81:	0008e0        	callx8	a8
40082d84:	10c222        	addi	a2, a2, 16
40082d87:	f60341        	l32r	a4, 40080594 <_init_end+0x194> (3ffb0838 <__data_end>)
40082d8a:	e43247        	bltu	a2, a4, 40082d72 <z_impl_log_panic+0x16>
40082d8d:	fff265        	call8	40082cb4 <z_impl_log_process>
40082d90:	ff9a56        	bnez	a10, 40082d8d <z_impl_log_panic+0x31>
40082d93:	120c      	movi.n	a2, 1
40082d95:	004322        	s8i	a2, a3, 0
40082d98:	f01d      	retw.n
	...

40082d9c <log_process_thread_func>:
40082d9c:	006136        	entry	a1, 48
40082d9f:	00a0b2        	movi	a11, 0
40082da2:	0bad      	mov.n	a10, a11
40082da4:	ffd1e5        	call8	40082ac4 <z_log_init>
40082da7:	f37c      	movi.n	a3, -1
40082da9:	f4a152        	movi	a5, 0x1f4
40082dac:	034d      	mov.n	a4, a3
40082dae:	9335a0        	movnez	a3, a5, a10
40082db1:	050c      	movi.n	a5, 0
40082db3:	0a2d      	mov.n	a2, a10
40082db5:	9345a0        	movnez	a4, a5, a10
40082db8:	ff36a5        	call8	40082124 <z_impl_z_current_get>
40082dbb:	f60951        	l32r	a5, 400805e0 <_init_end+0x1e0> (3ffb1dac <proc_tid>)
40082dbe:	05a9      	s32i.n	a10, a5, 0
40082dc0:	ea8c      	beqz.n	a10, 40082dd2 <log_process_thread_func+0x36>
40082dc2:	f5ff51        	l32r	a5, 400805c0 <_init_end+0x1c0> (3ffb1db4 <buffered_cnt>)
40082dc5:	960c      	movi.n	a6, 9
40082dc7:	0558      	l32i.n	a5, a5, 0
40082dc9:	05a657        	bge	a6, a5, 40082dd2 <log_process_thread_func+0x36>
40082dcc:	f5f9a1        	l32r	a10, 400805b0 <_init_end+0x1b0> (3ffb07e0 <log_process_thread_sem>)
40082dcf:	feb225        	call8	400818f0 <z_impl_k_sem_give>
40082dd2:	060c      	movi.n	a6, 0
40082dd4:	f77c      	movi.n	a7, -1
40082dd6:	0000c6        	j	40082ddd <log_process_thread_func+0x41>
40082dd9:	00          	.byte 00
40082dda:	206550        	or	a6, a5, a5
40082ddd:	d28c      	beqz.n	a2, 40082dee <log_process_thread_func+0x52>
40082ddf:	02ad      	mov.n	a10, a2
40082de1:	ffc225        	call8	40082a04 <activate_foreach_backend>
40082de4:	f57c      	movi.n	a5, -1
40082de6:	0a2d      	mov.n	a2, a10
40082de8:	8337a0        	moveqz	a3, a7, a10
40082deb:	8345a0        	moveqz	a4, a5, a10
40082dee:	ffec65        	call8	40082cb4 <z_impl_log_process>
40082df1:	0a5d      	mov.n	a5, a10
40082df3:	fe3a56        	bnez	a10, 40082dda <log_process_thread_func+0x3e>
40082df6:	f5e781        	l32r	a8, 40080594 <_init_end+0x194> (3ffb0838 <__data_end>)
40082df9:	36ec      	bnez.n	a6, 40082e20 <log_process_thread_func+0x84>
40082dfb:	f5eda1        	l32r	a10, 400805b0 <_init_end+0x1b0> (3ffb07e0 <log_process_thread_sem>)
40082dfe:	03cd      	mov.n	a12, a3
40082e00:	04dd      	mov.n	a13, a4
40082e02:	feb2a5        	call8	4008192c <z_impl_k_sem_take>
40082e05:	fff446        	j	40082dda <log_process_thread_func+0x3e>
40082e08:	0868      	l32i.n	a6, a8, 0
40082e0a:	6668      	l32i.n	a6, a6, 24
40082e0c:	d68c      	beqz.n	a6, 40082e1d <log_process_thread_func+0x81>
40082e0e:	0c0c      	movi.n	a12, 0
40082e10:	08ad      	mov.n	a10, a8
40082e12:	0189      	s32i.n	a8, a1, 0
40082e14:	20bcc0        	or	a11, a12, a12
40082e17:	0006e0        	callx8	a6
40082e1a:	002182        	l32i	a8, a1, 0
40082e1d:	10c882        	addi	a8, a8, 16
40082e20:	f5dd61        	l32r	a6, 40080594 <_init_end+0x194> (3ffb0838 <__data_end>)
40082e23:	e13867        	bltu	a8, a6, 40082e08 <log_process_thread_func+0x6c>
40082e26:	fff446        	j	40082dfb <log_process_thread_func+0x5f>
40082e29:	000000        	ill

40082e2c <z_log_msg_post_finalize>:
40082e2c:	004136        	entry	a1, 32
40082e2f:	f5e491        	l32r	a9, 400805c0 <_init_end+0x1c0> (3ffb1db4 <buffered_cnt>)
40082e32:	09d8      	l32i.n	a13, a9, 0
40082e34:	8d1b      	addi.n	a8, a13, 1
40082e36:	0dad      	mov.n	a10, a13
40082e38:	130ca0        	wsr.scompare1	a10
40082e3b:	00e982        	s32c1i	a8, a9, 0
40082e3e:	f09d87        	bne	a13, a8, 40082e32 <z_log_msg_post_finalize+0x6>
40082e41:	f5e321        	l32r	a2, 400805d0 <_init_end+0x1d0> (3ffb20dd <panic_mode>)
40082e44:	000222        	l8ui	a2, a2, 0
40082e47:	00e216        	beqz	a2, 40082e59 <z_log_msg_post_finalize+0x2d>
40082e4a:	006320        	rsil	a2, 3
40082e4d:	ffe665        	call8	40082cb4 <z_impl_log_process>
40082e50:	13e620        	wsr.ps	a2
40082e53:	002010        	rsync
40082e56:	000c06        	j	40082e8a <z_log_msg_post_finalize+0x5e>
40082e59:	f5e181        	l32r	a8, 400805e0 <_init_end+0x1e0> (3ffb1dac <proc_tid>)
40082e5c:	002882        	l32i	a8, a8, 0
40082e5f:	027816        	beqz	a8, 40082e8a <z_log_msg_post_finalize+0x5e>
40082e62:	012d56        	bnez	a13, 40082e78 <z_log_msg_post_finalize+0x4c>
40082e65:	71a2c2        	movi	a12, 0x271
40082e68:	11ccc0        	slli	a12, a12, 4
40082e6b:	f5cca1        	l32r	a10, 4008059c <_init_end+0x19c> (3ffb1ca0 <log_process_thread_timer>)
40082e6e:	0ded      	mov.n	a14, a13
40082e70:	0dfd      	mov.n	a15, a13
40082e72:	ff7c25        	call8	40082634 <z_impl_k_timer_start>
40082e75:	000446        	j	40082e8a <z_log_msg_post_finalize+0x5e>
40082e78:	0e9d66        	bnei	a13, 10, 40082e8a <z_log_msg_post_finalize+0x5e>
40082e7b:	f5c8a1        	l32r	a10, 4008059c <_init_end+0x19c> (3ffb1ca0 <log_process_thread_timer>)
40082e7e:	ff8065        	call8	40082684 <z_impl_k_timer_stop>
40082e81:	f5cba1        	l32r	a10, 400805b0 <_init_end+0x1b0> (3ffb07e0 <log_process_thread_sem>)
40082e84:	201110        	or	a1, a1, a1
40082e87:	fea6a5        	call8	400818f0 <z_impl_k_sem_give>
40082e8a:	f01d      	retw.n

40082e8c <z_log_msg_commit>:
40082e8c:	004136        	entry	a1, 32
40082e8f:	f5d181        	l32r	a8, 400805d4 <_init_end+0x1d4> (3ffb0004 <timestamp_func>)
40082e92:	0028a2        	l32i	a10, a8, 0
40082e95:	000ae0        	callx8	a10
40082e98:	0262a2        	s32i	a10, a2, 8
40082e9b:	f5cba1        	l32r	a10, 400805c8 <_init_end+0x1c8> (3ffb0754 <log_buffer>)
40082e9e:	20b220        	or	a11, a2, a2
40082ea1:	4e45e5        	call8	400d1300 <mpsc_pbuf_commit>
40082ea4:	fff865        	call8	40082e2c <z_log_msg_post_finalize>
40082ea7:	f01d      	retw.n
40082ea9:	000000        	ill

40082eac <log_msg_generic_get_wlen>:
40082eac:	004136        	entry	a1, 32
40082eaf:	000292        	l8ui	a9, a2, 0
40082eb2:	080c      	movi.n	a8, 0
40082eb4:	14e927        	bbsi	a9, 2, 40082ecc <log_msg_generic_get_wlen+0x20>
40082eb7:	0298      	l32i.n	a9, a2, 0
40082eb9:	027c      	movi.n	a2, -16
40082ebb:	a48990        	extui	a8, a9, 9, 11
40082ebe:	b59490        	extui	a9, a9, 20, 12
40082ec1:	889a      	add.n	a8, a8, a9
40082ec3:	1fc882        	addi	a8, a8, 31
40082ec6:	108820        	and	a8, a8, a2
40082ec9:	418280        	srli	a8, a8, 2
40082ecc:	082d      	mov.n	a2, a8
40082ece:	f01d      	retw.n

40082ed0 <dummy_timestamp>:
40082ed0:	004136        	entry	a1, 32
40082ed3:	020c      	movi.n	a2, 0
40082ed5:	f01d      	retw.n
	...

40082ed8 <encode_uint>:
40082ed8:	006136        	entry	a1, 48
40082edb:	030492        	l8ui	a9, a4, 3
40082ede:	0129      	s32i.n	a2, a1, 0
40082ee0:	bfc922        	addi	a2, a9, -65
40082ee3:	2159      	s32i.n	a5, a1, 8
40082ee5:	1129      	s32i.n	a2, a1, 4
40082ee7:	6fa022        	movi	a2, 111
40082eea:	047d      	mov.n	a7, a4
40082eec:	850c      	movi.n	a5, 8
40082eee:	1a1927        	beq	a9, a2, 40082f0c <encode_uint+0x34>
40082ef1:	053297        	bltu	a2, a9, 40082efa <encode_uint+0x22>
40082ef4:	a8c992        	addi	a9, a9, -88
40082ef7:	0001c6        	j	40082f02 <encode_uint+0x2a>
40082efa:	727c      	movi.n	a2, -9
40082efc:	109920        	and	a9, a9, a2
40082eff:	90c992        	addi	a9, a9, -112
40082f02:	a20c      	movi.n	a2, 10
40082f04:	081c      	movi.n	a8, 16
40082f06:	205220        	or	a5, a2, a2
40082f09:	835890        	moveqz	a5, a8, a9
40082f0c:	064d      	mov.n	a4, a6
40082f0e:	921c      	movi.n	a2, 25
40082f10:	060c      	movi.n	a6, 0
40082f12:	000106        	j	40082f1a <encode_uint+0x42>
40082f15:	00          	.byte 00
40082f16:	01a9      	s32i.n	a10, a1, 0
40082f18:	0b3d      	mov.n	a3, a11
40082f1a:	01a8      	l32i.n	a10, a1, 0
40082f1c:	05cd      	mov.n	a12, a5
40082f1e:	0d0c      	movi.n	a13, 0
40082f20:	03bd      	mov.n	a11, a3
40082f22:	f5b081        	l32r	a8, 400805e4 <_init_end+0x1e4> (4000d280 <__umoddi3>)
40082f25:	0008e0        	callx8	a8
40082f28:	980c      	movi.n	a8, 9
40082f2a:	74b0a0        	extui	a11, a10, 0, 8
40082f2d:	0538a7        	bltu	a8, a10, 40082f36 <encode_uint+0x5e>
40082f30:	30cbb2        	addi	a11, a11, 48
40082f33:	000346        	j	40082f44 <encode_uint+0x6c>
40082f36:	1188      	l32i.n	a8, a1, 4
40082f38:	57cba2        	addi	a10, a11, 87
40082f3b:	74a0a0        	extui	a10, a10, 0, 8
40082f3e:	053287        	bltu	a2, a8, 40082f47 <encode_uint+0x6f>
40082f41:	37cbb2        	addi	a11, a11, 55
40082f44:	74a0b0        	extui	a10, a11, 0, 8
40082f47:	440b      	addi.n	a4, a4, -1
40082f49:	0044a2        	s8i	a10, a4, 0
40082f4c:	01a8      	l32i.n	a10, a1, 0
40082f4e:	05cd      	mov.n	a12, a5
40082f50:	20d660        	or	a13, a6, a6
40082f53:	20b330        	or	a11, a3, a3
40082f56:	f58181        	l32r	a8, 4008055c <_init_end+0x15c> (4000cff8 <__udivdi3>)
40082f59:	0008e0        	callx8	a8
40082f5c:	049637        	bne	a6, a3, 40082f64 <encode_uint+0x8c>
40082f5f:	0188      	l32i.n	a8, a1, 0
40082f61:	043857        	bltu	a8, a5, 40082f69 <encode_uint+0x91>
40082f64:	2138      	l32i.n	a3, a1, 8
40082f66:	ac3347        	bltu	a3, a4, 40082f16 <encode_uint+0x3e>
40082f69:	001722        	l16ui	a2, a7, 0
40082f6c:	1c6257        	bbci	a2, 5, 40082f8c <encode_uint+0xb4>
40082f6f:	0d8566        	bnei	a5, 8, 40082f80 <encode_uint+0xa8>
40082f72:	020722        	l8ui	a2, a7, 2
40082f75:	202520        	or	a2, a5, a2
40082f78:	024722        	s8i	a2, a7, 2
40082f7b:	000346        	j	40082f8c <encode_uint+0xb4>
40082f7e:	00          	.byte 00
40082f7f:	00          	.byte 00
40082f80:	08b566        	bnei	a5, 16, 40082f8c <encode_uint+0xb4>
40082f83:	020722        	l8ui	a2, a7, 2
40082f86:	208520        	or	a8, a5, a2
40082f89:	024782        	s8i	a8, a7, 2
40082f8c:	042d      	mov.n	a2, a4
40082f8e:	f01d      	retw.n

40082f90 <z_cbvprintf_impl>:
40082f90:	010136        	entry	a1, 128
40082f93:	126132        	s32i	a3, a1, 72
40082f96:	049d      	mov.n	a9, a4
40082f98:	116122        	s32i	a2, a1, 68
40082f9b:	f159      	s32i.n	a5, a1, 60
40082f9d:	c159      	s32i.n	a5, a1, 48
40082f9f:	106162        	s32i	a6, a1, 64
40082fa2:	d169      	s32i.n	a6, a1, 52
40082fa4:	e179      	s32i.n	a7, a1, 56
40082fa6:	074d      	mov.n	a4, a7
40082fa8:	030c      	movi.n	a3, 0
40082faa:	025546        	j	40083903 <z_cbvprintf_impl+0x973>
40082fad:	591b      	addi.n	a5, a9, 1
40082faf:	136152        	s32i	a5, a1, 76
40082fb2:	25a052        	movi	a5, 37
40082fb5:	0e1257        	beq	a2, a5, 40082fc7 <z_cbvprintf_impl+0x37>
40082fb8:	1221b2        	l32i	a11, a1, 72
40082fbb:	112182        	l32i	a8, a1, 68
40082fbe:	20a220        	or	a10, a2, a2
40082fc1:	0008e0        	callx8	a8
40082fc4:	01b886        	j	400836aa <z_cbvprintf_impl+0x71a>
40082fc7:	156192        	s32i	a9, a1, 84
40082fca:	8c1c      	movi.n	a12, 24
40082fcc:	0b0c      	movi.n	a11, 0
40082fce:	20a110        	or	a10, a1, a1
40082fd1:	00c425        	call8	40083c14 <memset>
40082fd4:	152192        	l32i	a9, a1, 84
40082fd7:	010952        	l8ui	a5, a9, 1
40082fda:	0c9527        	bne	a5, a2, 40082fea <z_cbvprintf_impl+0x5a>
40082fdd:	292b      	addi.n	a2, a9, 2
40082fdf:	552c      	movi.n	a5, 37
40082fe1:	136122        	s32i	a2, a1, 76
40082fe4:	0b4152        	s8i	a5, a1, 11
40082fe7:	00f8c6        	j	400833ce <z_cbvprintf_impl+0x43e>
40082fea:	050c      	movi.n	a5, 0
40082fec:	057d      	mov.n	a7, a5
40082fee:	05ad      	mov.n	a10, a5
40082ff0:	05bd      	mov.n	a11, a5
40082ff2:	05cd      	mov.n	a12, a5
40082ff4:	bd2c      	movi.n	a13, 43
40082ff6:	160c      	movi.n	a6, 1
40082ff8:	0e3c      	movi.n	a14, 48
40082ffa:	3f2c      	movi.n	a15, 35
40082ffc:	132182        	l32i	a8, a1, 76
40082fff:	000822        	l8ui	a2, a8, 0
40083002:	6312d7        	beq	a2, a13, 40083069 <z_cbvprintf_impl+0xd9>
40083005:	083d27        	bltu	a13, a2, 40083011 <z_cbvprintf_impl+0x81>
40083008:	62c226        	beqi	a2, 32, 4008306e <z_cbvprintf_impl+0xde>
4008300b:	6512f7        	beq	a2, a15, 40083074 <z_cbvprintf_impl+0xe4>
4008300e:	0001c6        	j	40083019 <z_cbvprintf_impl+0x89>
40083011:	d82c      	movi.n	a8, 45
40083013:	621287        	beq	a2, a8, 40083079 <z_cbvprintf_impl+0xe9>
40083016:	6412e7        	beq	a2, a14, 4008307e <z_cbvprintf_impl+0xee>
40083019:	958c      	beqz.n	a5, 40083026 <z_cbvprintf_impl+0x96>
4008301b:	041152        	l16ui	a5, a1, 8
4008301e:	064c      	movi.n	a6, 64
40083020:	205560        	or	a5, a5, a6
40083023:	045152        	s16i	a5, a1, 8
40083026:	a78c      	beqz.n	a7, 40083034 <z_cbvprintf_impl+0xa4>
40083028:	041152        	l16ui	a5, a1, 8
4008302b:	20a062        	movi	a6, 32
4008302e:	205560        	or	a5, a5, a6
40083031:	045152        	s16i	a5, a1, 8
40083034:	9a8c      	beqz.n	a10, 40083041 <z_cbvprintf_impl+0xb1>
40083036:	041152        	l16ui	a5, a1, 8
40083039:	061c      	movi.n	a6, 16
4008303b:	205560        	or	a5, a5, a6
4008303e:	045152        	s16i	a5, a1, 8
40083041:	9b8c      	beqz.n	a11, 4008304e <z_cbvprintf_impl+0xbe>
40083043:	041152        	l16ui	a5, a1, 8
40083046:	860c      	movi.n	a6, 8
40083048:	205560        	or	a5, a5, a6
4008304b:	045152        	s16i	a5, a1, 8
4008304e:	ac8c      	beqz.n	a12, 4008305c <z_cbvprintf_impl+0xcc>
40083050:	041152        	l16ui	a5, a1, 8
40083053:	04a062        	movi	a6, 4
40083056:	205560        	or	a5, a5, a6
40083059:	045152        	s16i	a5, a1, 8
4008305c:	2158      	l32i.n	a5, a1, 8
4008305e:	464c      	movi.n	a6, 68
40083060:	105650        	and	a5, a6, a5
40083063:	319567        	bne	a5, a6, 40083098 <z_cbvprintf_impl+0x108>
40083066:	000886        	j	4008308c <z_cbvprintf_impl+0xfc>
40083069:	06bd      	mov.n	a11, a6
4008306b:	000446        	j	40083080 <z_cbvprintf_impl+0xf0>
4008306e:	06ad      	mov.n	a10, a6
40083070:	000306        	j	40083080 <z_cbvprintf_impl+0xf0>
40083073:	00          	.byte 00
40083074:	067d      	mov.n	a7, a6
40083076:	000186        	j	40083080 <z_cbvprintf_impl+0xf0>
40083079:	06cd      	mov.n	a12, a6
4008307b:	000046        	j	40083080 <z_cbvprintf_impl+0xf0>
4008307e:	065d      	mov.n	a5, a6
40083080:	132122        	l32i	a2, a1, 76
40083083:	221b      	addi.n	a2, a2, 1
40083085:	136122        	s32i	a2, a1, 76
40083088:	ffdc06        	j	40082ffc <z_cbvprintf_impl+0x6c>
4008308b:	00          	.byte 00
4008308c:	041152        	l16ui	a5, a1, 8
4008308f:	bfaf62        	movi	a6, -65
40083092:	105560        	and	a5, a5, a6
40083095:	045152        	s16i	a5, a1, 8
40083098:	041172        	l16ui	a7, a1, 8
4008309b:	80a052        	movi	a5, 128
4008309e:	207750        	or	a7, a7, a5
400830a1:	045172        	s16i	a7, a1, 8
400830a4:	ab2c      	movi.n	a11, 42
400830a6:	132152        	l32i	a5, a1, 76
400830a9:	060c      	movi.n	a6, 0
400830ab:	9a0c      	movi.n	a10, 9
400830ad:	1b92b7        	bne	a2, a11, 400830cc <z_cbvprintf_impl+0x13c>
400830b0:	00a122        	movi	a2, 0x100
400830b3:	207720        	or	a7, a7, a2
400830b6:	551b      	addi.n	a5, a5, 1
400830b8:	045172        	s16i	a7, a1, 8
400830bb:	000d46        	j	400830f4 <z_cbvprintf_impl+0x164>
400830be:	00          	.byte 00
400830bf:	00          	.byte 00
400830c0:	00          	.byte 00
400830c1:	a06660        	addx4	a6, a6, a6
400830c4:	906620        	addx2	a6, a6, a2
400830c7:	d0c662        	addi	a6, a6, -48
400830ca:	0b5d      	mov.n	a5, a11
400830cc:	000522        	l8ui	a2, a5, 0
400830cf:	b51b      	addi.n	a11, a5, 1
400830d1:	d0c272        	addi	a7, a2, -48
400830d4:	e9ba77        	bgeu	a10, a7, 400830c1 <z_cbvprintf_impl+0x131>
400830d7:	132182        	l32i	a8, a1, 76
400830da:	161857        	beq	a8, a5, 400830f4 <z_cbvprintf_impl+0x164>
400830dd:	041122        	l16ui	a2, a1, 8
400830e0:	3169      	s32i.n	a6, a1, 12
400830e2:	fdaf72        	movi	a7, -3
400830e5:	056f60        	extui	a6, a6, 31, 1
400830e8:	806660        	add	a6, a6, a6
400830eb:	102270        	and	a2, a2, a7
400830ee:	202260        	or	a2, a2, a6
400830f1:	045122        	s16i	a2, a1, 8
400830f4:	0005a2        	l8ui	a10, a5, 0
400830f7:	020c      	movi.n	a2, 0
400830f9:	d2ca62        	addi	a6, a10, -46
400830fc:	170c      	movi.n	a7, 1
400830fe:	937260        	movnez	a7, a2, a6
40083101:	041162        	l16ui	a6, a1, 8
40083104:	ffadb2        	movi	a11, 0xfffffdff
40083107:	117770        	slli	a7, a7, 9
4008310a:	1066b0        	and	a6, a6, a11
4008310d:	206670        	or	a6, a6, a7
40083110:	045162        	s16i	a6, a1, 8
40083113:	e72c      	movi.n	a7, 46
40083115:	509a77        	bne	a10, a7, 40083169 <z_cbvprintf_impl+0x1d9>
40083118:	0105a2        	l8ui	a10, a5, 1
4008311b:	a72c      	movi.n	a7, 42
4008311d:	071a77        	beq	a10, a7, 40083128 <z_cbvprintf_impl+0x198>
40083120:	551b      	addi.n	a5, a5, 1
40083122:	960c      	movi.n	a6, 9
40083124:	000646        	j	40083141 <z_cbvprintf_impl+0x1b1>
40083127:	00          	.byte 00
40083128:	00a422        	movi	a2, 0x400
4008312b:	206620        	or	a6, a6, a2
4008312e:	045162        	s16i	a6, a1, 8
40083131:	552b      	addi.n	a5, a5, 2
40083133:	000c86        	j	40083169 <z_cbvprintf_impl+0x1d9>
40083136:	a02220        	addx4	a2, a2, a2
40083139:	9022a0        	addx2	a2, a2, a10
4008313c:	d0c222        	addi	a2, a2, -48
4008313f:	075d      	mov.n	a5, a7
40083141:	0005a2        	l8ui	a10, a5, 0
40083144:	751b      	addi.n	a7, a5, 1
40083146:	d0cab2        	addi	a11, a10, -48
40083149:	e9b6b7        	bgeu	a6, a11, 40083136 <z_cbvprintf_impl+0x1a6>
4008314c:	2168      	l32i.n	a6, a1, 8
4008314e:	4129      	s32i.n	a2, a1, 16
40083150:	046160        	extui	a6, a6, 1, 1
40083153:	052f20        	extui	a2, a2, 31, 1
40083156:	202620        	or	a2, a6, a2
40083159:	041162        	l16ui	a6, a1, 8
4008315c:	d77c      	movi.n	a7, -3
4008315e:	222a      	add.n	a2, a2, a2
40083160:	106670        	and	a6, a6, a7
40083163:	202620        	or	a2, a6, a2
40083166:	045122        	s16i	a2, a1, 8
40083169:	000562        	l8ui	a6, a5, 0
4008316c:	6ca022        	movi	a2, 108
4008316f:	511627        	beq	a6, a2, 400831c4 <z_cbvprintf_impl+0x234>
40083172:	163267        	bltu	a2, a6, 4008318c <z_cbvprintf_impl+0x1fc>
40083175:	68a022        	movi	a2, 104
40083178:	201627        	beq	a6, a2, 4008319c <z_cbvprintf_impl+0x20c>
4008317b:	6aa022        	movi	a2, 106
4008317e:	671627        	beq	a6, a2, 400831e9 <z_cbvprintf_impl+0x259>
40083181:	c24c      	movi.n	a2, 76
40083183:	029627        	bne	a6, a2, 40083189 <z_cbvprintf_impl+0x1f9>
40083186:	002486        	j	4008321c <z_cbvprintf_impl+0x28c>
40083189:	002786        	j	4008322b <z_cbvprintf_impl+0x29b>
4008318c:	74a022        	movi	a2, 116
4008318f:	761627        	beq	a6, a2, 40083209 <z_cbvprintf_impl+0x279>
40083192:	7aa022        	movi	a2, 122
40083195:	5f1627        	beq	a6, a2, 400831f8 <z_cbvprintf_impl+0x268>
40083198:	0023c6        	j	4008322b <z_cbvprintf_impl+0x29b>
4008319b:	00          	.byte 00
4008319c:	0411a2        	l16ui	a10, a1, 8
4008319f:	f51421        	l32r	a2, 400805f0 <_init_end+0x1f0> (ffff87ff <_rtc_bss_end+0xafff87ff>)
400831a2:	0105b2        	l8ui	a11, a5, 1
400831a5:	170c      	movi.n	a7, 1
400831a7:	1022a0        	and	a2, a2, a10
400831aa:	069b67        	bne	a11, a6, 400831b4 <z_cbvprintf_impl+0x224>
400831ad:	116750        	slli	a6, a7, 11
400831b0:	000906        	j	400831d8 <z_cbvprintf_impl+0x248>
400831b3:	00          	.byte 00
400831b4:	116740        	slli	a6, a7, 12
400831b7:	202260        	or	a2, a2, a6
400831ba:	045122        	s16i	a2, a1, 8
400831bd:	551b      	addi.n	a5, a5, 1
400831bf:	001a06        	j	4008322b <z_cbvprintf_impl+0x29b>
400831c2:	00          	.byte 00
400831c3:	00          	.byte 00
400831c4:	041172        	l16ui	a7, a1, 8
400831c7:	f50a21        	l32r	a2, 400805f0 <_init_end+0x1f0> (ffff87ff <_rtc_bss_end+0xafff87ff>)
400831ca:	0105a2        	l8ui	a10, a5, 1
400831cd:	102270        	and	a2, a2, a7
400831d0:	109a67        	bne	a10, a6, 400831e4 <z_cbvprintf_impl+0x254>
400831d3:	160c      	movi.n	a6, 1
400831d5:	116630        	slli	a6, a6, 13
400831d8:	202260        	or	a2, a2, a6
400831db:	045122        	s16i	a2, a1, 8
400831de:	552b      	addi.n	a5, a5, 2
400831e0:	0011c6        	j	4008322b <z_cbvprintf_impl+0x29b>
400831e3:	00          	.byte 00
400831e4:	360c      	movi.n	a6, 3
400831e6:	000a86        	j	40083214 <z_cbvprintf_impl+0x284>
400831e9:	f50161        	l32r	a6, 400805f0 <_init_end+0x1f0> (ffff87ff <_rtc_bss_end+0xafff87ff>)
400831ec:	041122        	l16ui	a2, a1, 8
400831ef:	102260        	and	a2, a2, a6
400831f2:	560c      	movi.n	a6, 5
400831f4:	000706        	j	40083214 <z_cbvprintf_impl+0x284>
400831f7:	00          	.byte 00
400831f8:	f4fe61        	l32r	a6, 400805f0 <_init_end+0x1f0> (ffff87ff <_rtc_bss_end+0xafff87ff>)
400831fb:	041122        	l16ui	a2, a1, 8
400831fe:	102260        	and	a2, a2, a6
40083201:	360c      	movi.n	a6, 3
40083203:	116640        	slli	a6, a6, 12
40083206:	ffeb46        	j	400831b7 <z_cbvprintf_impl+0x227>
40083209:	f4f961        	l32r	a6, 400805f0 <_init_end+0x1f0> (ffff87ff <_rtc_bss_end+0xafff87ff>)
4008320c:	041122        	l16ui	a2, a1, 8
4008320f:	102260        	and	a2, a2, a6
40083212:	760c      	movi.n	a6, 7
40083214:	116650        	slli	a6, a6, 11
40083217:	ffe706        	j	400831b7 <z_cbvprintf_impl+0x227>
4008321a:	00          	.byte 00
4008321b:	00          	.byte 00
4008321c:	f4f661        	l32r	a6, 400805f4 <_init_end+0x1f4> (ffff87fd <_rtc_bss_end+0xafff87fd>)
4008321f:	041122        	l16ui	a2, a1, 8
40083222:	102260        	and	a2, a2, a6
40083225:	f4f461        	l32r	a6, 400805f8 <_init_end+0x1f8> (4002 <CONFIG_COVERAGE_GCOV_HEAP_SIZE+0x2>)
40083228:	ffe2c6        	j	400831b7 <z_cbvprintf_impl+0x227>
4008322b:	251b      	addi.n	a2, a5, 1
4008322d:	136122        	s32i	a2, a1, 76
40083230:	000522        	l8ui	a2, a5, 0
40083233:	78a052        	movi	a5, 120
40083236:	0b4122        	s8i	a2, a1, 11
40083239:	02b527        	bgeu	a5, a2, 4008323f <z_cbvprintf_impl+0x2af>
4008323c:	005946        	j	400833a5 <z_cbvprintf_impl+0x415>
4008323f:	6da052        	movi	a5, 109
40083242:	243527        	bltu	a5, a2, 4008326a <z_cbvprintf_impl+0x2da>
40083245:	69a052        	movi	a5, 105
40083248:	02b527        	bgeu	a5, a2, 4008324e <z_cbvprintf_impl+0x2be>
4008324b:	005586        	j	400833a5 <z_cbvprintf_impl+0x415>
4008324e:	755c      	movi.n	a5, 87
40083250:	3c3527        	bltu	a5, a2, 40083290 <z_cbvprintf_impl+0x300>
40083253:	154c      	movi.n	a5, 65
40083255:	029257        	bne	a2, a5, 4008325b <z_cbvprintf_impl+0x2cb>
40083258:	003906        	j	40083340 <z_cbvprintf_impl+0x3b0>
4008325b:	bbc222        	addi	a2, a2, -69
4008325e:	742020        	extui	a2, a2, 0, 8
40083261:	0232b6        	bltui	a2, 3, 40083267 <z_cbvprintf_impl+0x2d7>
40083264:	004f46        	j	400833a5 <z_cbvprintf_impl+0x415>
40083267:	003546        	j	40083340 <z_cbvprintf_impl+0x3b0>
4008326a:	92c222        	addi	a2, a2, -110
4008326d:	150c      	movi.n	a5, 1
4008326f:	401200        	ssl	a2
40083272:	a12500        	sll	a2, a5
40083275:	82a4a2        	movi	a10, 0x482
40083278:	10a2a0        	and	a10, a2, a10
4008327b:	061a56        	bnez	a10, 400832e0 <z_cbvprintf_impl+0x350>
4008327e:	472c      	movi.n	a7, 36
40083280:	107270        	and	a7, a2, a7
40083283:	0f5756        	bnez	a7, 4008337c <z_cbvprintf_impl+0x3ec>
40083286:	02e207        	bbsi	a2, 0, 4008328c <z_cbvprintf_impl+0x2fc>
40083289:	004606        	j	400833a5 <z_cbvprintf_impl+0x415>
4008328c:	003146        	j	40083355 <z_cbvprintf_impl+0x3c5>
4008328f:	00          	.byte 00
40083290:	a8c262        	addi	a6, a2, -88
40083293:	150c      	movi.n	a5, 1
40083295:	401600        	ssl	a6
40083298:	a17500        	sll	a7, a5
4008329b:	71a062        	movi	a6, 113
4008329e:	116670        	slli	a6, a6, 9
400832a1:	020767        	bnone	a7, a6, 400832a7 <z_cbvprintf_impl+0x317>
400832a4:	002606        	j	40083340 <z_cbvprintf_impl+0x3b0>
400832a7:	f4d561        	l32r	a6, 400805fc <_init_end+0x1fc> (801 <CONFIG_ISR_STACK_SIZE+0x1>)
400832aa:	4a8767        	bany	a7, a6, 400832f8 <z_cbvprintf_impl+0x368>
400832ad:	122c      	movi.n	a2, 33
400832af:	112240        	slli	a2, a2, 12
400832b2:	028727        	bany	a7, a2, 400832b8 <z_cbvprintf_impl+0x328>
400832b5:	003b06        	j	400833a5 <z_cbvprintf_impl+0x415>
400832b8:	0a0122        	l8ui	a2, a1, 10
400832bb:	867c      	movi.n	a6, -8
400832bd:	102260        	and	a2, a2, a6
400832c0:	202250        	or	a2, a2, a5
400832c3:	041162        	l16ui	a6, a1, 8
400832c6:	f4ce71        	l32r	a7, 40080600 <_init_end+0x200> (4000 <CONFIG_COVERAGE_GCOV_HEAP_SIZE>)
400832c9:	0a4122        	s8i	a2, a1, 10
400832cc:	f20c      	movi.n	a2, 15
400832ce:	112250        	slli	a2, a2, 11
400832d1:	102260        	and	a2, a2, a6
400832d4:	f47070        	extui	a7, a7, 0, 16
400832d7:	151277        	beq	a2, a7, 400832f0 <z_cbvprintf_impl+0x360>
400832da:	020c      	movi.n	a2, 0
400832dc:	0034c6        	j	400833b3 <z_cbvprintf_impl+0x423>
400832df:	00          	.byte 00
400832e0:	0a0122        	l8ui	a2, a1, 10
400832e3:	867c      	movi.n	a6, -8
400832e5:	102260        	and	a2, a2, a6
400832e8:	260c      	movi.n	a6, 2
400832ea:	202260        	or	a2, a2, a6
400832ed:	fff486        	j	400832c3 <z_cbvprintf_impl+0x333>
400832f0:	202560        	or	a2, a5, a6
400832f3:	002d86        	j	400833ad <z_cbvprintf_impl+0x41d>
400832f6:	00          	.byte 00
400832f7:	00          	.byte 00
400832f8:	0a0162        	l8ui	a6, a1, 10
400832fb:	877c      	movi.n	a7, -8
400832fd:	106670        	and	a6, a6, a7
40083300:	02a072        	movi	a7, 2
40083303:	206670        	or	a6, a6, a7
40083306:	0411a2        	l16ui	a10, a1, 8
40083309:	f4bd71        	l32r	a7, 40080600 <_init_end+0x200> (4000 <CONFIG_COVERAGE_GCOV_HEAP_SIZE>)
4008330c:	0a4162        	s8i	a6, a1, 10
4008330f:	0fa062        	movi	a6, 15
40083312:	116650        	slli	a6, a6, 11
40083315:	1066a0        	and	a6, a6, a10
40083318:	f47070        	extui	a7, a7, 0, 16
4008331b:	059677        	bne	a6, a7, 40083324 <z_cbvprintf_impl+0x394>
4008331e:	2055a0        	or	a5, a5, a10
40083321:	045152        	s16i	a5, a1, 8
40083324:	63a052        	movi	a5, 99
40083327:	af9257        	bne	a2, a5, 400832da <z_cbvprintf_impl+0x34a>
4008332a:	041152        	l16ui	a5, a1, 8
4008332d:	f20c      	movi.n	a2, 15
4008332f:	112250        	slli	a2, a2, 11
40083332:	105250        	and	a5, a2, a5
40083335:	060c      	movi.n	a6, 0
40083337:	120c      	movi.n	a2, 1
40083339:	832650        	moveqz	a2, a6, a5
4008333c:	001706        	j	4008339c <z_cbvprintf_impl+0x40c>
4008333f:	00          	.byte 00
40083340:	0a0122        	l8ui	a2, a1, 10
40083343:	857c      	movi.n	a5, -8
40083345:	102250        	and	a2, a2, a5
40083348:	450c      	movi.n	a5, 4
4008334a:	202250        	or	a2, a2, a5
4008334d:	0a4122        	s8i	a2, a1, 10
40083350:	120c      	movi.n	a2, 1
40083352:	001746        	j	400833b3 <z_cbvprintf_impl+0x423>
40083355:	0a0122        	l8ui	a2, a1, 10
40083358:	867c      	movi.n	a6, -8
4008335a:	102260        	and	a2, a2, a6
4008335d:	360c      	movi.n	a6, 3
4008335f:	202260        	or	a2, a2, a6
40083362:	0a4122        	s8i	a2, a1, 10
40083365:	041162        	l16ui	a6, a1, 8
40083368:	f20c      	movi.n	a2, 15
4008336a:	112250        	slli	a2, a2, 11
4008336d:	102260        	and	a2, a2, a6
40083370:	c0d262        	addmi	a6, a2, 0xffffc000
40083373:	072d      	mov.n	a2, a7
40083375:	832560        	moveqz	a2, a5, a6
40083378:	000dc6        	j	400833b3 <z_cbvprintf_impl+0x423>
4008337b:	00          	.byte 00
4008337c:	0a0122        	l8ui	a2, a1, 10
4008337f:	867c      	movi.n	a6, -8
40083381:	102260        	and	a2, a2, a6
40083384:	360c      	movi.n	a6, 3
40083386:	202260        	or	a2, a2, a6
40083389:	0a4122        	s8i	a2, a1, 10
4008338c:	041162        	l16ui	a6, a1, 8
4008338f:	f20c      	movi.n	a2, 15
40083391:	112250        	slli	a2, a2, 11
40083394:	106260        	and	a6, a2, a6
40083397:	0a2d      	mov.n	a2, a10
40083399:	932560        	movnez	a2, a5, a6
4008339c:	742020        	extui	a2, a2, 0, 8
4008339f:	000406        	j	400833b3 <z_cbvprintf_impl+0x423>
400833a2:	00          	.byte 00
400833a3:	00          	.byte 00
400833a4:	00          	.byte 00
400833a5:	041122        	l16ui	a2, a1, 8
400833a8:	150c      	movi.n	a5, 1
400833aa:	202250        	or	a2, a2, a5
400833ad:	045122        	s16i	a2, a1, 8
400833b0:	ffc986        	j	400832da <z_cbvprintf_impl+0x34a>
400833b3:	2158      	l32i.n	a5, a1, 8
400833b5:	d67c      	movi.n	a6, -3
400833b7:	045150        	extui	a5, a5, 1, 1
400833ba:	202520        	or	a2, a5, a2
400833bd:	041152        	l16ui	a5, a1, 8
400833c0:	042020        	extui	a2, a2, 0, 1
400833c3:	222a      	add.n	a2, a2, a2
400833c5:	105560        	and	a5, a5, a6
400833c8:	202520        	or	a2, a5, a2
400833cb:	045122        	s16i	a2, a1, 8
400833ce:	041122        	l16ui	a2, a1, 8
400833d1:	336287        	bbci	a2, 8, 40083408 <z_cbvprintf_impl+0x478>
400833d4:	544b      	addi.n	a5, a4, 4
400833d6:	821c      	movi.n	a2, 24
400833d8:	0ca257        	bge	a2, a5, 400833e8 <z_cbvprintf_impl+0x458>
400833db:	012247        	blt	a2, a4, 400833e0 <z_cbvprintf_impl+0x450>
400833de:	452c      	movi.n	a5, 36
400833e0:	f128      	l32i.n	a2, a1, 60
400833e2:	054d      	mov.n	a4, a5
400833e4:	000146        	j	400833ed <z_cbvprintf_impl+0x45d>
400833e7:	00          	.byte 00
400833e8:	102122        	l32i	a2, a1, 64
400833eb:	054d      	mov.n	a4, a5
400833ed:	225a      	add.n	a2, a2, a5
400833ef:	fcc222        	addi	a2, a2, -4
400833f2:	0258      	l32i.n	a5, a2, 0
400833f4:	0185d6        	bgez	a5, 40083410 <z_cbvprintf_impl+0x480>
400833f7:	041122        	l16ui	a2, a1, 8
400833fa:	460c      	movi.n	a6, 4
400833fc:	202260        	or	a2, a2, a6
400833ff:	045122        	s16i	a2, a1, 8
40083402:	605050        	neg	a5, a5
40083405:	0001c6        	j	40083410 <z_cbvprintf_impl+0x480>
40083408:	f57c      	movi.n	a5, -1
4008340a:	026277        	bbci	a2, 7, 40083410 <z_cbvprintf_impl+0x480>
4008340d:	032152        	l32i	a5, a1, 12
40083410:	041162        	l16ui	a6, a1, 8
40083413:	3266a7        	bbci	a6, 10, 40083449 <z_cbvprintf_impl+0x4b9>
40083416:	644b      	addi.n	a6, a4, 4
40083418:	821c      	movi.n	a2, 24
4008341a:	0ba267        	bge	a2, a6, 40083429 <z_cbvprintf_impl+0x499>
4008341d:	012247        	blt	a2, a4, 40083422 <z_cbvprintf_impl+0x492>
40083420:	462c      	movi.n	a6, 36
40083422:	f128      	l32i.n	a2, a1, 60
40083424:	064d      	mov.n	a4, a6
40083426:	000106        	j	4008342e <z_cbvprintf_impl+0x49e>
40083429:	102122        	l32i	a2, a1, 64
4008342c:	064d      	mov.n	a4, a6
4008342e:	226a      	add.n	a2, a2, a6
40083430:	fcc222        	addi	a2, a2, -4
40083433:	0228      	l32i.n	a2, a2, 0
40083435:	0172d6        	bgez	a2, 40083450 <z_cbvprintf_impl+0x4c0>
40083438:	041122        	l16ui	a2, a1, 8
4008343b:	ffad62        	movi	a6, 0xfffffdff
4008343e:	102260        	and	a2, a2, a6
40083441:	045122        	s16i	a2, a1, 8
40083444:	f27c      	movi.n	a2, -1
40083446:	000186        	j	40083450 <z_cbvprintf_impl+0x4c0>
40083449:	f27c      	movi.n	a2, -1
4008344b:	016697        	bbci	a6, 9, 40083450 <z_cbvprintf_impl+0x4c0>
4008344e:	4128      	l32i.n	a2, a1, 16
40083450:	21f8      	l32i.n	a15, a1, 8
40083452:	060c      	movi.n	a6, 0
40083454:	3169      	s32i.n	a6, a1, 12
40083456:	4169      	s32i.n	a6, a1, 16
40083458:	2570f0        	extui	a7, a15, 16, 3
4008345b:	346bf0        	extui	a6, a15, 11, 4
4008345e:	021726        	beqi	a7, 1, 40083464 <z_cbvprintf_impl+0x4d4>
40083461:	002806        	j	40083505 <z_cbvprintf_impl+0x575>
40083464:	025666        	bnei	a6, 5, 4008346a <z_cbvprintf_impl+0x4da>
40083467:	004646        	j	40083584 <z_cbvprintf_impl+0x5f4>
4008346a:	0b66f6        	bgeui	a6, 6, 40083479 <z_cbvprintf_impl+0x4e9>
4008346d:	353626        	beqi	a6, 3, 400834a6 <z_cbvprintf_impl+0x516>
40083470:	024666        	bnei	a6, 4, 40083476 <z_cbvprintf_impl+0x4e6>
40083473:	004346        	j	40083584 <z_cbvprintf_impl+0x5f4>
40083476:	0001c6        	j	40083481 <z_cbvprintf_impl+0x4f1>
40083479:	76ab      	addi.n	a7, a6, 10
4008347b:	347070        	extui	a7, a7, 0, 4
4008347e:	4027b6        	bltui	a7, 2, 400834c2 <z_cbvprintf_impl+0x532>
40083481:	a44b      	addi.n	a10, a4, 4
40083483:	8b1c      	movi.n	a11, 24
40083485:	102172        	l32i	a7, a1, 64
40083488:	06aba7        	bge	a11, a10, 40083492 <z_cbvprintf_impl+0x502>
4008348b:	012b47        	blt	a11, a4, 40083490 <z_cbvprintf_impl+0x500>
4008348e:	4a2c      	movi.n	a10, 36
40083490:	f178      	l32i.n	a7, a1, 60
40083492:	77aa      	add.n	a7, a7, a10
40083494:	fcc772        	addi	a7, a7, -4
40083497:	0778      	l32i.n	a7, a7, 0
40083499:	318f70        	srai	a8, a7, 31
4008349c:	0179      	s32i.n	a7, a1, 0
4008349e:	1189      	s32i.n	a8, a1, 4
400834a0:	4c1666        	bnei	a6, 1, 400834f0 <z_cbvprintf_impl+0x560>
400834a3:	001006        	j	400834e7 <z_cbvprintf_impl+0x557>
400834a6:	a44b      	addi.n	a10, a4, 4
400834a8:	8b1c      	movi.n	a11, 24
400834aa:	102172        	l32i	a7, a1, 64
400834ad:	07aba7        	bge	a11, a10, 400834b8 <z_cbvprintf_impl+0x528>
400834b0:	022b47        	blt	a11, a4, 400834b6 <z_cbvprintf_impl+0x526>
400834b3:	24a0a2        	movi	a10, 36
400834b6:	f178      	l32i.n	a7, a1, 60
400834b8:	77aa      	add.n	a7, a7, a10
400834ba:	fcc772        	addi	a7, a7, -4
400834bd:	0778      	l32i.n	a7, a7, 0
400834bf:	000e06        	j	400834fb <z_cbvprintf_impl+0x56b>
400834c2:	744b      	addi.n	a7, a4, 4
400834c4:	8a1c      	movi.n	a10, 24
400834c6:	0eaa77        	bge	a10, a7, 400834d8 <z_cbvprintf_impl+0x548>
400834c9:	012a47        	blt	a10, a4, 400834ce <z_cbvprintf_impl+0x53e>
400834cc:	472c      	movi.n	a7, 36
400834ce:	f148      	l32i.n	a4, a1, 60
400834d0:	847a      	add.n	a8, a4, a7
400834d2:	fcc882        	addi	a8, a8, -4
400834d5:	000106        	j	400834dd <z_cbvprintf_impl+0x54d>
400834d8:	1021a2        	l32i	a10, a1, 64
400834db:	8a4a      	add.n	a8, a10, a4
400834dd:	0888      	l32i.n	a8, a8, 0
400834df:	0189      	s32i.n	a8, a1, 0
400834e1:	318f80        	srai	a8, a8, 31
400834e4:	002186        	j	4008356e <z_cbvprintf_impl+0x5de>
400834e7:	000172        	l8ui	a7, a1, 0
400834ea:	237700        	sext	a7, a7, 7
400834ed:	000286        	j	400834fb <z_cbvprintf_impl+0x56b>
400834f0:	042626        	beqi	a6, 2, 400834f8 <z_cbvprintf_impl+0x568>
400834f3:	0053c6        	j	40083646 <z_cbvprintf_impl+0x6b6>
400834f6:	00          	.byte 00
400834f7:	00          	.byte 00
400834f8:	237780        	sext	a7, a7, 15
400834fb:	0179      	s32i.n	a7, a1, 0
400834fd:	317f70        	srai	a7, a7, 31
40083500:	1179      	s32i.n	a7, a1, 4
40083502:	005006        	j	40083646 <z_cbvprintf_impl+0x6b6>
40083505:	022726        	beqi	a7, 2, 4008350b <z_cbvprintf_impl+0x57b>
40083508:	003706        	j	400835e8 <z_cbvprintf_impl+0x658>
4008350b:	755626        	beqi	a6, 5, 40083584 <z_cbvprintf_impl+0x5f4>
4008350e:	0866f6        	bgeui	a6, 6, 4008351a <z_cbvprintf_impl+0x58a>
40083511:	333626        	beqi	a6, 3, 40083548 <z_cbvprintf_impl+0x5b8>
40083514:	6c4626        	beqi	a6, 4, 40083584 <z_cbvprintf_impl+0x5f4>
40083517:	000286        	j	40083525 <z_cbvprintf_impl+0x595>
4008351a:	76ab      	addi.n	a7, a6, 10
4008351c:	347070        	extui	a7, a7, 0, 4
4008351f:	0227f6        	bgeui	a7, 2, 40083525 <z_cbvprintf_impl+0x595>
40083522:	0021c6        	j	400835ad <z_cbvprintf_impl+0x61d>
40083525:	744b      	addi.n	a7, a4, 4
40083527:	8b1c      	movi.n	a11, 24
40083529:	1021a2        	l32i	a10, a1, 64
4008352c:	06ab77        	bge	a11, a7, 40083536 <z_cbvprintf_impl+0x5a6>
4008352f:	012b47        	blt	a11, a4, 40083534 <z_cbvprintf_impl+0x5a4>
40083532:	472c      	movi.n	a7, 36
40083534:	f1a8      	l32i.n	a10, a1, 60
40083536:	aa7a      	add.n	a10, a10, a7
40083538:	fccaa2        	addi	a10, a10, -4
4008353b:	0a88      	l32i.n	a8, a10, 0
4008353d:	0a0c      	movi.n	a10, 0
4008353f:	021666        	bnei	a6, 1, 40083545 <z_cbvprintf_impl+0x5b5>
40083542:	002086        	j	400835c8 <z_cbvprintf_impl+0x638>
40083545:	002346        	j	400835d6 <z_cbvprintf_impl+0x646>
40083548:	0b01b2        	l8ui	a11, a1, 11
4008354b:	63a0a2        	movi	a10, 99
4008354e:	744b      	addi.n	a7, a4, 4
40083550:	209ba7        	bne	a11, a10, 40083574 <z_cbvprintf_impl+0x5e4>
40083553:	8b1c      	movi.n	a11, 24
40083555:	1021a2        	l32i	a10, a1, 64
40083558:	06ab77        	bge	a11, a7, 40083562 <z_cbvprintf_impl+0x5d2>
4008355b:	012b47        	blt	a11, a4, 40083560 <z_cbvprintf_impl+0x5d0>
4008355e:	472c      	movi.n	a7, 36
40083560:	f1a8      	l32i.n	a10, a1, 60
40083562:	aa7a      	add.n	a10, a10, a7
40083564:	fccaa2        	addi	a10, a10, -4
40083567:	001a82        	l16ui	a8, a10, 0
4008356a:	0189      	s32i.n	a8, a1, 0
4008356c:	080c      	movi.n	a8, 0
4008356e:	1189      	s32i.n	a8, a1, 4
40083570:	0016c6        	j	400835cf <z_cbvprintf_impl+0x63f>
40083573:	00          	.byte 00
40083574:	4b1c      	movi.n	a11, 20
40083576:	1021a2        	l32i	a10, a1, 64
40083579:	41ab47        	bge	a11, a4, 400835be <z_cbvprintf_impl+0x62e>
4008357c:	8a1c      	movi.n	a10, 24
4008357e:	3a2a47        	blt	a10, a4, 400835bc <z_cbvprintf_impl+0x62c>
40083581:	000d46        	j	400835ba <z_cbvprintf_impl+0x62a>
40083584:	a47b      	addi.n	a10, a4, 7
40083586:	877c      	movi.n	a7, -8
40083588:	10aa70        	and	a10, a10, a7
4008358b:	4a8b      	addi.n	a4, a10, 8
4008358d:	8b1c      	movi.n	a11, 24
4008358f:	102172        	l32i	a7, a1, 64
40083592:	06ab47        	bge	a11, a4, 4008359c <z_cbvprintf_impl+0x60c>
40083595:	012ba7        	blt	a11, a10, 4008359a <z_cbvprintf_impl+0x60a>
40083598:	842c      	movi.n	a4, 40
4008359a:	f178      	l32i.n	a7, a1, 60
4008359c:	774a      	add.n	a7, a7, a4
4008359e:	f8c772        	addi	a7, a7, -8
400835a1:	07a8      	l32i.n	a10, a7, 0
400835a3:	17b8      	l32i.n	a11, a7, 4
400835a5:	01a9      	s32i.n	a10, a1, 0
400835a7:	11b9      	s32i.n	a11, a1, 4
400835a9:	0026c6        	j	40083648 <z_cbvprintf_impl+0x6b8>
400835ac:	00          	.byte 00
400835ad:	744b      	addi.n	a7, a4, 4
400835af:	8b1c      	movi.n	a11, 24
400835b1:	1021a2        	l32i	a10, a1, 64
400835b4:	06ab77        	bge	a11, a7, 400835be <z_cbvprintf_impl+0x62e>
400835b7:	012b47        	blt	a11, a4, 400835bc <z_cbvprintf_impl+0x62c>
400835ba:	472c      	movi.n	a7, 36
400835bc:	f1a8      	l32i.n	a10, a1, 60
400835be:	aa7a      	add.n	a10, a10, a7
400835c0:	fccaa2        	addi	a10, a10, -4
400835c3:	0a88      	l32i.n	a8, a10, 0
400835c5:	ffe846        	j	4008356a <z_cbvprintf_impl+0x5da>
400835c8:	748080        	extui	a8, a8, 0, 8
400835cb:	0189      	s32i.n	a8, a1, 0
400835cd:	11a9      	s32i.n	a10, a1, 4
400835cf:	074d      	mov.n	a4, a7
400835d1:	001cc6        	j	40083648 <z_cbvprintf_impl+0x6b8>
400835d4:	00          	.byte 00
400835d5:	00          	.byte 00
400835d6:	0189      	s32i.n	a8, a1, 0
400835d8:	11a9      	s32i.n	a10, a1, 4
400835da:	022626        	beqi	a6, 2, 400835e0 <z_cbvprintf_impl+0x650>
400835dd:	fffb86        	j	400835cf <z_cbvprintf_impl+0x63f>
400835e0:	f48080        	extui	a8, a8, 0, 16
400835e3:	0189      	s32i.n	a8, a1, 0
400835e5:	fff986        	j	400835cf <z_cbvprintf_impl+0x63f>
400835e8:	3c4766        	bnei	a7, 4, 40083628 <z_cbvprintf_impl+0x698>
400835eb:	a47b      	addi.n	a10, a4, 7
400835ed:	877c      	movi.n	a7, -8
400835ef:	10aa70        	and	a10, a10, a7
400835f2:	4a8b      	addi.n	a4, a10, 8
400835f4:	0d8666        	bnei	a6, 8, 40083605 <z_cbvprintf_impl+0x675>
400835f7:	8b1c      	movi.n	a11, 24
400835f9:	102172        	l32i	a7, a1, 64
400835fc:	16ab47        	bge	a11, a4, 40083616 <z_cbvprintf_impl+0x686>
400835ff:	112ba7        	blt	a11, a10, 40083614 <z_cbvprintf_impl+0x684>
40083602:	000306        	j	40083612 <z_cbvprintf_impl+0x682>
40083605:	0b1c      	movi.n	a11, 16
40083607:	102172        	l32i	a7, a1, 64
4008360a:	08aba7        	bge	a11, a10, 40083616 <z_cbvprintf_impl+0x686>
4008360d:	871c      	movi.n	a7, 24
4008360f:	0127a7        	blt	a7, a10, 40083614 <z_cbvprintf_impl+0x684>
40083612:	842c      	movi.n	a4, 40
40083614:	f178      	l32i.n	a7, a1, 60
40083616:	774a      	add.n	a7, a7, a4
40083618:	f8c772        	addi	a7, a7, -8
4008361b:	07a8      	l32i.n	a10, a7, 0
4008361d:	17b8      	l32i.n	a11, a7, 4
4008361f:	01a9      	s32i.n	a10, a1, 0
40083621:	11b9      	s32i.n	a11, a1, 4
40083623:	000846        	j	40083648 <z_cbvprintf_impl+0x6b8>
40083626:	00          	.byte 00
40083627:	00          	.byte 00
40083628:	1c3766        	bnei	a7, 3, 40083648 <z_cbvprintf_impl+0x6b8>
4008362b:	a44b      	addi.n	a10, a4, 4
4008362d:	8b1c      	movi.n	a11, 24
4008362f:	102172        	l32i	a7, a1, 64
40083632:	06aba7        	bge	a11, a10, 4008363c <z_cbvprintf_impl+0x6ac>
40083635:	012b47        	blt	a11, a4, 4008363a <z_cbvprintf_impl+0x6aa>
40083638:	4a2c      	movi.n	a10, 36
4008363a:	f178      	l32i.n	a7, a1, 60
4008363c:	77aa      	add.n	a7, a7, a10
4008363e:	fcc772        	addi	a7, a7, -4
40083641:	0778      	l32i.n	a7, a7, 0
40083643:	006172        	s32i	a7, a1, 0
40083646:	0a4d      	mov.n	a4, a10
40083648:	14f0f0        	extui	a15, a15, 0, 2
4008364b:	017f16        	beqz	a15, 40083666 <z_cbvprintf_impl+0x6d6>
4008364e:	1321d2        	l32i	a13, a1, 76
40083651:	1221b2        	l32i	a11, a1, 72
40083654:	1121a2        	l32i	a10, a1, 68
40083657:	20c990        	or	a12, a9, a9
4008365a:	002ba5        	call8	40083914 <outs>
4008365d:	2aca96        	bltz	a10, 4008390d <z_cbvprintf_impl+0x97d>
40083660:	8033a0        	add	a3, a3, a10
40083663:	00a646        	j	40083900 <z_cbvprintf_impl+0x970>
40083666:	0b01a2        	l8ui	a10, a1, 11
40083669:	78a072        	movi	a7, 120
4008366c:	02b7a7        	bgeu	a7, a10, 40083672 <z_cbvprintf_impl+0x6e2>
4008366f:	00a346        	j	40083900 <z_cbvprintf_impl+0x970>
40083672:	62a072        	movi	a7, 98
40083675:	0f37a7        	bltu	a7, a10, 40083688 <z_cbvprintf_impl+0x6f8>
40083678:	562c      	movi.n	a6, 37
4008367a:	231a67        	beq	a10, a6, 400836a1 <z_cbvprintf_impl+0x711>
4008367d:	865c      	movi.n	a6, 88
4008367f:	029a67        	bne	a10, a6, 40083685 <z_cbvprintf_impl+0x6f5>
40083682:	002486        	j	40083718 <z_cbvprintf_impl+0x788>
40083685:	009dc6        	j	40083900 <z_cbvprintf_impl+0x970>
40083688:	9dcaa2        	addi	a10, a10, -99
4008368b:	74a0a0        	extui	a10, a10, 0, 8
4008368e:	571c      	movi.n	a7, 21
40083690:	02b7a7        	bgeu	a7, a10, 40083696 <z_cbvprintf_impl+0x706>
40083693:	009a46        	j	40083900 <z_cbvprintf_impl+0x970>
40083696:	f3db71        	l32r	a7, 40080604 <_init_end+0x204> (3ffb05ac <levels$0+0x20>)
40083699:	a0aa70        	addx4	a10, a10, a7
4008369c:	0a78      	l32i.n	a7, a10, 0
4008369e:	0007a0        	jx	a7
400836a1:	1221b2        	l32i	a11, a1, 72
400836a4:	112122        	l32i	a2, a1, 68
400836a7:	0002e0        	callx8	a2
400836aa:	25fa96        	bltz	a10, 4008390d <z_cbvprintf_impl+0x97d>
400836ad:	331b      	addi.n	a3, a3, 1
400836af:	009346        	j	40083900 <z_cbvprintf_impl+0x970>
400836b2:	002162        	l32i	a6, a1, 0
400836b5:	00b296        	bltz	a2, 400836c4 <z_cbvprintf_impl+0x734>
400836b8:	20b220        	or	a11, a2, a2
400836bb:	20a660        	or	a10, a6, a6
400836be:	004d65        	call8	40083b94 <strnlen>
400836c1:	000146        	j	400836ca <z_cbvprintf_impl+0x73a>
400836c4:	20a660        	or	a10, a6, a6
400836c7:	004b65        	call8	40083b7c <strlen>
400836ca:	8076a0        	add	a7, a6, a10
400836cd:	00a0f2        	movi	a15, 0
400836d0:	108656        	bnez	a6, 400837dc <z_cbvprintf_impl+0x84c>
400836d3:	008a46        	j	40083900 <z_cbvprintf_impl+0x970>
400836d6:	0128      	l32i.n	a2, a1, 0
400836d8:	18c162        	addi	a6, a1, 24
400836db:	184122        	s8i	a2, a1, 24
400836de:	19c172        	addi	a7, a1, 25
400836e1:	0f0c      	movi.n	a15, 0
400836e3:	1a0c      	movi.n	a10, 1
400836e5:	003cc6        	j	400837dc <z_cbvprintf_impl+0x84c>
400836e8:	041162        	l16ui	a6, a1, 8
400836eb:	bf2c      	movi.n	a15, 43
400836ed:	05e637        	bbsi	a6, 3, 400836f6 <z_cbvprintf_impl+0x766>
400836f0:	046460        	extui	a6, a6, 4, 1
400836f3:	11f6b0        	slli	a15, a6, 5
400836f6:	1168      	l32i.n	a6, a1, 4
400836f8:	01a8      	l32i.n	a10, a1, 0
400836fa:	01a6d6        	bgez	a6, 40083718 <z_cbvprintf_impl+0x788>
400836fd:	60a0a0        	neg	a10, a10
40083700:	170c      	movi.n	a7, 1
40083702:	0b0c      	movi.n	a11, 0
40083704:	837ba0        	moveqz	a7, a11, a10
40083707:	606060        	neg	a6, a6
4008370a:	c06670        	sub	a6, a6, a7
4008370d:	01a9      	s32i.n	a10, a1, 0
4008370f:	1169      	s32i.n	a6, a1, 4
40083711:	df2c      	movi.n	a15, 45
40083713:	000046        	j	40083718 <z_cbvprintf_impl+0x788>
40083716:	0f0c      	movi.n	a15, 0
40083718:	0021a2        	l32i	a10, a1, 0
4008371b:	0121b2        	l32i	a11, a1, 4
4008371e:	1661f2        	s32i	a15, a1, 88
40083721:	2ec1e2        	addi	a14, a1, 46
40083724:	18c1d2        	addi	a13, a1, 24
40083727:	08c1c2        	addi	a12, a1, 8
4008372a:	ff7ae5        	call8	40082ed8 <encode_uint>
4008372d:	1621f2        	l32i	a15, a1, 88
40083730:	0a6d      	mov.n	a6, a10
40083732:	086296        	bltz	a2, 400837bc <z_cbvprintf_impl+0x82c>
40083735:	0411a2        	l16ui	a10, a1, 8
40083738:	bfafb2        	movi	a11, -65
4008373b:	2ec172        	addi	a7, a1, 46
4008373e:	10aab0        	and	a10, a10, a11
40083741:	c07760        	sub	a7, a7, a6
40083744:	0451a2        	s16i	a10, a1, 8
40083747:	71b727        	bgeu	a7, a2, 400837bc <z_cbvprintf_impl+0x82c>
4008374a:	c07270        	sub	a7, a2, a7
4008374d:	3179      	s32i.n	a7, a1, 12
4008374f:	001a46        	j	400837bc <z_cbvprintf_impl+0x82c>
40083752:	0021a2        	l32i	a10, a1, 0
40083755:	077a16        	beqz	a10, 400837d0 <z_cbvprintf_impl+0x840>
40083758:	2ec172        	addi	a7, a1, 46
4008375b:	00a0b2        	movi	a11, 0
4008375e:	20e770        	or	a14, a7, a7
40083761:	18c1d2        	addi	a13, a1, 24
40083764:	c18b      	addi.n	a12, a1, 8
40083766:	ff7725        	call8	40082ed8 <encode_uint>
40083769:	0a6d      	mov.n	a6, a10
4008376b:	0511a2        	l16ui	a10, a1, 10
4008376e:	efa0b2        	movi	a11, 239
40083771:	10aab0        	and	a10, a10, a11
40083774:	81a7b2        	movi	a11, 0x781
40083777:	11bbc0        	slli	a11, a11, 4
4008377a:	20aab0        	or	a10, a10, a11
4008377d:	0551a2        	s16i	a10, a1, 10
40083780:	0f0c      	movi.n	a15, 0
40083782:	afa2f7        	bge	a2, a15, 40083735 <z_cbvprintf_impl+0x7a5>
40083785:	c0a760        	sub	a10, a7, a6
40083788:	5096f7        	bne	a6, a15, 400837dc <z_cbvprintf_impl+0x84c>
4008378b:	005c46        	j	40083900 <z_cbvprintf_impl+0x970>
4008378e:	0128      	l32i.n	a2, a1, 0
40083790:	0286b6        	bltui	a6, 8, 40083796 <z_cbvprintf_impl+0x806>
40083793:	005a46        	j	40083900 <z_cbvprintf_impl+0x970>
40083796:	f39c51        	l32r	a5, 40080608 <_init_end+0x208> (3ffb0604 <levels$0+0x78>)
40083799:	a06650        	addx4	a6, a6, a5
4008379c:	0658      	l32i.n	a5, a6, 0
4008379e:	0005a0        	jx	a5
400837a1:	004232        	s8i	a3, a2, 0
400837a4:	005606        	j	40083900 <z_cbvprintf_impl+0x970>
400837a7:	005232        	s16i	a3, a2, 0
400837aa:	005486        	j	40083900 <z_cbvprintf_impl+0x970>
400837ad:	315f30        	srai	a5, a3, 31
400837b0:	0239      	s32i.n	a3, a2, 0
400837b2:	1259      	s32i.n	a5, a2, 4
400837b4:	005206        	j	40083900 <z_cbvprintf_impl+0x970>
400837b7:	0239      	s32i.n	a3, a2, 0
400837b9:	0050c6        	j	40083900 <z_cbvprintf_impl+0x970>
400837bc:	140616        	beqz	a6, 40083900 <z_cbvprintf_impl+0x970>
400837bf:	2ec122        	addi	a2, a1, 46
400837c2:	c0a260        	sub	a10, a2, a6
400837c5:	027d      	mov.n	a7, a2
400837c7:	1f9c      	beqz.n	a15, 400837dc <z_cbvprintf_impl+0x84c>
400837c9:	aa1b      	addi.n	a10, a10, 1
400837cb:	000346        	j	400837dc <z_cbvprintf_impl+0x84c>
400837ce:	00          	.byte 00
400837cf:	00          	.byte 00
400837d0:	f38661        	l32r	a6, 400805e8 <_init_end+0x1e8> (3ffb0624 <levels$0+0x98>)
400837d3:	f38671        	l32r	a7, 400805ec <_init_end+0x1ec> (3ffb0629 <levels$0+0x9d>)
400837d6:	20faa0        	or	a15, a10, a10
400837d9:	05a0a2        	movi	a10, 5
400837dc:	0a01b2        	l8ui	a11, a1, 10
400837df:	021c      	movi.n	a2, 16
400837e1:	102b20        	and	a2, a11, a2
400837e4:	146122        	s32i	a2, a1, 80
400837e7:	528c      	beqz.n	a2, 400837f0 <z_cbvprintf_impl+0x860>
400837e9:	aa2b      	addi.n	a10, a10, 2
400837eb:	000186        	j	400837f5 <z_cbvprintf_impl+0x865>
400837ee:	00          	.byte 00
400837ef:	00          	.byte 00
400837f0:	016b37        	bbci	a11, 3, 400837f5 <z_cbvprintf_impl+0x865>
400837f3:	aa1b      	addi.n	a10, a10, 1
400837f5:	3128      	l32i.n	a2, a1, 12
400837f7:	aa2a      	add.n	a10, a10, a2
400837f9:	036b67        	bbci	a11, 6, 40083800 <z_cbvprintf_impl+0x870>
400837fc:	41b8      	l32i.n	a11, a1, 16
400837fe:	aaba      	add.n	a10, a10, a11
40083800:	6c15a6        	blti	a5, 1, 40083870 <z_cbvprintf_impl+0x8e0>
40083803:	21c8      	l32i.n	a12, a1, 8
40083805:	c055a0        	sub	a5, a5, a10
40083808:	04c2c0        	extui	a12, a12, 2, 1
4008380b:	061c56        	bnez	a12, 40083870 <z_cbvprintf_impl+0x8e0>
4008380e:	0411a2        	l16ui	a10, a1, 8
40083811:	436a67        	bbci	a10, 6, 40083858 <z_cbvprintf_impl+0x8c8>
40083814:	046f16        	beqz	a15, 4008385e <z_cbvprintf_impl+0x8ce>
40083817:	1221b2        	l32i	a11, a1, 72
4008381a:	112182        	l32i	a8, a1, 68
4008381d:	1761c2        	s32i	a12, a1, 92
40083820:	0fad      	mov.n	a10, a15
40083822:	0008e0        	callx8	a8
40083825:	1721c2        	l32i	a12, a1, 92
40083828:	0e1a96        	bltz	a10, 4008390d <z_cbvprintf_impl+0x97d>
4008382b:	331b      	addi.n	a3, a3, 1
4008382d:	0d3c      	movi.n	a13, 48
4008382f:	0cfd      	mov.n	a15, a12
40083831:	000ac6        	j	40083860 <z_cbvprintf_impl+0x8d0>
40083834:	1221b2        	l32i	a11, a1, 72
40083837:	112182        	l32i	a8, a1, 68
4008383a:	0dad      	mov.n	a10, a13
4008383c:	1761c2        	s32i	a12, a1, 92
4008383f:	1561d2        	s32i	a13, a1, 84
40083842:	1661f2        	s32i	a15, a1, 88
40083845:	0008e0        	callx8	a8
40083848:	1721c2        	l32i	a12, a1, 92
4008384b:	1521d2        	l32i	a13, a1, 84
4008384e:	1621f2        	l32i	a15, a1, 88
40083851:	00dad6        	bgez	a10, 40083862 <z_cbvprintf_impl+0x8d2>
40083854:	002d46        	j	4008390d <z_cbvprintf_impl+0x97d>
40083857:	00          	.byte 00
40083858:	0d2c      	movi.n	a13, 32
4008385a:	000086        	j	40083860 <z_cbvprintf_impl+0x8d0>
4008385d:	00          	.byte 00
4008385e:	0d3c      	movi.n	a13, 48
40083860:	05cd      	mov.n	a12, a5
40083862:	0cad      	mov.n	a10, a12
40083864:	cc0b      	addi.n	a12, a12, -1
40083866:	ca1ae6        	bgei	a10, 1, 40083834 <z_cbvprintf_impl+0x8a4>
40083869:	953a      	add.n	a9, a5, a3
4008386b:	c039a0        	sub	a3, a9, a10
4008386e:	0c5d      	mov.n	a5, a12
40083870:	ef8c      	beqz.n	a15, 40083882 <z_cbvprintf_impl+0x8f2>
40083872:	1221b2        	l32i	a11, a1, 72
40083875:	112182        	l32i	a8, a1, 68
40083878:	0fad      	mov.n	a10, a15
4008387a:	0008e0        	callx8	a8
4008387d:	08ca96        	bltz	a10, 4008390d <z_cbvprintf_impl+0x97d>
40083880:	331b      	addi.n	a3, a3, 1
40083882:	21a8      	l32i.n	a10, a1, 8
40083884:	02fa47        	bbsi	a10, 20, 4008388a <z_cbvprintf_impl+0x8fa>
40083887:	0f7a37        	bbci	a10, 19, 4008389a <z_cbvprintf_impl+0x90a>
4008388a:	1221b2        	l32i	a11, a1, 72
4008388d:	112182        	l32i	a8, a1, 68
40083890:	0a3c      	movi.n	a10, 48
40083892:	0008e0        	callx8	a8
40083895:	074a96        	bltz	a10, 4008390d <z_cbvprintf_impl+0x97d>
40083898:	331b      	addi.n	a3, a3, 1
4008389a:	142182        	l32i	a8, a1, 80
4008389d:	78ac      	beqz.n	a8, 400838c8 <z_cbvprintf_impl+0x938>
4008389f:	1221b2        	l32i	a11, a1, 72
400838a2:	0b01a2        	l8ui	a10, a1, 11
400838a5:	112182        	l32i	a8, a1, 68
400838a8:	0008e0        	callx8	a8
400838ab:	05ea96        	bltz	a10, 4008390d <z_cbvprintf_impl+0x97d>
400838ae:	331b      	addi.n	a3, a3, 1
400838b0:	000506        	j	400838c8 <z_cbvprintf_impl+0x938>
400838b3:	00          	.byte 00
400838b4:	00          	.byte 00
400838b5:	1221b2        	l32i	a11, a1, 72
400838b8:	112182        	l32i	a8, a1, 68
400838bb:	0a3c      	movi.n	a10, 48
400838bd:	0008e0        	callx8	a8
400838c0:	049a96        	bltz	a10, 4008390d <z_cbvprintf_impl+0x97d>
400838c3:	331b      	addi.n	a3, a3, 1
400838c5:	000086        	j	400838cb <z_cbvprintf_impl+0x93b>
400838c8:	802230        	add	a2, a2, a3
400838cb:	c0a230        	sub	a10, a2, a3
400838ce:	e31ae6        	bgei	a10, 1, 400838b5 <z_cbvprintf_impl+0x925>
400838d1:	1221b2        	l32i	a11, a1, 72
400838d4:	1121a2        	l32i	a10, a1, 68
400838d7:	20d770        	or	a13, a7, a7
400838da:	20c660        	or	a12, a6, a6
400838dd:	000365        	call8	40083914 <outs>
400838e0:	029a96        	bltz	a10, 4008390d <z_cbvprintf_impl+0x97d>
400838e3:	3a3a      	add.n	a3, a10, a3
400838e5:	553a      	add.n	a5, a5, a3
400838e7:	0003c6        	j	400838fa <z_cbvprintf_impl+0x96a>
400838ea:	1221b2        	l32i	a11, a1, 72
400838ed:	112122        	l32i	a2, a1, 68
400838f0:	0a2c      	movi.n	a10, 32
400838f2:	0002e0        	callx8	a2
400838f5:	014a96        	bltz	a10, 4008390d <z_cbvprintf_impl+0x97d>
400838f8:	331b      	addi.n	a3, a3, 1
400838fa:	c02530        	sub	a2, a5, a3
400838fd:	e912e6        	bgei	a2, 1, 400838ea <z_cbvprintf_impl+0x95a>
40083900:	132192        	l32i	a9, a1, 76
40083903:	000922        	l8ui	a2, a9, 0
40083906:	128c      	beqz.n	a2, 4008390b <z_cbvprintf_impl+0x97b>
40083908:	fda846        	j	40082fad <z_cbvprintf_impl+0x1d>
4008390b:	03ad      	mov.n	a10, a3
4008390d:	0a2d      	mov.n	a2, a10
4008390f:	f01d      	retw.n
40083911:	000000        	ill

40083914 <outs>:
40083914:	004136        	entry	a1, 32
40083917:	046d      	mov.n	a6, a4
40083919:	000306        	j	40083929 <outs+0x15>
4008391c:	0006a2        	l8ui	a10, a6, 0
4008391f:	03bd      	mov.n	a11, a3
40083921:	0002e0        	callx8	a2
40083924:	661b      	addi.n	a6, a6, 1
40083926:	013a96        	bltz	a10, 4008393d <outs+0x29>
40083929:	ef3657        	bltu	a6, a5, 4008391c <outs+0x8>
4008392c:	458c      	beqz.n	a5, 40083934 <outs+0x20>
4008392e:	c0a640        	sub	a10, a6, a4
40083931:	000206        	j	4008393d <outs+0x29>
40083934:	000682        	l8ui	a8, a6, 0
40083937:	fe1856        	bnez	a8, 4008391c <outs+0x8>
4008393a:	fffc06        	j	4008392e <outs+0x1a>
4008393d:	0a2d      	mov.n	a2, a10
4008393f:	f01d      	retw.n
40083941:	000000        	ill

40083944 <printk>:
40083944:	00c136        	entry	a1, 96
40083947:	20c1c2        	addi	a12, a1, 32
4008394a:	40c1b2        	addi	a11, a1, 64
4008394d:	04a0d2        	movi	a13, 4
40083950:	096132        	s32i	a3, a1, 36
40083953:	0a6142        	s32i	a4, a1, 40
40083956:	b159      	s32i.n	a5, a1, 44
40083958:	c169      	s32i.n	a6, a1, 48
4008395a:	d179      	s32i.n	a7, a1, 52
4008395c:	02ad      	mov.n	a10, a2
4008395e:	41c9      	s32i.n	a12, a1, 16
40083960:	31b9      	s32i.n	a11, a1, 12
40083962:	51d9      	s32i.n	a13, a1, 20
40083964:	01b9      	s32i.n	a11, a1, 0
40083966:	11c9      	s32i.n	a12, a1, 4
40083968:	21d9      	s32i.n	a13, a1, 8
4008396a:	ff1ea5        	call8	40082b54 <z_log_vprintk>
4008396d:	f01d      	retw.n
	...

40083970 <z_cbprintf_cpy>:
40083970:	004136        	entry	a1, 32
40083973:	0224a2        	l32i	a10, a4, 8
40083976:	012482        	l32i	a8, a4, 4
40083979:	20b220        	or	a11, a2, a2
4008397c:	c088a0        	sub	a8, a8, a10
4008397f:	426c      	movi.n	a2, -28
40083981:	103837        	bltu	a8, a3, 40083995 <z_cbprintf_cpy+0x25>
40083984:	0488      	l32i.n	a8, a4, 0
40083986:	03cd      	mov.n	a12, a3
40083988:	a8aa      	add.n	a10, a8, a10
4008398a:	002225        	call8	40083bac <memcpy>
4008398d:	2488      	l32i.n	a8, a4, 8
4008398f:	032d      	mov.n	a2, a3
40083991:	883a      	add.n	a8, a8, a3
40083993:	2489      	s32i.n	a8, a4, 8
40083995:	f01d      	retw.n
	...

40083998 <z_log_msg_finalize>:
40083998:	004136        	entry	a1, 32
4008399b:	05bd      	mov.n	a11, a5
4008399d:	82cc      	bnez.n	a2, 400839a9 <z_log_msg_finalize+0x11>
4008399f:	02ad      	mov.n	a10, a2
400839a1:	ff1fe5        	call8	40082ba0 <z_log_dropped>
400839a4:	000706        	j	400839c4 <z_log_msg_finalize+0x2c>
400839a7:	00          	.byte 00
400839a8:	00          	.byte 00
400839a9:	00e516        	beqz	a5, 400839bb <z_log_msg_finalize+0x23>
400839ac:	10c2a2        	addi	a10, a2, 16
400839af:	a48940        	extui	a8, a4, 9, 11
400839b2:	b5c440        	extui	a12, a4, 20, 12
400839b5:	80aa80        	add	a10, a10, a8
400839b8:	001f25        	call8	40083bac <memcpy>
400839bb:	0249      	s32i.n	a4, a2, 0
400839bd:	1239      	s32i.n	a3, a2, 4
400839bf:	02ad      	mov.n	a10, a2
400839c1:	ff4ca5        	call8	40082e8c <z_log_msg_commit>
400839c4:	f01d      	retw.n
	...

400839c8 <z_impl_z_log_msg_static_create>:
400839c8:	00c136        	entry	a1, 96
400839cb:	207110        	or	a7, a1, a1
400839ce:	0d6722        	s32i	a2, a7, 52
400839d1:	0e6752        	s32i	a5, a7, 56
400839d4:	a45930        	extui	a5, a3, 9, 11
400839d7:	b52430        	extui	a2, a3, 20, 12
400839da:	0c7516        	beqz	a5, 40083aa5 <z_impl_z_log_msg_static_create+0xdd>
400839dd:	060c      	movi.n	a6, 0
400839df:	c759      	s32i.n	a5, a7, 48
400839e1:	4769      	s32i.n	a6, a7, 16
400839e3:	5769      	s32i.n	a6, a7, 20
400839e5:	6769      	s32i.n	a6, a7, 24
400839e7:	450c      	movi.n	a5, 4
400839e9:	0159      	s32i.n	a5, a1, 0
400839eb:	c7b8      	l32i.n	a11, a7, 48
400839ed:	1cc7f2        	addi	a15, a7, 28
400839f0:	ae0c      	movi.n	a14, 10
400839f2:	10c7d2        	addi	a13, a7, 16
400839f5:	06cd      	mov.n	a12, a6
400839f7:	04ad      	mov.n	a10, a4
400839f9:	4ce465        	call8	400d0840 <cbprintf_package_convert>
400839fc:	ffa752        	movi	a5, 0x7ff
400839ff:	0abd      	mov.n	a11, a10
40083a01:	53b5a7        	bgeu	a5, a10, 40083a58 <z_impl_z_log_msg_static_create+0x90>
40083a04:	050422        	l8ui	a2, a4, 5
40083a07:	040432        	l8ui	a3, a4, 4
40083a0a:	112280        	slli	a2, a2, 8
40083a0d:	202230        	or	a2, a2, a3
40083a10:	060432        	l8ui	a3, a4, 6
40083a13:	113300        	slli	a3, a3, 16
40083a16:	203320        	or	a3, a3, a2
40083a19:	070422        	l8ui	a2, a4, 7
40083a1c:	d0c142        	addi	a4, a1, -48
40083a1f:	012280        	slli	a2, a2, 24
40083a22:	202230        	or	a2, a2, a3
40083a25:	013d      	mov.n	a3, a1
40083a27:	001410        	movsp	a1, a4
40083a2a:	10c1c2        	addi	a12, a1, 16
40083a2d:	6c29      	s32i.n	a2, a12, 24
40083a2f:	00a222        	movi	a2, 0x200
40083a32:	f2f641        	l32r	a4, 4008060c <_init_end+0x20c> (3f400bb5 <gpio_esp32_driver_api+0x109>)
40083a35:	105c22        	s16i	a2, a12, 32
40083a38:	f2ae21        	l32r	a2, 400804f0 <_init_end+0xf0> (1000004 <CONFIG_FLASH_SIZE+0xc00004>)
40083a3b:	9b4c      	movi.n	a11, 73
40083a3d:	5c49      	s32i.n	a4, a12, 20
40083a3f:	7c59      	s32i.n	a5, a12, 28
40083a41:	4c29      	s32i.n	a2, a12, 16
40083a43:	11bb90        	slli	a11, a11, 7
40083a46:	f2f2a1        	l32r	a10, 40080610 <_init_end+0x210> (3ffb0820 <log_const_log>)
40083a49:	06dd      	mov.n	a13, a6
40083a4b:	10ccc2        	addi	a12, a12, 16
40083a4e:	fff7a5        	call8	400839c8 <z_impl_z_log_msg_static_create>
40083a51:	001310        	movsp	a1, a3
40083a54:	001d06        	j	40083acc <z_impl_z_log_msg_static_create+0x104>
40083a57:	00          	.byte 00
40083a58:	f2efc1        	l32r	a12, 40080614 <_init_end+0x214> (fff001ff <_rtc_bss_end+0xaff001ff>)
40083a5b:	a450a0        	extui	a5, a10, 0, 11
40083a5e:	11a570        	slli	a10, a5, 9
40083a61:	1033c0        	and	a3, a3, a12
40083a64:	2033a0        	or	a3, a3, a10
40083a67:	1fc2a2        	addi	a10, a2, 31
40083a6a:	80aab0        	add	a10, a10, a11
40083a6d:	f0af22        	movi	a2, -16
40083a70:	10aa20        	and	a10, a10, a2
40083a73:	f7b9      	s32i.n	a11, a7, 60
40083a75:	41a2a0        	srli	a10, a10, 2
40083a78:	ff1ee5        	call8	40082c68 <z_log_msg_alloc>
40083a7b:	f7b8      	l32i.n	a11, a7, 60
40083a7d:	0a2d      	mov.n	a2, a10
40083a7f:	2abc      	beqz.n	a10, 40083ab5 <z_impl_z_log_msg_static_create+0xed>
40083a81:	10caa2        	addi	a10, a10, 16
40083a84:	47a9      	s32i.n	a10, a7, 16
40083a86:	57b9      	s32i.n	a11, a7, 20
40083a88:	6769      	s32i.n	a6, a7, 24
40083a8a:	460c      	movi.n	a6, 4
40083a8c:	0169      	s32i.n	a6, a1, 0
40083a8e:	f2e2c1        	l32r	a12, 40080618 <_init_end+0x218> (40083970 <z_cbprintf_cpy>)
40083a91:	c7b8      	l32i.n	a11, a7, 48
40083a93:	1cc7f2        	addi	a15, a7, 28
40083a96:	ae0c      	movi.n	a14, 10
40083a98:	10c7d2        	addi	a13, a7, 16
40083a9b:	04ad      	mov.n	a10, a4
40083a9d:	4cda25        	call8	400d0840 <cbprintf_package_convert>
40083aa0:	000446        	j	40083ab5 <z_impl_z_log_msg_static_create+0xed>
40083aa3:	00          	.byte 00
40083aa4:	00          	.byte 00
40083aa5:	1fc2a2        	addi	a10, a2, 31
40083aa8:	027c      	movi.n	a2, -16
40083aaa:	10aa20        	and	a10, a10, a2
40083aad:	41a2a0        	srli	a10, a10, 2
40083ab0:	ff1b65        	call8	40082c68 <z_log_msg_alloc>
40083ab3:	0a2d      	mov.n	a2, a10
40083ab5:	f2d741        	l32r	a4, 40080614 <_init_end+0x214> (fff001ff <_rtc_bss_end+0xaff001ff>)
40083ab8:	115570        	slli	a5, a5, 9
40083abb:	10c340        	and	a12, a3, a4
40083abe:	e7d8      	l32i.n	a13, a7, 56
40083ac0:	0d27b2        	l32i	a11, a7, 52
40083ac3:	20cc50        	or	a12, a12, a5
40083ac6:	20a220        	or	a10, a2, a2
40083ac9:	ffece5        	call8	40083998 <z_log_msg_finalize>
40083acc:	f01d      	retw.n
	...

40083ad0 <z_impl_z_log_msg_runtime_vcreate>:
40083ad0:	00a136        	entry	a1, 80
40083ad3:	142182        	l32i	a8, a1, 80
40083ad6:	00a092        	movi	a9, 0
40083ad9:	742020        	extui	a2, a2, 0, 8
40083adc:	744040        	extui	a4, a4, 0, 8
40083adf:	231897        	beq	a8, a9, 40083b06 <z_impl_z_log_msg_runtime_vcreate+0x36>
40083ae2:	1521c2        	l32i	a12, a1, 84
40083ae5:	1621b2        	l32i	a11, a1, 88
40083ae8:	1721a2        	l32i	a10, a1, 92
40083aeb:	41c9      	s32i.n	a12, a1, 16
40083aed:	51b9      	s32i.n	a11, a1, 20
40083aef:	61a9      	s32i.n	a10, a1, 24
40083af1:	01c9      	s32i.n	a12, a1, 0
40083af3:	11b9      	s32i.n	a11, a1, 4
40083af5:	21a9      	s32i.n	a10, a1, 8
40083af7:	08dd      	mov.n	a13, a8
40083af9:	09ad      	mov.n	a10, a9
40083afb:	20c770        	or	a12, a7, a7
40083afe:	10a0b2        	movi	a11, 16
40083b01:	4c9225        	call8	400d0424 <cbvprintf_package>
40083b04:	0a9d      	mov.n	a9, a10
40083b06:	244040        	extui	a4, a4, 0, 3
40083b09:	242020        	extui	a2, a2, 0, 3
40083b0c:	1144a0        	slli	a4, a4, 6
40083b0f:	1122d0        	slli	a2, a2, 3
40083b12:	ffa7a2        	movi	a10, 0x7ff
40083b15:	202420        	or	a2, a4, a2
40083b18:	11aa70        	slli	a10, a10, 9
40083b1b:	114970        	slli	a4, a9, 9
40083b1e:	1044a0        	and	a4, a4, a10
40083b21:	202240        	or	a2, a2, a4
40083b24:	1fc6a2        	addi	a10, a6, 31
40083b27:	0146c0        	slli	a4, a6, 20
40083b2a:	aa9a      	add.n	a10, a10, a9
40083b2c:	202240        	or	a2, a2, a4
40083b2f:	047c      	movi.n	a4, -16
40083b31:	10aa40        	and	a10, a10, a4
40083b34:	8199      	s32i.n	a9, a1, 32
40083b36:	41a2a0        	srli	a10, a10, 2
40083b39:	ff12e5        	call8	40082c68 <z_log_msg_alloc>
40083b3c:	8198      	l32i.n	a9, a1, 32
40083b3e:	0a4d      	mov.n	a4, a10
40083b40:	ea9c      	beqz.n	a10, 40083b62 <z_impl_z_log_msg_runtime_vcreate+0x92>
40083b42:	142162        	l32i	a6, a1, 80
40083b45:	969c      	beqz.n	a6, 40083b62 <z_impl_z_log_msg_runtime_vcreate+0x92>
40083b47:	152182        	l32i	a8, a1, 84
40083b4a:	1621a2        	l32i	a10, a1, 88
40083b4d:	0189      	s32i.n	a8, a1, 0
40083b4f:	172182        	l32i	a8, a1, 92
40083b52:	11a9      	s32i.n	a10, a1, 4
40083b54:	2189      	s32i.n	a8, a1, 8
40083b56:	06dd      	mov.n	a13, a6
40083b58:	07cd      	mov.n	a12, a7
40083b5a:	09bd      	mov.n	a11, a9
40083b5c:	10c4a2        	addi	a10, a4, 16
40083b5f:	4c8c65        	call8	400d0424 <cbvprintf_package>
40083b62:	20d550        	or	a13, a5, a5
40083b65:	20c220        	or	a12, a2, a2
40083b68:	20b330        	or	a11, a3, a3
40083b6b:	04ad      	mov.n	a10, a4
40083b6d:	ffe2a5        	call8	40083998 <z_log_msg_finalize>
40083b70:	f01d      	retw.n
	...

40083b74 <__start>:
40083b74:	004136        	entry	a1, 32
40083b77:	fcaa65        	call8	4008061c <__esp_platform_start>
40083b7a:	f01d      	retw.n

40083b7c <strlen>:
40083b7c:	004136        	entry	a1, 32
40083b7f:	080c      	movi.n	a8, 0
40083b81:	000046        	j	40083b86 <strlen+0xa>
40083b84:	881b      	addi.n	a8, a8, 1
40083b86:	928a      	add.n	a9, a2, a8
40083b88:	000992        	l8ui	a9, a9, 0
40083b8b:	ff5956        	bnez	a9, 40083b84 <strlen+0x8>
40083b8e:	082d      	mov.n	a2, a8
40083b90:	f01d      	retw.n
	...

40083b94 <strnlen>:
40083b94:	004136        	entry	a1, 32
40083b97:	080c      	movi.n	a8, 0
40083b99:	000046        	j	40083b9e <strnlen+0xa>
40083b9c:	881b      	addi.n	a8, a8, 1
40083b9e:	928a      	add.n	a9, a2, a8
40083ba0:	000992        	l8ui	a9, a9, 0
40083ba3:	198c      	beqz.n	a9, 40083ba8 <strnlen+0x14>
40083ba5:	f33837        	bltu	a8, a3, 40083b9c <strnlen+0x8>
40083ba8:	082d      	mov.n	a2, a8
40083baa:	f01d      	retw.n

40083bac <memcpy>:
40083bac:	004136        	entry	a1, 32
40083baf:	308230        	xor	a8, a2, a3
40083bb2:	148080        	extui	a8, a8, 0, 2
40083bb5:	38dc      	bnez.n	a8, 40083bcc <memcpy+0x20>
40083bb7:	028d      	mov.n	a8, a2
40083bb9:	000946        	j	40083be2 <memcpy+0x36>
40083bbc:	419240        	srli	a9, a4, 2
40083bbf:	1199e0        	slli	a9, a9, 2
40083bc2:	c04490        	sub	a4, a4, a9
40083bc5:	889a      	add.n	a8, a8, a9
40083bc7:	339a      	add.n	a3, a3, a9
40083bc9:	000046        	j	40083bce <memcpy+0x22>
40083bcc:	028d      	mov.n	a8, a2
40083bce:	090c      	movi.n	a9, 0
40083bd0:	000e46        	j	40083c0d <memcpy+0x61>
40083bd3:	00          	.byte 00
40083bd4:	84bc      	beqz.n	a4, 40083c10 <memcpy+0x64>
40083bd6:	000392        	l8ui	a9, a3, 0
40083bd9:	440b      	addi.n	a4, a4, -1
40083bdb:	004892        	s8i	a9, a8, 0
40083bde:	331b      	addi.n	a3, a3, 1
40083be0:	881b      	addi.n	a8, a8, 1
40083be2:	149080        	extui	a9, a8, 0, 2
40083be5:	feb956        	bnez	a9, 40083bd4 <memcpy+0x28>
40083be8:	000286        	j	40083bf6 <memcpy+0x4a>
40083beb:	00          	.byte 00
40083bec:	b39a      	add.n	a11, a3, a9
40083bee:	0bb8      	l32i.n	a11, a11, 0
40083bf0:	a89a      	add.n	a10, a8, a9
40083bf2:	0ab9      	s32i.n	a11, a10, 0
40083bf4:	994b      	addi.n	a9, a9, 4
40083bf6:	c0a490        	sub	a10, a4, a9
40083bf9:	ef4af6        	bgeui	a10, 4, 40083bec <memcpy+0x40>
40083bfc:	ffef06        	j	40083bbc <memcpy+0x10>
40083bff:	00          	.byte 00
40083c00:	00          	.byte 00
40083c01:	b39a      	add.n	a11, a3, a9
40083c03:	000bb2        	l8ui	a11, a11, 0
40083c06:	a89a      	add.n	a10, a8, a9
40083c08:	004ab2        	s8i	a11, a10, 0
40083c0b:	991b      	addi.n	a9, a9, 1
40083c0d:	f09497        	bne	a4, a9, 40083c01 <memcpy+0x55>
40083c10:	f01d      	retw.n
	...

40083c14 <memset>:
40083c14:	004136        	entry	a1, 32
40083c17:	74b030        	extui	a11, a3, 0, 8
40083c1a:	028d      	mov.n	a8, a2
40083c1c:	000286        	j	40083c2a <memset+0x16>
40083c1f:	00          	.byte 00
40083c20:	041416        	beqz	a4, 40083c65 <memset+0x51>
40083c23:	0048b2        	s8i	a11, a8, 0
40083c26:	440b      	addi.n	a4, a4, -1
40083c28:	881b      	addi.n	a8, a8, 1
40083c2a:	14a080        	extui	a10, a8, 0, 2
40083c2d:	089d      	mov.n	a9, a8
40083c2f:	feda56        	bnez	a10, 40083c20 <memset+0xc>
40083c32:	743030        	extui	a3, a3, 0, 8
40083c35:	11a380        	slli	a10, a3, 8
40083c38:	aa3a      	add.n	a10, a10, a3
40083c3a:	113a00        	slli	a3, a10, 16
40083c3d:	aa3a      	add.n	a10, a10, a3
40083c3f:	413240        	srli	a3, a4, 2
40083c42:	11c3e0        	slli	a12, a3, 2
40083c45:	a03380        	addx4	a3, a3, a8
40083c48:	000106        	j	40083c50 <memset+0x3c>
40083c4b:	00          	.byte 00
40083c4c:	08a9      	s32i.n	a10, a8, 0
40083c4e:	884b      	addi.n	a8, a8, 4
40083c50:	f89837        	bne	a8, a3, 40083c4c <memset+0x38>
40083c53:	89ca      	add.n	a8, a9, a12
40083c55:	144040        	extui	a4, a4, 0, 2
40083c58:	448a      	add.n	a4, a4, a8
40083c5a:	000106        	j	40083c62 <memset+0x4e>
40083c5d:	0048b2        	s8i	a11, a8, 0
40083c60:	881b      	addi.n	a8, a8, 1
40083c62:	f79847        	bne	a8, a4, 40083c5d <memset+0x49>
40083c65:	f01d      	retw.n
	...

Disassembly of section .flash.text:

400d0020 <_image_irom_vaddr>:
400d0020:	3ffb0000 	
400d0024:	3f400ad0 	
400d0028:	3f400ae6 	
400d002c:	3f40004c 	
400d0030:	0000ffda 	
400d0034:	3f401410 	
400d0038:	3f400040 	
400d003c:	3f400af8 	
400d0040:	01000004 	
400d0044:	3ffb0800 	
400d0048:	3ffb0838 	
400d004c:	3ff48800 	
400d0050:	8007ffff 	
400d0054:	fffdffff 	
400d0058:	fffcffff 	
400d005c:	fffff0ff 	
400d0060:	ffff0fff 	
400d0064:	3f400bf4 	
400d0068:	3f400cf4 	
400d006c:	3f400bff 	
400d0070:	02000005 	
400d0074:	3ffb07f0 	
400d0078:	3f400d01 	
400d007c:	3f400c1a 	
400d0080:	3ffb1dc0 	
400d0084:	3ffb1dbc 	
400d0088:	fff3ffff 	
400d008c:	3f400d40 	
400d0090:	3f400160 	
400d0094:	3f400c5d 	
400d0098:	3f400c42 	
400d009c:	3f400d2d 	
400d00a0:	3f400c64 	
400d00a4:	3f400d13 	
400d00a8:	3f400c8e 	
400d00ac:	3ff48400 	
400d00b0:	7fffffff 	
400d00b4:	3ffb07b8 	
400d00b8:	f7ffffff 	
400d00bc:	3f400cda 	
400d00c0:	3f400c9c 	
400d00c4:	3ffb07cc 	
400d00c8:	3f400ccd 	
400d00cc:	3f400cab 	
400d00d0:	3f400cbd 	
400d00d4:	efffffff 	
400d00d8:	3ff66000 	
400d00dc:	3f400250 	
400d00e0:	3f400108 	
400d00e4:	3f400640 	
400d00e8:	3ffb1dc4 	
400d00ec:	3ff5a00c 	
400d00f0:	3ff5a084 	
400d00f4:	3ff5a010 	
400d00f8:	3f400130 	
400d00fc:	3f400150 	
400d0100:	3f400120 	
400d0104:	3f400140 	
400d0108:	00000fff 	
400d010c:	00e4e1bf 	
400d0110:	3ffb0008 	
400d0114:	3f400db0 	
400d0118:	3f400d60 	
400d011c:	40007d54 	
400d0120:	3f400040 	
400d0124:	4000cff8 	
400d0128:	3ff48050 	
400d012c:	3ff5a014 	
400d0130:	3f400dac 	
400d0134:	3f400db4 	
400d0138:	3ff0003c 	
400d013c:	3ff4807c 	
400d0140:	ffffc7ff 	
400d0144:	3ff48070 	
400d0148:	e7ffffff 	
400d014c:	3ff480b4 	
400d0150:	4c4b4c4b 	
400d0154:	3ff48000 	
400d0158:	3ffb1dcc 	
400d015c:	3ff48030 	
400d0160:	3ff4848c 	
400d0164:	e73ff7df 	
400d0168:	ffcfffff 	
400d016c:	fff7ffff 	
400d0170:	fff9ffff 	
400d0174:	3ff4801c 	
400d0178:	ffffc03f 	
400d017c:	40008534 	
400d0180:	3fffffff 	
400d0184:	dfffffff 	
400d0188:	3f400e68 	
400d018c:	3f400e57 	
400d0190:	3f400e46 	
400d0194:	3f400e35 	
400d0198:	3f400e24 	
400d019c:	3f400e13 	
400d01a0:	3f400e02 	
400d01a4:	3ff480b0 	
400d01a8:	0000fffe 	
400d01ac:	3ff66000 	
400d01b0:	3f400dd2 	
400d01b4:	00010001 	
400d01b8:	3ff66004 	
400d01bc:	000f4240 	
400d01c0:	fffbfabf 	
400d01c4:	081b081b 	
400d01c8:	0ffff000 	
400d01cc:	0007a120 	
400d01d0:	431bde83 	
400d01d4:	23ffffff 	
400d01d8:	00ffffff 	
400d01dc:	ff003fff 	
400d01e0:	3ff48078 	
400d01e4:	f1ffffff 	
400d01e8:	fe3fffff 	
400d01ec:	3ff00044 	
400d01f0:	fffff7ff 	
400d01f4:	3ff0005c 	
400d01f8:	3ff00094 	
400d01fc:	3ff000a0 	
400d0200:	3ff000a4 	
400d0204:	3ff000ac 	
400d0208:	fbffffff 	
400d020c:	ffffdfff 	
400d0210:	ffbfffff 	
400d0214:	fffeffff 	
400d0218:	feffffff 	
400d021c:	3ff48084 	
400d0220:	ffefffff 	
400d0224:	fffbffff 	
400d0228:	fffeaabf 	
400d022c:	3ff48080 	
400d0230:	fffedfff 	
400d0234:	3ff48088 	
400d0238:	f555ffff 	
400d023c:	ffffbfff 	
400d0240:	ffffefff 	
400d0244:	3ff4803c 	
400d0248:	3ff48048 	
400d024c:	000081b3 	
400d0250:	000249f0 	
400d0254:	3ff5f068 	
400d0258:	ffff9fff 	
400d025c:	7fff0000 	
400d0260:	8000ffff 	
400d0264:	01ffffff 	
400d0268:	3f400e79 	
400d026c:	3f400e82 	
400d0270:	3ff5f06c 	
400d0274:	7fffefff 	
400d0278:	ffff7fff 	
400d027c:	0081b320 	
400d0280:	0f424000 	
400d0284:	3f400ec0 	
400d0288:	3f400ecd 	
400d028c:	3f400f13 	
400d0290:	3f400f59 	
400d0294:	ffc03fff 	
400d0298:	fe01ffff 	
400d029c:	ffff8fff 	
400d02a0:	6000e044 	
400d02a4:	fffdbfff 	
400d02a8:	3f400f82 	
400d02ac:	3f400fbc 	
400d02b0:	3f401012 	
400d02b4:	3ff66008 	
400d02b8:	fffc00ff 	
400d02bc:	40009278 	
400d02c0:	3ff5f070 	
400d02c4:	3ff5f08c 	
400d02c8:	3ff5f090 	
400d02cc:	3ff5f084 	
400d02d0:	3ff5f088 	
400d02d4:	3ff5f094 	
400d02d8:	3ff5f0a4 	
400d02dc:	e0001fff 	
400d02e0:	c0000800 	
400d02e4:	3f4006e0 	
400d02e8:	3ff00020 	
400d02ec:	3ff000d0 	
400d02f0:	3ff000c4 	
400d02f4:	3ff000c0 	
400d02f8:	3ff0001c 	
400d02fc:	3ff000cc 	
400d0300:	3ffb1dd0 	
400d0304:	3ffb20de 	
400d0308:	3f400764 	
400d030c:	3f4007e8 	
400d0310:	3ffb0790 	
400d0314:	3ffb064c 	
400d0318:	3f40105e 	
400d031c:	3ffb000c 	
400d0320:	400d3834 	
400d0324:	3ffb1ee4 	
400d0328:	3ffb1de0 	
400d032c:	3f401067 	
400d0330:	3ffb1de4 	
400d0334:	400d38c4 	
400d0338:	ffc1ffff 	
400d033c:	bff3e000 	
400d0340:	0ff3dfff 	
400d0344:	3f40108a 	
400d0348:	40080700 	
400d034c:	c03fffff 	
400d0350:	3ffb1ddc 	
400d0354:	4000c1ec 	
400d0358:	4000681c 	
400d035c:	3f40109b 	
400d0360:	3ffb07f8 	
400d0364:	3f4010c6 	
400d0368:	3f4010f3 	
400d036c:	3f4010ff 	
400d0370:	3f40111b 	
400d0374:	3f40113e 	
400d0378:	3f401160 	
400d037c:	3f401188 	
400d0380:	3f4011a4 	
400d0384:	3f4011c7 	
400d0388:	3f4011ea 	
400d038c:	3f40120f 	
400d0390:	3f40122b 	
400d0394:	3f401248 	
400d0398:	cccccccd 	
400d039c:	3f4009fc 	
400d03a0:	00037c36 	
400d03a4:	061a8c08 	
400d03a8:	04c4b3ff 	
400d03ac:	3f400044 	
400d03b0:	3f401292 	
400d03b4:	ffe000ff 	
400d03b8:	fffeffbd 	
400d03bc:	00641394 	
400d03c0:	3ff4f0ac 	
400d03c4:	3ff6d0ac 	
400d03c8:	400081d4 	
400d03cc:	400081d4 	
400d03d0:	fffc1fff 	
400d03d4:	3ffb2101 	
400d03d8:	400807e0 	
400d03dc:	0effffff 	
400d03e0:	3f401296 	
400d03e4:	3ffb0818 	
400d03e8:	3f4012b4 	
400d03ec:	3f4001b0 	
400d03f0:	3f4012c1 	
400d03f4:	3f4012e2 	
400d03f8:	fffff3ff 	
400d03fc:	3ff44000 	
400d0400:	0ffd114c 	
400d0404:	40009f0c 	

400d0408 <main>:
400d0408:	004136        	entry	a1, 32
400d040b:	ff0581        	l32r	a8, 400d0020 <_image_irom_vaddr> (3ffb0000 <dev_adc>)
400d040e:	08a8      	l32i.n	a10, a8, 0
400d0410:	b231e5        	call8	40082730 <z_device_is_ready>
400d0413:	5acc      	bnez.n	a10, 400d041c <main+0x14>
400d0415:	ff03a1        	l32r	a10, 400d0024 <_image_irom_vaddr+0x4> (3f400ad0 <gpio_esp32_driver_api+0x24>)
400d0418:	0000c6        	j	400d041f <main+0x17>
400d041b:	00          	.byte 00
400d041c:	ff03a1        	l32r	a10, 400d0028 <_image_irom_vaddr+0x8> (3f400ae6 <gpio_esp32_driver_api+0x3a>)
400d041f:	0342a5        	call8	400d3848 <printf>
400d0422:	f01d      	retw.n

400d0424 <cbvprintf_package>:
400d0424:	010136        	entry	a1, 128
400d0427:	027d      	mov.n	a7, a2
400d0429:	202122        	l32i	a2, a1, 128
400d042c:	8159      	s32i.n	a5, a1, 32
400d042e:	e129      	s32i.n	a2, a1, 56
400d0430:	420c      	movi.n	a2, 4
400d0432:	102420        	and	a2, a4, a2
400d0435:	212152        	l32i	a5, a1, 132
400d0438:	f129      	s32i.n	a2, a1, 60
400d043a:	242340        	extui	a2, a4, 3, 3
400d043d:	221b      	addi.n	a2, a2, 1
400d043f:	346070        	extui	a6, a7, 0, 4
400d0442:	116122        	s32i	a2, a1, 68
400d0445:	d159      	s32i.n	a5, a1, 52
400d0447:	9169      	s32i.n	a6, a1, 36
400d0449:	2221d2        	l32i	a13, a1, 136
400d044c:	227c      	movi.n	a2, -14
400d044e:	3ea656        	bnez	a6, 400d083c <cbvprintf_package+0x418>
400d0451:	674b      	addi.n	a6, a7, 4
400d0453:	678c      	beqz.n	a7, 400d045d <cbvprintf_package+0x39>
400d0455:	0f83f6        	bgeui	a3, 8, 400d0468 <cbvprintf_package+0x44>
400d0458:	426c      	movi.n	a2, -28
400d045a:	00f786        	j	400d083c <cbvprintf_package+0x418>
400d045d:	343030        	extui	a3, a3, 0, 4
400d0460:	021c      	movi.n	a2, 16
400d0462:	04c362        	addi	a6, a3, 4
400d0465:	c03230        	sub	a3, a2, a3
400d0468:	8188      	l32i.n	a8, a1, 32
400d046a:	9198      	l32i.n	a9, a1, 36
400d046c:	c80b      	addi.n	a12, a8, -1
400d046e:	280c      	movi.n	a8, 2
400d0470:	108480        	and	a8, a4, a8
400d0473:	840c      	movi.n	a4, 8
400d0475:	fe7c      	movi.n	a14, -1
400d0477:	450c      	movi.n	a5, 4
400d0479:	c04470        	sub	a4, a4, a7
400d047c:	b199      	s32i.n	a9, a1, 44
400d047e:	106192        	s32i	a9, a1, 64
400d0481:	a199      	s32i.n	a9, a1, 40
400d0483:	020c      	movi.n	a2, 0
400d0485:	c1e9      	s32i.n	a14, a1, 48
400d0487:	05bd      	mov.n	a11, a5
400d0489:	126182        	s32i	a8, a1, 72
400d048c:	136142        	s32i	a4, a1, 76
400d048f:	007986        	j	400d0679 <cbvprintf_package+0x255>
400d0492:	020c      	movi.n	a2, 0
400d0494:	000106        	j	400d049c <cbvprintf_package+0x78>
400d0497:	00          	.byte 00
400d0498:	850c      	movi.n	a5, 8
400d049a:	05bd      	mov.n	a11, a5
400d049c:	cc1b      	addi.n	a12, a12, 1
400d049e:	020c62        	l8ui	a6, a12, 2
400d04a1:	2b4616        	beqz	a6, 400d0759 <cbvprintf_package+0x335>
400d04a4:	02dc      	bnez.n	a2, 400d04b8 <cbvprintf_package+0x94>
400d04a6:	5a2c      	movi.n	a10, 37
400d04a8:	f096a7        	bne	a6, a10, 400d049c <cbvprintf_package+0x78>
400d04ab:	c158      	l32i.n	a5, a1, 48
400d04ad:	120c      	movi.n	a2, 1
400d04af:	551b      	addi.n	a5, a5, 1
400d04b1:	c159      	s32i.n	a5, a1, 48
400d04b3:	095d      	mov.n	a5, a9
400d04b5:	00a506        	j	400d074d <cbvprintf_package+0x329>
400d04b8:	7aa0a2        	movi	a10, 122
400d04bb:	d33a67        	bltu	a10, a6, 400d0492 <cbvprintf_package+0x6e>
400d04be:	be4c      	movi.n	a14, 75
400d04c0:	243e67        	bltu	a14, a6, 400d04e8 <cbvprintf_package+0xc4>
400d04c3:	7a4c      	movi.n	a10, 71
400d04c5:	6b3a67        	bltu	a10, a6, 400d0534 <cbvprintf_package+0x110>
400d04c8:	9a2c      	movi.n	a10, 41
400d04ca:	3a3a67        	bltu	a10, a6, 400d0508 <cbvprintf_package+0xe4>
400d04cd:	5a2c      	movi.n	a10, 37
400d04cf:	5b16a7        	beq	a6, a10, 400d052e <cbvprintf_package+0x10a>
400d04d2:	5e3a67        	bltu	a10, a6, 400d0534 <cbvprintf_package+0x110>
400d04d5:	c3c626        	beqi	a6, 32, 400d049c <cbvprintf_package+0x78>
400d04d8:	ddc662        	addi	a6, a6, -35
400d04db:	120c      	movi.n	a2, 1
400d04dd:	932d60        	movnez	a2, a13, a6
400d04e0:	742020        	extui	a2, a2, 0, 8
400d04e3:	ffed46        	j	400d049c <cbvprintf_package+0x78>
400d04e6:	00          	.byte 00
400d04e7:	00          	.byte 00
400d04e8:	b4c662        	addi	a6, a6, -76
400d04eb:	746060        	extui	a6, a6, 0, 8
400d04ee:	ea2c      	movi.n	a10, 46
400d04f0:	403a67        	bltu	a10, a6, 400d0534 <cbvprintf_package+0x110>
400d04f3:	fecea1        	l32r	a10, 400d002c <_image_irom_vaddr+0xc> (3f40004c <__rodata_region_start+0xc>)
400d04f6:	a066a0        	addx4	a6, a6, a10
400d04f9:	0668      	l32i.n	a6, a6, 0
400d04fb:	0006a0        	jx	a6
400d04fe:	450c      	movi.n	a5, 4
400d0500:	ffe586        	j	400d049a <cbvprintf_package+0x76>
400d0503:	0a0c      	movi.n	a10, 0
400d0505:	0029c6        	j	400d05b0 <cbvprintf_package+0x18c>
400d0508:	1a0c      	movi.n	a10, 1
400d050a:	d6c662        	addi	a6, a6, -42
400d050d:	401600        	ssl	a6
400d0510:	a16a00        	sll	a6, a10
400d0513:	fec7a1        	l32r	a10, 400d0030 <_image_irom_vaddr+0x10> (ffda <CONFIG_ESP_HEAP_MEM_POOL_REGION_1_SIZE+0x3fda>)
400d0516:	8286a7        	bany	a6, a10, 400d049c <cbvprintf_package+0x78>
400d0519:	71a0a2        	movi	a10, 113
400d051c:	01aa90        	slli	a10, a10, 23
400d051f:	10a6a0        	and	a10, a6, a10
400d0522:	faec      	bnez.n	a10, 400d0555 <cbvprintf_package+0x131>
400d0524:	042060        	extui	a2, a6, 0, 1
400d0527:	f71216        	beqz	a2, 400d049c <cbvprintf_package+0x78>
400d052a:	002206        	j	400d05b6 <cbvprintf_package+0x192>
400d052d:	00          	.byte 00
400d052e:	c128      	l32i.n	a2, a1, 48
400d0530:	220b      	addi.n	a2, a2, -1
400d0532:	c129      	s32i.n	a2, a1, 48
400d0534:	0d2d      	mov.n	a2, a13
400d0536:	ffd886        	j	400d049c <cbvprintf_package+0x78>
400d0539:	010c62        	l8ui	a6, a12, 1
400d053c:	6ca0e2        	movi	a14, 108
400d053f:	0dad      	mov.n	a10, a13
400d0541:	0d2d      	mov.n	a2, a13
400d0543:	6f96e7        	bne	a6, a14, 400d05b6 <cbvprintf_package+0x192>
400d0546:	000c22        	l8ui	a2, a12, 0
400d0549:	0a0c      	movi.n	a10, 0
400d054b:	619267        	bne	a2, a6, 400d05b0 <cbvprintf_package+0x18c>
400d054e:	0a2d      	mov.n	a2, a10
400d0550:	850c      	movi.n	a5, 8
400d0552:	001786        	j	400d05b4 <cbvprintf_package+0x190>
400d0555:	687b      	addi.n	a6, a8, 7
400d0557:	010c52        	l8ui	a5, a12, 1
400d055a:	1066f0        	and	a6, a6, a15
400d055d:	c24c      	movi.n	a2, 76
400d055f:	868b      	addi.n	a8, a6, 8
400d0561:	0d9527        	bne	a5, a2, 400d0572 <cbvprintf_package+0x14e>
400d0564:	8a1c      	movi.n	a10, 24
400d0566:	d128      	l32i.n	a2, a1, 52
400d0568:	16aa87        	bge	a10, a8, 400d0582 <cbvprintf_package+0x15e>
400d056b:	112a67        	blt	a10, a6, 400d0580 <cbvprintf_package+0x15c>
400d056e:	000306        	j	400d057e <cbvprintf_package+0x15a>
400d0571:	00          	.byte 00
400d0572:	0a1c      	movi.n	a10, 16
400d0574:	d128      	l32i.n	a2, a1, 52
400d0576:	08aa67        	bge	a10, a6, 400d0582 <cbvprintf_package+0x15e>
400d0579:	821c      	movi.n	a2, 24
400d057b:	012267        	blt	a2, a6, 400d0580 <cbvprintf_package+0x15c>
400d057e:	882c      	movi.n	a8, 40
400d0580:	e128      	l32i.n	a2, a1, 56
400d0582:	228a      	add.n	a2, a2, a8
400d0584:	f8c222        	addi	a2, a2, -8
400d0587:	447b      	addi.n	a4, a4, 7
400d0589:	02a8      	l32i.n	a10, a2, 0
400d058b:	12b8      	l32i.n	a11, a2, 4
400d058d:	1044f0        	and	a4, a4, a15
400d0590:	d78c      	beqz.n	a7, 400d05a1 <cbvprintf_package+0x17d>
400d0592:	132162        	l32i	a6, a1, 76
400d0595:	264a      	add.n	a2, a6, a4
400d0597:	02b327        	bgeu	a3, a2, 400d059d <cbvprintf_package+0x179>
400d059a:	ffae86        	j	400d0458 <cbvprintf_package+0x34>
400d059d:	04a9      	s32i.n	a10, a4, 0
400d059f:	14b9      	s32i.n	a11, a4, 4
400d05a1:	448b      	addi.n	a4, a4, 8
400d05a3:	0d2d      	mov.n	a2, a13
400d05a5:	ffbbc6        	j	400d0498 <cbvprintf_package+0x74>
400d05a8:	00          	.byte 00
400d05a9:	02ad      	mov.n	a10, a2
400d05ab:	020c      	movi.n	a2, 0
400d05ad:	000046        	j	400d05b2 <cbvprintf_package+0x18e>
400d05b0:	0a2d      	mov.n	a2, a10
400d05b2:	450c      	movi.n	a5, 4
400d05b4:	05bd      	mov.n	a11, a5
400d05b6:	440b      	addi.n	a4, a4, -1
400d05b8:	445a      	add.n	a4, a4, a5
400d05ba:	606050        	neg	a6, a5
400d05bd:	106460        	and	a6, a4, a6
400d05c0:	05a716        	beqz	a7, 400d061e <cbvprintf_package+0x1fa>
400d05c3:	c04b70        	sub	a4, a11, a7
400d05c6:	446a      	add.n	a4, a4, a6
400d05c8:	02b347        	bgeu	a3, a4, 400d05ce <cbvprintf_package+0x1aa>
400d05cb:	ffa246        	j	400d0458 <cbvprintf_package+0x34>
400d05ce:	084a56        	bnez	a10, 400d0656 <cbvprintf_package+0x232>
400d05d1:	1c4b66        	bnei	a11, 4, 400d05f1 <cbvprintf_package+0x1cd>
400d05d4:	a84b      	addi.n	a10, a8, 4
400d05d6:	8b1c      	movi.n	a11, 24
400d05d8:	d148      	l32i.n	a4, a1, 52
400d05da:	06aba7        	bge	a11, a10, 400d05e4 <cbvprintf_package+0x1c0>
400d05dd:	012b87        	blt	a11, a8, 400d05e2 <cbvprintf_package+0x1be>
400d05e0:	4a2c      	movi.n	a10, 36
400d05e2:	e148      	l32i.n	a4, a1, 56
400d05e4:	44aa      	add.n	a4, a4, a10
400d05e6:	fcc442        	addi	a4, a4, -4
400d05e9:	0448      	l32i.n	a4, a4, 0
400d05eb:	0649      	s32i.n	a4, a6, 0
400d05ed:	005606        	j	400d0749 <cbvprintf_package+0x325>
400d05f0:	00          	.byte 00
400d05f1:	048b26        	beqi	a11, 8, 400d05f9 <cbvprintf_package+0x1d5>
400d05f4:	a26c      	movi.n	a2, -22
400d05f6:	009086        	j	400d083c <cbvprintf_package+0x418>
400d05f9:	a87b      	addi.n	a10, a8, 7
400d05fb:	10aaf0        	and	a10, a10, a15
400d05fe:	8a8b      	addi.n	a8, a10, 8
400d0600:	8b1c      	movi.n	a11, 24
400d0602:	d148      	l32i.n	a4, a1, 52
400d0604:	06ab87        	bge	a11, a8, 400d060e <cbvprintf_package+0x1ea>
400d0607:	012ba7        	blt	a11, a10, 400d060c <cbvprintf_package+0x1e8>
400d060a:	882c      	movi.n	a8, 40
400d060c:	e148      	l32i.n	a4, a1, 56
400d060e:	448a      	add.n	a4, a4, a8
400d0610:	f8c442        	addi	a4, a4, -8
400d0613:	04a8      	l32i.n	a10, a4, 0
400d0615:	14b8      	l32i.n	a11, a4, 4
400d0617:	06a9      	s32i.n	a10, a6, 0
400d0619:	16b9      	s32i.n	a11, a6, 4
400d061b:	004cc6        	j	400d0752 <cbvprintf_package+0x32e>
400d061e:	4afc      	bnez.n	a10, 400d0656 <cbvprintf_package+0x232>
400d0620:	144b66        	bnei	a11, 4, 400d0638 <cbvprintf_package+0x214>
400d0623:	a84b      	addi.n	a10, a8, 4
400d0625:	841c      	movi.n	a4, 24
400d0627:	0224a7        	blt	a4, a10, 400d062d <cbvprintf_package+0x209>
400d062a:	0046c6        	j	400d0749 <cbvprintf_package+0x325>
400d062d:	02a487        	bge	a4, a8, 400d0633 <cbvprintf_package+0x20f>
400d0630:	004546        	j	400d0749 <cbvprintf_package+0x325>
400d0633:	4a2c      	movi.n	a10, 36
400d0635:	004406        	j	400d0749 <cbvprintf_package+0x325>
400d0638:	b88b66        	bnei	a11, 8, 400d05f4 <cbvprintf_package+0x1d0>
400d063b:	487b      	addi.n	a4, a8, 7
400d063d:	1044f0        	and	a4, a4, a15
400d0640:	848b      	addi.n	a8, a4, 8
400d0642:	8a1c      	movi.n	a10, 24
400d0644:	022a87        	blt	a10, a8, 400d064a <cbvprintf_package+0x226>
400d0647:	0041c6        	j	400d0752 <cbvprintf_package+0x32e>
400d064a:	02aa47        	bge	a10, a4, 400d0650 <cbvprintf_package+0x22c>
400d064d:	004046        	j	400d0752 <cbvprintf_package+0x32e>
400d0650:	882c      	movi.n	a8, 40
400d0652:	003f06        	j	400d0752 <cbvprintf_package+0x32e>
400d0655:	00          	.byte 00
400d0656:	d84b      	addi.n	a13, a8, 4
400d0658:	891c      	movi.n	a9, 24
400d065a:	d148      	l32i.n	a4, a1, 52
400d065c:	06a9d7        	bge	a9, a13, 400d0666 <cbvprintf_package+0x242>
400d065f:	012987        	blt	a9, a8, 400d0664 <cbvprintf_package+0x240>
400d0662:	4d2c      	movi.n	a13, 36
400d0664:	e148      	l32i.n	a4, a1, 56
400d0666:	44da      	add.n	a4, a4, a13
400d0668:	112182        	l32i	a8, a1, 68
400d066b:	fcc442        	addi	a4, a4, -4
400d066e:	0448      	l32i.n	a4, a4, 0
400d0670:	880b      	addi.n	a8, a8, -1
400d0672:	cc2b      	addi.n	a12, a12, 2
400d0674:	116182        	s32i	a8, a1, 68
400d0677:	8149      	s32i.n	a4, a1, 32
400d0679:	478c      	beqz.n	a7, 400d0681 <cbvprintf_package+0x25d>
400d067b:	082192        	l32i	a9, a1, 32
400d067e:	006692        	s32i	a9, a6, 0
400d0681:	1121e2        	l32i	a14, a1, 68
400d0684:	201ee6        	bgei	a14, 1, 400d06a8 <cbvprintf_package+0x284>
400d0687:	fe6b81        	l32r	a8, 400d0034 <_image_irom_vaddr+0x14> (3f401410 <__init___device_dts_ord_5>)
400d068a:	8198      	l32i.n	a9, a1, 32
400d068c:	140c      	movi.n	a4, 1
400d068e:	023987        	bltu	a9, a8, 400d0694 <cbvprintf_package+0x270>
400d0691:	00a042        	movi	a4, 0
400d0694:	fe69a1        	l32r	a10, 400d0038 <_image_irom_vaddr+0x18> (3f400040 <__rodata_region_start>)
400d0697:	81e8      	l32i.n	a14, a1, 32
400d0699:	180c      	movi.n	a8, 1
400d069b:	01bea7        	bgeu	a14, a10, 400d06a0 <cbvprintf_package+0x27c>
400d069e:	080c      	movi.n	a8, 0
400d06a0:	104480        	and	a4, a4, a8
400d06a3:	744040        	extui	a4, a4, 0, 8
400d06a6:	648c      	beqz.n	a4, 400d06b0 <cbvprintf_package+0x28c>
400d06a8:	122142        	l32i	a4, a1, 72
400d06ab:	08b416        	beqz	a4, 400d073a <cbvprintf_package+0x316>
400d06ae:	140c      	movi.n	a4, 1
400d06b0:	c08670        	sub	a8, a6, a7
400d06b3:	ffa1a2        	movi	a10, 0x1ff
400d06b6:	1e0c      	movi.n	a14, 1
400d06b8:	013a87        	bltu	a10, a8, 400d06bd <cbvprintf_package+0x299>
400d06bb:	0e0c      	movi.n	a14, 0
400d06bd:	122192        	l32i	a9, a1, 72
400d06c0:	1a0c      	movi.n	a10, 1
400d06c2:	0f0c      	movi.n	a15, 0
400d06c4:	83af90        	moveqz	a10, a15, a9
400d06c7:	020ae7        	bnone	a10, a14, 400d06cd <cbvprintf_package+0x2a9>
400d06ca:	ffc986        	j	400d05f4 <cbvprintf_package+0x1d0>
400d06cd:	a1e8      	l32i.n	a14, a1, 40
400d06cf:	fa0c      	movi.n	a10, 15
400d06d1:	02bae7        	bgeu	a10, a14, 400d06d7 <cbvprintf_package+0x2b3>
400d06d4:	ffc706        	j	400d05f4 <cbvprintf_package+0x1d0>
400d06d7:	3117f7        	beq	a7, a15, 400d070c <cbvprintf_package+0x2e8>
400d06da:	10c192        	addi	a9, a1, 16
400d06dd:	a9ea      	add.n	a10, a9, a14
400d06df:	c198      	l32i.n	a9, a1, 48
400d06e1:	748280        	extui	a8, a8, 2, 8
400d06e4:	e1ea      	add.n	a14, a1, a14
400d06e6:	004a82        	s8i	a8, a10, 0
400d06e9:	004e92        	s8i	a9, a14, 0
400d06ec:	1114f7        	beq	a4, a15, 400d0701 <cbvprintf_package+0x2dd>
400d06ef:	b1e8      	l32i.n	a14, a1, 44
400d06f1:	80af42        	movi	a4, -128
400d06f4:	208840        	or	a8, a8, a4
400d06f7:	ee1b      	addi.n	a14, a14, 1
400d06f9:	004a82        	s8i	a8, a10, 0
400d06fc:	b1e9      	s32i.n	a14, a1, 44
400d06fe:	000c86        	j	400d0734 <cbvprintf_package+0x310>
400d0701:	102142        	l32i	a4, a1, 64
400d0704:	441b      	addi.n	a4, a4, 1
400d0706:	106142        	s32i	a4, a1, 64
400d0709:	0009c6        	j	400d0734 <cbvprintf_package+0x310>
400d070c:	348c      	beqz.n	a4, 400d0713 <cbvprintf_package+0x2ef>
400d070e:	331b      	addi.n	a3, a3, 1
400d0710:	000806        	j	400d0734 <cbvprintf_package+0x310>
400d0713:	f188      	l32i.n	a8, a1, 60
400d0715:	332b      	addi.n	a3, a3, 2
400d0717:	019856        	bnez	a8, 400d0734 <cbvprintf_package+0x310>
400d071a:	0821a2        	l32i	a10, a1, 32
400d071d:	1461b2        	s32i	a11, a1, 80
400d0720:	1561c2        	s32i	a12, a1, 84
400d0723:	1661d2        	s32i	a13, a1, 88
400d0726:	b34565        	call8	40083b7c <strlen>
400d0729:	1621d2        	l32i	a13, a1, 88
400d072c:	1521c2        	l32i	a12, a1, 84
400d072f:	1421b2        	l32i	a11, a1, 80
400d0732:	33aa      	add.n	a3, a3, a10
400d0734:	a198      	l32i.n	a9, a1, 40
400d0736:	991b      	addi.n	a9, a9, 1
400d0738:	a199      	s32i.n	a9, a1, 40
400d073a:	0d8d      	mov.n	a8, a13
400d073c:	464b      	addi.n	a4, a6, 4
400d073e:	cc0b      	addi.n	a12, a12, -1
400d0740:	490c      	movi.n	a9, 4
400d0742:	8f7c      	movi.n	a15, -8
400d0744:	0d0c      	movi.n	a13, 0
400d0746:	ff5506        	j	400d049e <cbvprintf_package+0x7a>
400d0749:	464b      	addi.n	a4, a6, 4
400d074b:	0a8d      	mov.n	a8, a10
400d074d:	09bd      	mov.n	a11, a9
400d074f:	ff5246        	j	400d049c <cbvprintf_package+0x78>
400d0752:	468b      	addi.n	a4, a6, 8
400d0754:	8b0c      	movi.n	a11, 8
400d0756:	ff5086        	j	400d049c <cbvprintf_package+0x78>
400d0759:	c05470        	sub	a5, a4, a7
400d075c:	ffa322        	movi	a2, 0x3ff
400d075f:	02b257        	bgeu	a2, a5, 400d0765 <cbvprintf_package+0x341>
400d0762:	ffa386        	j	400d05f4 <cbvprintf_package+0x1d0>
400d0765:	f0c322        	addi	a2, a3, -16
400d0768:	225a      	add.n	a2, a2, a5
400d076a:	0ce716        	beqz	a7, 400d083c <cbvprintf_package+0x418>
400d076d:	415250        	srli	a5, a5, 2
400d0770:	0769      	s32i.n	a6, a7, 0
400d0772:	1021e2        	l32i	a14, a1, 64
400d0775:	004752        	s8i	a5, a7, 0
400d0778:	f158      	l32i.n	a5, a1, 60
400d077a:	7420e0        	extui	a2, a14, 0, 8
400d077d:	458c      	beqz.n	a5, 400d0785 <cbvprintf_package+0x361>
400d077f:	034722        	s8i	a2, a7, 3
400d0782:	000086        	j	400d0788 <cbvprintf_package+0x364>
400d0785:	014722        	s8i	a2, a7, 1
400d0788:	b168      	l32i.n	a6, a1, 44
400d078a:	024762        	s8i	a6, a7, 2
400d078d:	76ec      	bnez.n	a6, 400d07b8 <cbvprintf_package+0x394>
400d078f:	000c46        	j	400d07c4 <cbvprintf_package+0x3a0>
400d0792:	00          	.byte 00
400d0793:	00          	.byte 00
400d0794:	10c182        	addi	a8, a1, 16
400d0797:	582a      	add.n	a5, a8, a2
400d0799:	000552        	l8ui	a5, a5, 0
400d079c:	238500        	sext	a8, a5, 7
400d079f:	00f8d6        	bgez	a8, 400d07b2 <cbvprintf_package+0x38e>
400d07a2:	846a      	add.n	a8, a4, a6
400d07a4:	645050        	extui	a5, a5, 0, 7
400d07a7:	02b387        	bgeu	a3, a8, 400d07ad <cbvprintf_package+0x389>
400d07aa:	ff2a86        	j	400d0458 <cbvprintf_package+0x34>
400d07ad:	004452        	s8i	a5, a4, 0
400d07b0:	441b      	addi.n	a4, a4, 1
400d07b2:	221b      	addi.n	a2, a2, 1
400d07b4:	0001c6        	j	400d07bf <cbvprintf_package+0x39b>
400d07b7:	00          	.byte 00
400d07b8:	160c      	movi.n	a6, 1
400d07ba:	9128      	l32i.n	a2, a1, 36
400d07bc:	c06670        	sub	a6, a6, a7
400d07bf:	a198      	l32i.n	a9, a1, 40
400d07c1:	cf9927        	bne	a9, a2, 400d0794 <cbvprintf_package+0x370>
400d07c4:	9168      	l32i.n	a6, a1, 36
400d07c6:	10c152        	addi	a5, a1, 16
400d07c9:	120c      	movi.n	a2, 1
400d07cb:	001946        	j	400d0834 <cbvprintf_package+0x410>
400d07ce:	b1e8      	l32i.n	a14, a1, 44
400d07d0:	4e8c      	beqz.n	a14, 400d07d8 <cbvprintf_package+0x3b4>
400d07d2:	000582        	l8ui	a8, a5, 0
400d07d5:	57e877        	bbsi	a8, 7, 400d0830 <cbvprintf_package+0x40c>
400d07d8:	f188      	l32i.n	a8, a1, 60
400d07da:	e88c      	beqz.n	a8, 400d07ec <cbvprintf_package+0x3c8>
400d07dc:	816a      	add.n	a8, a1, a6
400d07de:	000882        	l8ui	a8, a8, 0
400d07e1:	004482        	s8i	a8, a4, 0
400d07e4:	9188      	l32i.n	a8, a1, 36
400d07e6:	441b      	addi.n	a4, a4, 1
400d07e8:	0005c6        	j	400d0803 <cbvprintf_package+0x3df>
400d07eb:	00          	.byte 00
400d07ec:	000582        	l8ui	a8, a5, 0
400d07ef:	0f21e2        	l32i	a14, a1, 60
400d07f2:	a08870        	addx4	a8, a8, a7
400d07f5:	002892        	l32i	a9, a8, 0
400d07f8:	08e9      	s32i.n	a14, a8, 0
400d07fa:	09ad      	mov.n	a10, a9
400d07fc:	8199      	s32i.n	a9, a1, 32
400d07fe:	b337e5        	call8	40083b7c <strlen>
400d0801:	8a1b      	addi.n	a8, a10, 1
400d0803:	c0a270        	sub	a10, a2, a7
400d0806:	aa8a      	add.n	a10, a10, a8
400d0808:	a4aa      	add.n	a10, a4, a10
400d080a:	02b3a7        	bgeu	a3, a10, 400d0810 <cbvprintf_package+0x3ec>
400d080d:	ff11c6        	j	400d0458 <cbvprintf_package+0x34>
400d0810:	0005a2        	l8ui	a10, a5, 0
400d0813:	d41b      	addi.n	a13, a4, 1
400d0815:	0044a2        	s8i	a10, a4, 0
400d0818:	81b8      	l32i.n	a11, a1, 32
400d081a:	08cd      	mov.n	a12, a8
400d081c:	20add0        	or	a10, a13, a13
400d081f:	146182        	s32i	a8, a1, 80
400d0822:	1661d2        	s32i	a13, a1, 88
400d0825:	b33865        	call8	40083bac <memcpy>
400d0828:	142182        	l32i	a8, a1, 80
400d082b:	1621d2        	l32i	a13, a1, 88
400d082e:	4d8a      	add.n	a4, a13, a8
400d0830:	661b      	addi.n	a6, a6, 1
400d0832:	551b      	addi.n	a5, a5, 1
400d0834:	a188      	l32i.n	a8, a1, 40
400d0836:	949867        	bne	a8, a6, 400d07ce <cbvprintf_package+0x3aa>
400d0839:	c02470        	sub	a2, a4, a7
400d083c:	f01d      	retw.n
	...

400d0840 <cbprintf_package_convert>:
400d0840:	012136        	entry	a1, 144
400d0843:	e179      	s32i.n	a7, a1, 56
400d0845:	017d      	mov.n	a7, a1
400d0847:	d759      	s32i.n	a5, a7, 52
400d0849:	045360        	extui	a5, a6, 3, 1
400d084c:	116752        	s32i	a5, a7, 68
400d084f:	a3ec      	bnez.n	a3, 400d087d <cbprintf_package_convert+0x3d>
400d0851:	0002a2        	l8ui	a10, a2, 0
400d0854:	020252        	l8ui	a5, a2, 2
400d0857:	010282        	l8ui	a8, a2, 1
400d085a:	a0aa50        	addx4	a10, a10, a5
400d085d:	a2aa      	add.n	a10, a2, a10
400d085f:	000506        	j	400d0877 <cbprintf_package_convert+0x37>
400d0862:	5a1b      	addi.n	a5, a10, 1
400d0864:	196782        	s32i	a8, a7, 100
400d0867:	05ad      	mov.n	a10, a5
400d0869:	b33125        	call8	40083b7c <strlen>
400d086c:	aa1b      	addi.n	a10, a10, 1
400d086e:	192782        	l32i	a8, a7, 100
400d0871:	80a5a0        	add	a10, a5, a10
400d0874:	01c332        	addi	a3, a3, 1
400d0877:	e73387        	bltu	a3, a8, 400d0862 <cbprintf_package_convert+0x22>
400d087a:	c03a20        	sub	a3, a10, a2
400d087d:	0202f2        	l8ui	a15, a2, 2
400d0880:	0302d2        	l8ui	a13, a2, 3
400d0883:	0f5d      	mov.n	a5, a15
400d0885:	0ded      	mov.n	a14, a13
400d0887:	1f8c      	beqz.n	a15, 400d088c <cbprintf_package_convert+0x4c>
400d0889:	04e607        	bbsi	a6, 0, 400d0891 <cbprintf_package_convert+0x51>
400d088c:	cdcc      	bnez.n	a13, 400d089c <cbprintf_package_convert+0x5c>
400d088e:	000346        	j	400d089f <cbprintf_package_convert+0x5f>
400d0891:	000292        	l8ui	a9, a2, 0
400d0894:	048d56        	bnez	a13, 400d08e0 <cbprintf_package_convert+0xa0>
400d0897:	000506        	j	400d08af <cbprintf_package_convert+0x6f>
400d089a:	00          	.byte 00
400d089b:	00          	.byte 00
400d089c:	24e617        	bbsi	a6, 1, 400d08c4 <cbprintf_package_convert+0x84>
400d089f:	748c      	beqz.n	a4, 400d08aa <cbprintf_package_convert+0x6a>
400d08a1:	d7c8      	l32i.n	a12, a7, 52
400d08a3:	03bd      	mov.n	a11, a3
400d08a5:	02ad      	mov.n	a10, a2
400d08a7:	0004e0        	callx8	a4
400d08aa:	038d      	mov.n	a8, a3
400d08ac:	00fa06        	j	400d0c98 <cbprintf_package_convert+0x458>
400d08af:	1189e0        	slli	a8, a9, 2
400d08b2:	f789      	s32i.n	a8, a7, 60
400d08b4:	1288      	l32i.n	a8, a2, 4
400d08b6:	a09920        	addx4	a9, a9, a2
400d08b9:	c789      	s32i.n	a8, a7, 48
400d08bb:	10c7a2        	addi	a10, a7, 16
400d08be:	1bc456        	bnez	a4, 400d0a7e <cbprintf_package_convert+0x23e>
400d08c1:	000c86        	j	400d08f7 <cbprintf_package_convert+0xb7>
400d08c4:	000292        	l8ui	a9, a2, 0
400d08c7:	1288      	l32i.n	a8, a2, 4
400d08c9:	1159e0        	slli	a5, a9, 2
400d08cc:	f759      	s32i.n	a5, a7, 60
400d08ce:	c789      	s32i.n	a8, a7, 48
400d08d0:	a09920        	addx4	a9, a9, a2
400d08d3:	18e456        	bnez	a4, 400d0a65 <cbprintf_package_convert+0x225>
400d08d6:	038d      	mov.n	a8, a3
400d08d8:	0fed      	mov.n	a14, a15
400d08da:	07ef16        	beqz	a15, 400d095c <cbprintf_package_convert+0x11c>
400d08dd:	001bc6        	j	400d0950 <cbprintf_package_convert+0x110>
400d08e0:	1189e0        	slli	a8, a9, 2
400d08e3:	f789      	s32i.n	a8, a7, 60
400d08e5:	1288      	l32i.n	a8, a2, 4
400d08e7:	0e0c      	movi.n	a14, 0
400d08e9:	c789      	s32i.n	a8, a7, 48
400d08eb:	a09920        	addx4	a9, a9, a2
400d08ee:	10c7a2        	addi	a10, a7, 16
400d08f1:	0214e7        	beq	a4, a14, 400d08f7 <cbprintf_package_convert+0xb7>
400d08f4:	006186        	j	400d0a7e <cbprintf_package_convert+0x23e>
400d08f7:	e7a8      	l32i.n	a10, a7, 56
400d08f9:	0e0c      	movi.n	a14, 0
400d08fb:	140c      	movi.n	a4, 1
400d08fd:	834ea0        	moveqz	a4, a14, a10
400d0900:	038d      	mov.n	a8, a3
400d0902:	744040        	extui	a4, a4, 0, 8
400d0905:	093d      	mov.n	a3, a9
400d0907:	99fa      	add.n	a9, a9, a15
400d0909:	000f46        	j	400d094a <cbprintf_package_convert+0x10a>
400d090c:	000352        	l8ui	a5, a3, 0
400d090f:	a05520        	addx4	a5, a5, a2
400d0912:	0025a2        	l32i	a10, a5, 0
400d0915:	196782        	s32i	a8, a7, 100
400d0918:	156792        	s32i	a9, a7, 84
400d091b:	1667d2        	s32i	a13, a7, 88
400d091e:	1867e2        	s32i	a14, a7, 96
400d0921:	b325a5        	call8	40083b7c <strlen>
400d0924:	192782        	l32i	a8, a7, 100
400d0927:	152792        	l32i	a9, a7, 84
400d092a:	1627d2        	l32i	a13, a7, 88
400d092d:	1827e2        	l32i	a14, a7, 96
400d0930:	01caa2        	addi	a10, a10, 1
400d0933:	00f416        	beqz	a4, 400d0946 <cbprintf_package_convert+0x106>
400d0936:	242752        	l32i	a5, a7, 144
400d0939:	09be57        	bgeu	a14, a5, 400d0946 <cbprintf_package_convert+0x106>
400d093c:	e7b8      	l32i.n	a11, a7, 56
400d093e:	905eb0        	addx2	a5, a14, a11
400d0941:	0055a2        	s16i	a10, a5, 0
400d0944:	ee1b      	addi.n	a14, a14, 1
400d0946:	88aa      	add.n	a8, a8, a10
400d0948:	331b      	addi.n	a3, a3, 1
400d094a:	be9397        	bne	a3, a9, 400d090c <cbprintf_package_convert+0xcc>
400d094d:	0002c6        	j	400d095c <cbprintf_package_convert+0x11c>
400d0950:	4e0c      	movi.n	a14, 4
400d0952:	10e6e0        	and	a14, a6, a14
400d0955:	3e8c      	beqz.n	a14, 400d095c <cbprintf_package_convert+0x11c>
400d0957:	99fa      	add.n	a9, a9, a15
400d0959:	20e440        	or	a14, a4, a4
400d095c:	530c      	movi.n	a3, 5
400d095e:	103630        	and	a3, a6, a3
400d0961:	140c      	movi.n	a4, 1
400d0963:	250c      	movi.n	a5, 2
400d0965:	935430        	movnez	a5, a4, a3
400d0968:	90dd90        	addx2	a13, a13, a9
400d096b:	093d      	mov.n	a3, a9
400d096d:	e798      	l32i.n	a9, a7, 56
400d096f:	d759      	s32i.n	a5, a7, 52
400d0971:	050c      	movi.n	a5, 0
400d0973:	834590        	moveqz	a4, a5, a9
400d0976:	744040        	extui	a4, a4, 0, 8
400d0979:	f7d9      	s32i.n	a13, a7, 60
400d097b:	126742        	s32i	a4, a7, 72
400d097e:	003586        	j	400d0a58 <cbprintf_package_convert+0x218>
400d0981:	010342        	l8ui	a4, a3, 1
400d0984:	fdac91        	l32r	a9, 400d0034 <_image_irom_vaddr+0x14> (3f401410 <__init___device_dts_ord_5>)
400d0987:	a04420        	addx4	a4, a4, a2
400d098a:	0448      	l32i.n	a4, a4, 0
400d098c:	000352        	l8ui	a5, a3, 0
400d098f:	05b497        	bgeu	a4, a9, 400d0998 <cbprintf_package_convert+0x158>
400d0992:	fda991        	l32r	a9, 400d0038 <_image_irom_vaddr+0x18> (3f400040 <__rodata_region_start>)
400d0995:	1fb497        	bgeu	a4, a9, 400d09b8 <cbprintf_package_convert+0x178>
400d0998:	112792        	l32i	a9, a7, 68
400d099b:	08a916        	beqz	a9, 400d0a29 <cbprintf_package_convert+0x1e9>
400d099e:	c7a8      	l32i.n	a10, a7, 48
400d09a0:	196782        	s32i	a8, a7, 100
400d09a3:	1867e2        	s32i	a14, a7, 96
400d09a6:	20b550        	or	a11, a5, a5
400d09a9:	03f225        	call8	400d48cc <is_ptr>
400d09ac:	192782        	l32i	a8, a7, 100
400d09af:	1827e2        	l32i	a14, a7, 96
400d09b2:	073a16        	beqz	a10, 400d0a29 <cbprintf_package_convert+0x1e9>
400d09b5:	0006c6        	j	400d09d4 <cbprintf_package_convert+0x194>
400d09b8:	112792        	l32i	a9, a7, 68
400d09bb:	05d916        	beqz	a9, 400d0a1c <cbprintf_package_convert+0x1dc>
400d09be:	c7a8      	l32i.n	a10, a7, 48
400d09c0:	196782        	s32i	a8, a7, 100
400d09c3:	1867e2        	s32i	a14, a7, 96
400d09c6:	05bd      	mov.n	a11, a5
400d09c8:	03f025        	call8	400d48cc <is_ptr>
400d09cb:	192782        	l32i	a8, a7, 100
400d09ce:	1827e2        	l32i	a14, a7, 96
400d09d1:	047a16        	beqz	a10, 400d0a1c <cbprintf_package_convert+0x1dc>
400d09d4:	d0c1a2        	addi	a10, a1, -48
400d09d7:	014d      	mov.n	a4, a1
400d09d9:	001a10        	movsp	a1, a10
400d09dc:	01cd      	mov.n	a12, a1
400d09de:	fd9791        	l32r	a9, 400d003c <_image_irom_vaddr+0x1c> (3f400af8 <gpio_esp32_driver_api+0x4c>)
400d09e1:	7c59      	s32i.n	a5, a12, 28
400d09e3:	00a252        	movi	a5, 0x200
400d09e6:	5c99      	s32i.n	a9, a12, 20
400d09e8:	105c52        	s16i	a5, a12, 32
400d09eb:	c798      	l32i.n	a9, a7, 48
400d09ed:	fd9451        	l32r	a5, 400d0040 <_image_irom_vaddr+0x20> (1000004 <CONFIG_FLASH_SIZE+0xc00004>)
400d09f0:	9b4c      	movi.n	a11, 73
400d09f2:	6c99      	s32i.n	a9, a12, 24
400d09f4:	046c52        	s32i	a5, a12, 16
400d09f7:	11bb90        	slli	a11, a11, 7
400d09fa:	fd92a1        	l32r	a10, 400d0044 <_image_irom_vaddr+0x24> (3ffb0800 <log_const_cbprintf_package>)
400d09fd:	196782        	s32i	a8, a7, 100
400d0a00:	1867e2        	s32i	a14, a7, 96
400d0a03:	00a0d2        	movi	a13, 0
400d0a06:	10ccc2        	addi	a12, a12, 16
400d0a09:	b2fbe5        	call8	400839c8 <z_impl_z_log_msg_static_create>
400d0a0c:	192782        	l32i	a8, a7, 100
400d0a0f:	1827e2        	l32i	a14, a7, 96
400d0a12:	001410        	movsp	a1, a4
400d0a15:	fec882        	addi	a8, a8, -2
400d0a18:	000e86        	j	400d0a56 <cbprintf_package_convert+0x216>
400d0a1b:	00          	.byte 00
400d0a1c:	0ce607        	bbsi	a6, 0, 400d0a2c <cbprintf_package_convert+0x1ec>
400d0a1f:	d748      	l32i.n	a4, a7, 52
400d0a21:	c08840        	sub	a8, a8, a4
400d0a24:	000b86        	j	400d0a56 <cbprintf_package_convert+0x216>
400d0a27:	00          	.byte 00
400d0a28:	00          	.byte 00
400d0a29:	296617        	bbci	a6, 1, 400d0a56 <cbprintf_package_convert+0x216>
400d0a2c:	196782        	s32i	a8, a7, 100
400d0a2f:	1867e2        	s32i	a14, a7, 96
400d0a32:	04ad      	mov.n	a10, a4
400d0a34:	b31465        	call8	40083b7c <strlen>
400d0a37:	122752        	l32i	a5, a7, 72
400d0a3a:	192782        	l32i	a8, a7, 100
400d0a3d:	1827e2        	l32i	a14, a7, 96
400d0a40:	059c      	beqz.n	a5, 400d0a54 <cbprintf_package_convert+0x214>
400d0a42:	242792        	l32i	a9, a7, 144
400d0a45:	0bbe97        	bgeu	a14, a9, 400d0a54 <cbprintf_package_convert+0x214>
400d0a48:	e798      	l32i.n	a9, a7, 56
400d0a4a:	5a1b      	addi.n	a5, a10, 1
400d0a4c:	904e90        	addx2	a4, a14, a9
400d0a4f:	005452        	s16i	a5, a4, 0
400d0a52:	ee1b      	addi.n	a14, a14, 1
400d0a54:	88aa      	add.n	a8, a8, a10
400d0a56:	332b      	addi.n	a3, a3, 2
400d0a58:	f748      	l32i.n	a4, a7, 60
400d0a5a:	021347        	beq	a3, a4, 400d0a60 <cbprintf_package_convert+0x220>
400d0a5d:	ffc806        	j	400d0981 <cbprintf_package_convert+0x141>
400d0a60:	008d06        	j	400d0c98 <cbprintf_package_convert+0x458>
400d0a63:	00          	.byte 00
400d0a64:	00          	.byte 00
400d0a65:	0f5d      	mov.n	a5, a15
400d0a67:	0fed      	mov.n	a14, a15
400d0a69:	0fbc      	beqz.n	a15, 400d0a9d <cbprintf_package_convert+0x25d>
400d0a6b:	480c      	movi.n	a8, 4
400d0a6d:	108680        	and	a8, a6, a8
400d0a70:	085d      	mov.n	a5, a8
400d0a72:	08ed      	mov.n	a14, a8
400d0a74:	58ac      	beqz.n	a8, 400d0a9d <cbprintf_package_convert+0x25d>
400d0a76:	0fed      	mov.n	a14, a15
400d0a78:	00a052        	movi	a5, 0
400d0a7b:	20a770        	or	a10, a7, a7
400d0a7e:	0fcd      	mov.n	a12, a15
400d0a80:	09bd      	mov.n	a11, a9
400d0a82:	156792        	s32i	a9, a7, 84
400d0a85:	1667d2        	s32i	a13, a7, 88
400d0a88:	1867e2        	s32i	a14, a7, 96
400d0a8b:	1767f2        	s32i	a15, a7, 92
400d0a8e:	b311e5        	call8	40083bac <memcpy>
400d0a91:	1727f2        	l32i	a15, a7, 92
400d0a94:	1827e2        	l32i	a14, a7, 96
400d0a97:	1627d2        	l32i	a13, a7, 88
400d0a9a:	152792        	l32i	a9, a7, 84
400d0a9d:	99fa      	add.n	a9, a9, a15
400d0a9f:	098d      	mov.n	a8, a9
400d0aa1:	106792        	s32i	a9, a7, 64
400d0aa4:	9dda      	add.n	a9, a13, a13
400d0aa6:	126792        	s32i	a9, a7, 72
400d0aa9:	290c      	movi.n	a9, 2
400d0aab:	90dd80        	addx2	a13, a13, a8
400d0aae:	109690        	and	a9, a6, a9
400d0ab1:	1367d2        	s32i	a13, a7, 76
400d0ab4:	146792        	s32i	a9, a7, 80
400d0ab7:	002d06        	j	400d0b6f <cbprintf_package_convert+0x32f>
400d0aba:	00          	.byte 00
400d0abb:	00          	.byte 00
400d0abc:	00          	.byte 00
400d0abd:	0108c2        	l8ui	a12, a8, 1
400d0ac0:	fd5da1        	l32r	a10, 400d0034 <_image_irom_vaddr+0x14> (3f401410 <__init___device_dts_ord_5>)
400d0ac3:	a09c20        	addx4	a9, a12, a2
400d0ac6:	0998      	l32i.n	a9, a9, 0
400d0ac8:	0008d2        	l8ui	a13, a8, 0
400d0acb:	05b9a7        	bgeu	a9, a10, 400d0ad4 <cbprintf_package_convert+0x294>
400d0ace:	fd5aa1        	l32r	a10, 400d0038 <_image_irom_vaddr+0x18> (3f400040 <__rodata_region_start>)
400d0ad1:	30b9a7        	bgeu	a9, a10, 400d0b05 <cbprintf_package_convert+0x2c5>
400d0ad4:	112792        	l32i	a9, a7, 68
400d0ad7:	069916        	beqz	a9, 400d0b44 <cbprintf_package_convert+0x304>
400d0ada:	c7a8      	l32i.n	a10, a7, 48
400d0adc:	0dbd      	mov.n	a11, a13
400d0ade:	196782        	s32i	a8, a7, 100
400d0ae1:	1567c2        	s32i	a12, a7, 84
400d0ae4:	1667d2        	s32i	a13, a7, 88
400d0ae7:	1867e2        	s32i	a14, a7, 96
400d0aea:	1767f2        	s32i	a15, a7, 92
400d0aed:	03dde5        	call8	400d48cc <is_ptr>
400d0af0:	192782        	l32i	a8, a7, 100
400d0af3:	1527c2        	l32i	a12, a7, 84
400d0af6:	1627d2        	l32i	a13, a7, 88
400d0af9:	1827e2        	l32i	a14, a7, 96
400d0afc:	1727f2        	l32i	a15, a7, 92
400d0aff:	041a16        	beqz	a10, 400d0b44 <cbprintf_package_convert+0x304>
400d0b02:	0019c6        	j	400d0b6d <cbprintf_package_convert+0x32d>
400d0b05:	112792        	l32i	a9, a7, 68
400d0b08:	022916        	beqz	a9, 400d0b2e <cbprintf_package_convert+0x2ee>
400d0b0b:	0c27a2        	l32i	a10, a7, 48
400d0b0e:	196782        	s32i	a8, a7, 100
400d0b11:	1567c2        	s32i	a12, a7, 84
400d0b14:	1867e2        	s32i	a14, a7, 96
400d0b17:	1767f2        	s32i	a15, a7, 92
400d0b1a:	20bdd0        	or	a11, a13, a13
400d0b1d:	03dae5        	call8	400d48cc <is_ptr>
400d0b20:	192782        	l32i	a8, a7, 100
400d0b23:	1527c2        	l32i	a12, a7, 84
400d0b26:	1827e2        	l32i	a14, a7, 96
400d0b29:	1727f2        	l32i	a15, a7, 92
400d0b2c:	dafc      	bnez.n	a10, 400d0b6d <cbprintf_package_convert+0x32d>
400d0b2e:	026607        	bbci	a6, 0, 400d0b34 <cbprintf_package_convert+0x2f4>
400d0b31:	000506        	j	400d0b49 <cbprintf_package_convert+0x309>
400d0b34:	356627        	bbci	a6, 2, 400d0b6d <cbprintf_package_convert+0x32d>
400d0b37:	9e1b      	addi.n	a9, a14, 1
400d0b39:	e7ea      	add.n	a14, a7, a14
400d0b3b:	004ec2        	s8i	a12, a14, 0
400d0b3e:	74e090        	extui	a14, a9, 0, 8
400d0b41:	000a06        	j	400d0b6d <cbprintf_package_convert+0x32d>
400d0b44:	142792        	l32i	a9, a7, 80
400d0b47:	e98c      	beqz.n	a9, 400d0b59 <cbprintf_package_convert+0x319>
400d0b49:	10c7a2        	addi	a10, a7, 16
400d0b4c:	951b      	addi.n	a9, a5, 1
400d0b4e:	5a5a      	add.n	a5, a10, a5
400d0b50:	0045c2        	s8i	a12, a5, 0
400d0b53:	745090        	extui	a5, a9, 0, 8
400d0b56:	0004c6        	j	400d0b6d <cbprintf_package_convert+0x32d>
400d0b59:	9e1b      	addi.n	a9, a14, 1
400d0b5b:	a7ea      	add.n	a10, a7, a14
400d0b5d:	749090        	extui	a9, a9, 0, 8
400d0b60:	004ad2        	s8i	a13, a10, 0
400d0b63:	ee2b      	addi.n	a14, a14, 2
400d0b65:	979a      	add.n	a9, a7, a9
400d0b67:	74e0e0        	extui	a14, a14, 0, 8
400d0b6a:	0049c2        	s8i	a12, a9, 0
400d0b6d:	882b      	addi.n	a8, a8, 2
400d0b6f:	132792        	l32i	a9, a7, 76
400d0b72:	021897        	beq	a8, a9, 400d0b78 <cbprintf_package_convert+0x338>
400d0b75:	ffd106        	j	400d0abd <cbprintf_package_convert+0x27d>
400d0b78:	000282        	l8ui	a8, a2, 0
400d0b7b:	010292        	l8ui	a9, a2, 1
400d0b7e:	c789      	s32i.n	a8, a7, 48
400d0b80:	a59a      	add.n	a10, a5, a9
400d0b82:	74a0a0        	extui	a10, a10, 0, 8
400d0b85:	0b0c      	movi.n	a11, 0
400d0b87:	02e617        	bbsi	a6, 1, 400d0b8d <cbprintf_package_convert+0x34d>
400d0b8a:	41b1e0        	srli	a11, a14, 1
400d0b8d:	00a082        	movi	a8, 0
400d0b90:	08d687        	bbs	a6, a8, 400d0b9c <cbprintf_package_convert+0x35c>
400d0b93:	04a0c2        	movi	a12, 4
400d0b96:	1066c0        	and	a6, a6, a12
400d0b99:	938e60        	movnez	a8, a14, a6
400d0b9c:	0202d2        	l8ui	a13, a2, 2
400d0b9f:	030262        	l8ui	a6, a2, 3
400d0ba2:	0142a2        	s8i	a10, a2, 1
400d0ba5:	024282        	s8i	a8, a2, 2
400d0ba8:	0342b2        	s8i	a11, a2, 3
400d0bab:	d7c8      	l32i.n	a12, a7, 52
400d0bad:	f7b8      	l32i.n	a11, a7, 60
400d0baf:	156792        	s32i	a9, a7, 84
400d0bb2:	1667d2        	s32i	a13, a7, 88
400d0bb5:	1867e2        	s32i	a14, a7, 96
400d0bb8:	1767f2        	s32i	a15, a7, 92
400d0bbb:	02ad      	mov.n	a10, a2
400d0bbd:	0004e0        	callx8	a4
400d0bc0:	152792        	l32i	a9, a7, 84
400d0bc3:	1627d2        	l32i	a13, a7, 88
400d0bc6:	1827e2        	l32i	a14, a7, 96
400d0bc9:	1727f2        	l32i	a15, a7, 92
400d0bcc:	0a8d      	mov.n	a8, a10
400d0bce:	0c6a96        	bltz	a10, 400d0c98 <cbprintf_package_convert+0x458>
400d0bd1:	c7a8      	l32i.n	a10, a7, 48
400d0bd3:	034262        	s8i	a6, a2, 3
400d0bd6:	0042a2        	s8i	a10, a2, 0
400d0bd9:	014292        	s8i	a9, a2, 1
400d0bdc:	0242d2        	s8i	a13, a2, 2
400d0bdf:	d7c8      	l32i.n	a12, a7, 52
400d0be1:	196782        	s32i	a8, a7, 100
400d0be4:	1767f2        	s32i	a15, a7, 92
400d0be7:	20bee0        	or	a11, a14, a14
400d0bea:	20a770        	or	a10, a7, a7
400d0bed:	0004e0        	callx8	a4
400d0bf0:	1727f2        	l32i	a15, a7, 92
400d0bf3:	0a6d      	mov.n	a6, a10
400d0bf5:	0a8d      	mov.n	a8, a10
400d0bf7:	09da96        	bltz	a10, 400d0c98 <cbprintf_package_convert+0x458>
400d0bfa:	c0b3f0        	sub	a11, a3, a15
400d0bfd:	f738      	l32i.n	a3, a7, 60
400d0bff:	122792        	l32i	a9, a7, 72
400d0c02:	c0bb30        	sub	a11, a11, a3
400d0c05:	102732        	l32i	a3, a7, 64
400d0c08:	0d27c2        	l32i	a12, a7, 52
400d0c0b:	c0bb90        	sub	a11, a11, a9
400d0c0e:	80a390        	add	a10, a3, a9
400d0c11:	0004e0        	callx8	a4
400d0c14:	192782        	l32i	a8, a7, 100
400d0c17:	07ba96        	bltz	a10, 400d0c96 <cbprintf_package_convert+0x456>
400d0c1a:	686a      	add.n	a6, a8, a6
400d0c1c:	86aa      	add.n	a8, a6, a10
400d0c1e:	060c      	movi.n	a6, 0
400d0c20:	001746        	j	400d0c81 <cbprintf_package_convert+0x441>
400d0c23:	00          	.byte 00
400d0c24:	10c792        	addi	a9, a7, 16
400d0c27:	803960        	add	a3, a9, a6
400d0c2a:	000332        	l8ui	a3, a3, 0
400d0c2d:	0e27a2        	l32i	a10, a7, 56
400d0c30:	204732        	s8i	a3, a7, 32
400d0c33:	00a092        	movi	a9, 0
400d0c36:	a03320        	addx4	a3, a3, a2
400d0c39:	0338      	l32i.n	a3, a3, 0
400d0c3b:	051a97        	beq	a10, a9, 400d0c44 <cbprintf_package_convert+0x404>
400d0c3e:	9096a0        	addx2	a9, a6, a10
400d0c41:	001992        	l16ui	a9, a9, 0
400d0c44:	d7c8      	l32i.n	a12, a7, 52
400d0c46:	196782        	s32i	a8, a7, 100
400d0c49:	156792        	s32i	a9, a7, 84
400d0c4c:	1b0c      	movi.n	a11, 1
400d0c4e:	20c7a2        	addi	a10, a7, 32
400d0c51:	0004e0        	callx8	a4
400d0c54:	192782        	l32i	a8, a7, 100
400d0c57:	152792        	l32i	a9, a7, 84
400d0c5a:	038a96        	bltz	a10, 400d0c96 <cbprintf_package_convert+0x456>
400d0c5d:	88aa      	add.n	a8, a8, a10
400d0c5f:	c789      	s32i.n	a8, a7, 48
400d0c61:	89cc      	bnez.n	a9, 400d0c6d <cbprintf_package_convert+0x42d>
400d0c63:	03ad      	mov.n	a10, a3
400d0c65:	b2f165        	call8	40083b7c <strlen>
400d0c68:	aa1b      	addi.n	a10, a10, 1
400d0c6a:	f490a0        	extui	a9, a10, 0, 16
400d0c6d:	d7c8      	l32i.n	a12, a7, 52
400d0c6f:	20b990        	or	a11, a9, a9
400d0c72:	20a330        	or	a10, a3, a3
400d0c75:	0004e0        	callx8	a4
400d0c78:	01aa96        	bltz	a10, 400d0c96 <cbprintf_package_convert+0x456>
400d0c7b:	c738      	l32i.n	a3, a7, 48
400d0c7d:	661b      	addi.n	a6, a6, 1
400d0c7f:	83aa      	add.n	a8, a3, a10
400d0c81:	9f3657        	bltu	a6, a5, 400d0c24 <cbprintf_package_convert+0x3e4>
400d0c84:	0b0c      	movi.n	a11, 0
400d0c86:	d7c8      	l32i.n	a12, a7, 52
400d0c88:	196782        	s32i	a8, a7, 100
400d0c8b:	0bad      	mov.n	a10, a11
400d0c8d:	0004e0        	callx8	a4
400d0c90:	192782        	l32i	a8, a7, 100
400d0c93:	000046        	j	400d0c98 <cbprintf_package_convert+0x458>
400d0c96:	0a8d      	mov.n	a8, a10
400d0c98:	082d      	mov.n	a2, a8
400d0c9a:	f01d      	retw.n

400d0c9c <z_thread_entry>:
400d0c9c:	004136        	entry	a1, 32
400d0c9f:	20c550        	or	a12, a5, a5
400d0ca2:	20b440        	or	a11, a4, a4
400d0ca5:	03ad      	mov.n	a10, a3
400d0ca7:	0002e0        	callx8	a2
400d0caa:	b147a5        	call8	40082124 <z_impl_z_current_get>
400d0cad:	b15265        	call8	400821d4 <z_impl_k_thread_abort>

400d0cb0 <free_list_add>:
400d0cb0:	004136        	entry	a1, 32
400d0cb3:	20b330        	or	a11, a3, a3
400d0cb6:	20a220        	or	a10, a2, a2
400d0cb9:	03c725        	call8	400d492c <chunk_size>
400d0cbc:	1fa082        	movi	a8, 31
400d0cbf:	40faa0        	nsau	a10, a10
400d0cc2:	c0a8a0        	sub	a10, a8, a10
400d0cc5:	a0da20        	addx4	a13, a10, a2
400d0cc8:	1183d0        	slli	a8, a3, 3
400d0ccb:	4dc8      	l32i.n	a12, a13, 16
400d0ccd:	b84b      	addi.n	a11, a8, 4
400d0ccf:	886b      	addi.n	a8, a8, 6
400d0cd1:	b2ba      	add.n	a11, a2, a11
400d0cd3:	828a      	add.n	a8, a2, a8
400d0cd5:	f49030        	extui	a9, a3, 0, 16
400d0cd8:	8cdc      	bnez.n	a12, 400d0cf4 <free_list_add+0x44>
400d0cda:	1c0c      	movi.n	a12, 1
400d0cdc:	401a00        	ssl	a10
400d0cdf:	a1cc00        	sll	a12, a12
400d0ce2:	32a8      	l32i.n	a10, a2, 12
400d0ce4:	20aac0        	or	a10, a10, a12
400d0ce7:	32a9      	s32i.n	a10, a2, 12
400d0ce9:	4d39      	s32i.n	a3, a13, 16
400d0ceb:	005b92        	s16i	a9, a11, 0
400d0cee:	005892        	s16i	a9, a8, 0
400d0cf1:	000506        	j	400d0d09 <free_list_add+0x59>
400d0cf4:	b03c20        	addx8	a3, a12, a2
400d0cf7:	0213a2        	l16ui	a10, a3, 4
400d0cfa:	005ba2        	s16i	a10, a11, 0
400d0cfd:	0058c2        	s16i	a12, a8, 0
400d0d00:	b0aa20        	addx8	a10, a10, a2
400d0d03:	035a92        	s16i	a9, a10, 6
400d0d06:	025392        	s16i	a9, a3, 4
400d0d09:	f01d      	retw.n
	...

400d0d0c <free_list_remove>:
400d0d0c:	004136        	entry	a1, 32
400d0d0f:	20b330        	or	a11, a3, a3
400d0d12:	20a220        	or	a10, a2, a2
400d0d15:	03c165        	call8	400d492c <chunk_size>
400d0d18:	40faa0        	nsau	a10, a10
400d0d1b:	fc1c      	movi.n	a12, 31
400d0d1d:	c0cca0        	sub	a12, a12, a10
400d0d20:	03bd      	mov.n	a11, a3
400d0d22:	20a220        	or	a10, a2, a2
400d0d25:	03c325        	call8	400d4958 <free_list_remove_bidx>
400d0d28:	f01d      	retw.n
	...

400d0d2c <alloc_chunk>:
400d0d2c:	006136        	entry	a1, 48
400d0d2f:	40f350        	nsau	a5, a3
400d0d32:	f61c      	movi.n	a6, 31
400d0d34:	c06650        	sub	a6, a6, a5
400d0d37:	03cd      	mov.n	a12, a3
400d0d39:	a03620        	addx4	a3, a6, a2
400d0d3c:	4398      	l32i.n	a9, a3, 16
400d0d3e:	024d      	mov.n	a4, a2
400d0d40:	e9ac      	beqz.n	a9, 400d0d72 <alloc_chunk+0x46>
400d0d42:	370c      	movi.n	a7, 3
400d0d44:	042322        	l32i	a2, a3, 16
400d0d47:	20a440        	or	a10, a4, a4
400d0d4a:	006192        	s32i	a9, a1, 0
400d0d4d:	11c9      	s32i.n	a12, a1, 4
400d0d4f:	02bd      	mov.n	a11, a2
400d0d51:	03bda5        	call8	400d492c <chunk_size>
400d0d54:	11c8      	l32i.n	a12, a1, 4
400d0d56:	0198      	l32i.n	a9, a1, 0
400d0d58:	043ac7        	bltu	a10, a12, 400d0d60 <alloc_chunk+0x34>
400d0d5b:	06cd      	mov.n	a12, a6
400d0d5d:	000e46        	j	400d0d9a <alloc_chunk+0x6e>
400d0d60:	b08240        	addx8	a8, a2, a4
400d0d63:	031822        	l16ui	a2, a8, 6
400d0d66:	ffc772        	addi	a7, a7, -1
400d0d69:	046322        	s32i	a2, a3, 16
400d0d6c:	021927        	beq	a9, a2, 400d0d72 <alloc_chunk+0x46>
400d0d6f:	fd1756        	bnez	a7, 400d0d44 <alloc_chunk+0x18>
400d0d72:	032422        	l32i	a2, a4, 12
400d0d75:	605050        	neg	a5, a5
400d0d78:	f87c      	movi.n	a8, -1
400d0d7a:	401500        	ssl	a5
400d0d7d:	a18800        	sll	a8, a8
400d0d80:	102820        	and	a2, a8, a2
400d0d83:	a29c      	beqz.n	a2, 400d0da1 <alloc_chunk+0x75>
400d0d85:	60c020        	neg	a12, a2
400d0d88:	10cc20        	and	a12, a12, a2
400d0d8b:	40fcc0        	nsau	a12, a12
400d0d8e:	60c0c0        	neg	a12, a12
400d0d91:	a02c40        	addx4	a2, a12, a4
400d0d94:	232222        	l32i	a2, a2, 140
400d0d97:	1fccc2        	addi	a12, a12, 31
400d0d9a:	02bd      	mov.n	a11, a2
400d0d9c:	04ad      	mov.n	a10, a4
400d0d9e:	03bba5        	call8	400d4958 <free_list_remove_bidx>
400d0da1:	f01d      	retw.n
	...

400d0da4 <merge_chunks>:
400d0da4:	004136        	entry	a1, 32
400d0da7:	20b330        	or	a11, a3, a3
400d0daa:	02ad      	mov.n	a10, a2
400d0dac:	03b7e5        	call8	400d492c <chunk_size>
400d0daf:	04bd      	mov.n	a11, a4
400d0db1:	0a5d      	mov.n	a5, a10
400d0db3:	02ad      	mov.n	a10, a2
400d0db5:	03b765        	call8	400d492c <chunk_size>
400d0db8:	55aa      	add.n	a5, a5, a10
400d0dba:	855a      	add.n	a8, a5, a5
400d0dbc:	b03320        	addx8	a3, a3, a2
400d0dbf:	04bd      	mov.n	a11, a4
400d0dc1:	015382        	s16i	a8, a3, 2
400d0dc4:	02ad      	mov.n	a10, a2
400d0dc6:	03b665        	call8	400d492c <chunk_size>
400d0dc9:	44aa      	add.n	a4, a4, a10
400d0dcb:	b04420        	addx8	a4, a4, a2
400d0dce:	005452        	s16i	a5, a4, 0
400d0dd1:	f01d      	retw.n
	...

400d0dd4 <split_chunks>:
400d0dd4:	004136        	entry	a1, 32
400d0dd7:	20b330        	or	a11, a3, a3
400d0dda:	20a220        	or	a10, a2, a2
400d0ddd:	03b4e5        	call8	400d492c <chunk_size>
400d0de0:	c08430        	sub	a8, a4, a3
400d0de3:	c05340        	sub	a5, a3, a4
400d0de6:	55aa      	add.n	a5, a5, a10
400d0de8:	988a      	add.n	a9, a8, a8
400d0dea:	b03320        	addx8	a3, a3, a2
400d0ded:	015392        	s16i	a9, a3, 2
400d0df0:	b03420        	addx8	a3, a4, a2
400d0df3:	955a      	add.n	a9, a5, a5
400d0df5:	04bd      	mov.n	a11, a4
400d0df7:	015392        	s16i	a9, a3, 2
400d0dfa:	005382        	s16i	a8, a3, 0
400d0dfd:	02ad      	mov.n	a10, a2
400d0dff:	03b2e5        	call8	400d492c <chunk_size>
400d0e02:	44aa      	add.n	a4, a4, a10
400d0e04:	b04420        	addx8	a4, a4, a2
400d0e07:	005452        	s16i	a5, a4, 0
400d0e0a:	f01d      	retw.n

400d0e0c <free_chunk>:
400d0e0c:	004136        	entry	a1, 32
400d0e0f:	03bd      	mov.n	a11, a3
400d0e11:	02ad      	mov.n	a10, a2
400d0e13:	03b1a5        	call8	400d492c <chunk_size>
400d0e16:	b3aa      	add.n	a11, a3, a10
400d0e18:	b04b20        	addx8	a4, a11, a2
400d0e1b:	011442        	l16ui	a4, a4, 2
400d0e1e:	14e407        	bbsi	a4, 0, 400d0e36 <free_chunk+0x2a>
400d0e21:	02ad      	mov.n	a10, a2
400d0e23:	ffeea5        	call8	400d0d0c <free_list_remove>
400d0e26:	03bd      	mov.n	a11, a3
400d0e28:	02ad      	mov.n	a10, a2
400d0e2a:	03b025        	call8	400d492c <chunk_size>
400d0e2d:	c3aa      	add.n	a12, a3, a10
400d0e2f:	03bd      	mov.n	a11, a3
400d0e31:	02ad      	mov.n	a10, a2
400d0e33:	fff725        	call8	400d0da4 <merge_chunks>
400d0e36:	b04320        	addx8	a4, a3, a2
400d0e39:	0014b2        	l16ui	a11, a4, 0
400d0e3c:	c0b3b0        	sub	a11, a3, a11
400d0e3f:	b08b20        	addx8	a8, a11, a2
400d0e42:	011882        	l16ui	a8, a8, 2
400d0e45:	18e807        	bbsi	a8, 0, 400d0e61 <free_chunk+0x55>
400d0e48:	02ad      	mov.n	a10, a2
400d0e4a:	ffec25        	call8	400d0d0c <free_list_remove>
400d0e4d:	0014b2        	l16ui	a11, a4, 0
400d0e50:	03cd      	mov.n	a12, a3
400d0e52:	c0b3b0        	sub	a11, a3, a11
400d0e55:	20a220        	or	a10, a2, a2
400d0e58:	fff4a5        	call8	400d0da4 <merge_chunks>
400d0e5b:	001442        	l16ui	a4, a4, 0
400d0e5e:	c03340        	sub	a3, a3, a4
400d0e61:	03bd      	mov.n	a11, a3
400d0e63:	02ad      	mov.n	a10, a2
400d0e65:	ffe4a5        	call8	400d0cb0 <free_list_add>
400d0e68:	f01d      	retw.n
	...

400d0e6c <sys_heap_free>:
400d0e6c:	004136        	entry	a1, 32
400d0e6f:	01b316        	beqz	a3, 400d0e8e <sys_heap_free+0x22>
400d0e72:	002222        	l32i	a2, a2, 0
400d0e75:	fcc332        	addi	a3, a3, -4
400d0e78:	c03320        	sub	a3, a3, a2
400d0e7b:	413330        	srli	a3, a3, 3
400d0e7e:	03bd      	mov.n	a11, a3
400d0e80:	02ad      	mov.n	a10, a2
400d0e82:	0c0c      	movi.n	a12, 0
400d0e84:	03ab65        	call8	400d493c <set_chunk_used>
400d0e87:	03bd      	mov.n	a11, a3
400d0e89:	02ad      	mov.n	a10, a2
400d0e8b:	fff825        	call8	400d0e0c <free_chunk>
400d0e8e:	f01d      	retw.n

400d0e90 <sys_heap_alloc>:
400d0e90:	004136        	entry	a1, 32
400d0e93:	0248      	l32i.n	a4, a2, 0
400d0e95:	004356        	bnez	a3, 400d0e9d <sys_heap_alloc+0xd>
400d0e98:	020c      	movi.n	a2, 0
400d0e9a:	001206        	j	400d0ee6 <sys_heap_alloc+0x56>
400d0e9d:	2488      	l32i.n	a8, a4, 8
400d0e9f:	412330        	srli	a2, a3, 3
400d0ea2:	f2b287        	bgeu	a2, a8, 400d0e98 <sys_heap_alloc+0x8>
400d0ea5:	33bb      	addi.n	a3, a3, 11
400d0ea7:	413330        	srli	a3, a3, 3
400d0eaa:	03bd      	mov.n	a11, a3
400d0eac:	20a440        	or	a10, a4, a4
400d0eaf:	ffe7e5        	call8	400d0d2c <alloc_chunk>
400d0eb2:	0a2d      	mov.n	a2, a10
400d0eb4:	fe0a16        	beqz	a10, 400d0e98 <sys_heap_alloc+0x8>
400d0eb7:	0abd      	mov.n	a11, a10
400d0eb9:	04ad      	mov.n	a10, a4
400d0ebb:	03a725        	call8	400d492c <chunk_size>
400d0ebe:	13b3a7        	bgeu	a3, a10, 400d0ed5 <sys_heap_alloc+0x45>
400d0ec1:	323a      	add.n	a3, a2, a3
400d0ec3:	02bd      	mov.n	a11, a2
400d0ec5:	04ad      	mov.n	a10, a4
400d0ec7:	20c330        	or	a12, a3, a3
400d0eca:	fff0a5        	call8	400d0dd4 <split_chunks>
400d0ecd:	03bd      	mov.n	a11, a3
400d0ecf:	20a440        	or	a10, a4, a4
400d0ed2:	ffdde5        	call8	400d0cb0 <free_list_add>
400d0ed5:	20b220        	or	a11, a2, a2
400d0ed8:	01a0c2        	movi	a12, 1
400d0edb:	20a440        	or	a10, a4, a4
400d0ede:	b02240        	addx8	a2, a2, a4
400d0ee1:	03a5a5        	call8	400d493c <set_chunk_used>
400d0ee4:	224b      	addi.n	a2, a2, 4
400d0ee6:	f01d      	retw.n

400d0ee8 <sys_heap_aligned_alloc>:
400d0ee8:	004136        	entry	a1, 32
400d0eeb:	730b      	addi.n	a7, a3, -1
400d0eed:	107730        	and	a7, a7, a3
400d0ef0:	0258      	l32i.n	a5, a2, 0
400d0ef2:	079c      	beqz.n	a7, 400d0f06 <sys_heap_aligned_alloc+0x1e>
400d0ef4:	602030        	neg	a2, a3
400d0ef7:	102230        	and	a2, a2, a3
400d0efa:	460c      	movi.n	a6, 4
400d0efc:	073d      	mov.n	a3, a7
400d0efe:	636260        	minu	a6, a2, a6
400d0f01:	027d      	mov.n	a7, a2
400d0f03:	0004c6        	j	400d0f1a <sys_heap_aligned_alloc+0x32>
400d0f06:	04a062        	movi	a6, 4
400d0f09:	0d53f6        	bgeui	a3, 5, 400d0f1a <sys_heap_aligned_alloc+0x32>
400d0f0c:	20a220        	or	a10, a2, a2
400d0f0f:	20b440        	or	a11, a4, a4
400d0f12:	fff7e5        	call8	400d0e90 <sys_heap_alloc>
400d0f15:	0a2d      	mov.n	a2, a10
400d0f17:	002346        	j	400d0fa8 <sys_heap_aligned_alloc+0xc0>
400d0f1a:	44cc      	bnez.n	a4, 400d0f22 <sys_heap_aligned_alloc+0x3a>
400d0f1c:	020c      	movi.n	a2, 0
400d0f1e:	002186        	j	400d0fa8 <sys_heap_aligned_alloc+0xc0>
400d0f21:	00          	.byte 00
400d0f22:	022582        	l32i	a8, a5, 8
400d0f25:	412340        	srli	a2, a4, 3
400d0f28:	f0b287        	bgeu	a2, a8, 400d0f1c <sys_heap_aligned_alloc+0x34>
400d0f2b:	0bc4b2        	addi	a11, a4, 11
400d0f2e:	bb3a      	add.n	a11, a11, a3
400d0f30:	c0bb60        	sub	a11, a11, a6
400d0f33:	41b3b0        	srli	a11, a11, 3
400d0f36:	05ad      	mov.n	a10, a5
400d0f38:	ffdf25        	call8	400d0d2c <alloc_chunk>
400d0f3b:	0a6d      	mov.n	a6, a10
400d0f3d:	fdba16        	beqz	a10, 400d0f1c <sys_heap_aligned_alloc+0x34>
400d0f40:	274b      	addi.n	a2, a7, 4
400d0f42:	b02a20        	addx8	a2, a10, a2
400d0f45:	830b      	addi.n	a8, a3, -1
400d0f47:	252a      	add.n	a2, a5, a2
400d0f49:	603030        	neg	a3, a3
400d0f4c:	228a      	add.n	a2, a2, a8
400d0f4e:	102230        	and	a2, a2, a3
400d0f51:	c02270        	sub	a2, a2, a7
400d0f54:	424a      	add.n	a4, a2, a4
400d0f56:	fcc232        	addi	a3, a2, -4
400d0f59:	447b      	addi.n	a4, a4, 7
400d0f5b:	877c      	movi.n	a7, -8
400d0f5d:	c03350        	sub	a3, a3, a5
400d0f60:	104470        	and	a4, a4, a7
400d0f63:	c04450        	sub	a4, a4, a5
400d0f66:	413330        	srli	a3, a3, 3
400d0f69:	214340        	srai	a4, a4, 3
400d0f6c:	0fba37        	bgeu	a10, a3, 400d0f7f <sys_heap_aligned_alloc+0x97>
400d0f6f:	0abd      	mov.n	a11, a10
400d0f71:	03cd      	mov.n	a12, a3
400d0f73:	05ad      	mov.n	a10, a5
400d0f75:	ffe5e5        	call8	400d0dd4 <split_chunks>
400d0f78:	06bd      	mov.n	a11, a6
400d0f7a:	05ad      	mov.n	a10, a5
400d0f7c:	ffd325        	call8	400d0cb0 <free_list_add>
400d0f7f:	03bd      	mov.n	a11, a3
400d0f81:	05ad      	mov.n	a10, a5
400d0f83:	039aa5        	call8	400d492c <chunk_size>
400d0f86:	a3aa      	add.n	a10, a3, a10
400d0f88:	10b4a7        	bgeu	a4, a10, 400d0f9c <sys_heap_aligned_alloc+0xb4>
400d0f8b:	03bd      	mov.n	a11, a3
400d0f8d:	05ad      	mov.n	a10, a5
400d0f8f:	20c440        	or	a12, a4, a4
400d0f92:	ffe425        	call8	400d0dd4 <split_chunks>
400d0f95:	04bd      	mov.n	a11, a4
400d0f97:	05ad      	mov.n	a10, a5
400d0f99:	ffd165        	call8	400d0cb0 <free_list_add>
400d0f9c:	01a0c2        	movi	a12, 1
400d0f9f:	20b330        	or	a11, a3, a3
400d0fa2:	20a550        	or	a10, a5, a5
400d0fa5:	039965        	call8	400d493c <set_chunk_used>
400d0fa8:	f01d      	retw.n
	...

400d0fac <sys_heap_init>:
400d0fac:	004136        	entry	a1, 32
400d0faf:	fcc442        	addi	a4, a4, -4
400d0fb2:	857c      	movi.n	a5, -8
400d0fb4:	937b      	addi.n	a9, a3, 7
400d0fb6:	334a      	add.n	a3, a3, a4
400d0fb8:	109950        	and	a9, a9, a5
400d0fbb:	103350        	and	a3, a3, a5
400d0fbe:	c03390        	sub	a3, a3, a9
400d0fc1:	415330        	srli	a5, a3, 3
400d0fc4:	40f5a0        	nsau	a10, a5
400d0fc7:	082c      	movi.n	a8, 32
400d0fc9:	0299      	s32i.n	a9, a2, 0
400d0fcb:	c088a0        	sub	a8, a8, a10
400d0fce:	422c      	movi.n	a2, 36
400d0fd0:	c022a0        	sub	a2, a2, a10
400d0fd3:	1188e0        	slli	a8, a8, 2
400d0fd6:	1122e0        	slli	a2, a2, 2
400d0fd9:	fcc882        	addi	a8, a8, -4
400d0fdc:	060c      	movi.n	a6, 0
400d0fde:	227b      	addi.n	a2, a2, 7
400d0fe0:	418280        	srli	a8, a8, 2
400d0fe3:	094d      	mov.n	a4, a9
400d0fe5:	2959      	s32i.n	a5, a9, 8
400d0fe7:	3969      	s32i.n	a6, a9, 12
400d0fe9:	412320        	srli	a2, a2, 3
400d0fec:	881b      	addi.n	a8, a8, 1
400d0fee:	048876        	loop	a8, 400d0ff6 <sys_heap_init+0x4a>
400d0ff1:	4969      	s32i.n	a6, a9, 16
400d0ff3:	04c992        	addi	a9, a9, 4
400d0ff6:	822a      	add.n	a8, a2, a2
400d0ff8:	015482        	s16i	a8, a4, 2
400d0ffb:	04ad      	mov.n	a10, a4
400d0ffd:	005462        	s16i	a6, a4, 0
400d1000:	1c0c      	movi.n	a12, 1
400d1002:	0b0c      	movi.n	a11, 0
400d1004:	039365        	call8	400d493c <set_chunk_used>
400d1007:	c08520        	sub	a8, a5, a2
400d100a:	b09240        	addx8	a9, a2, a4
400d100d:	a88a      	add.n	a10, a8, a8
400d100f:	0159a2        	s16i	a10, a9, 2
400d1012:	005922        	s16i	a2, a9, 0
400d1015:	343a      	add.n	a3, a4, a3
400d1017:	05bd      	mov.n	a11, a5
400d1019:	20a440        	or	a10, a4, a4
400d101c:	015362        	s16i	a6, a3, 2
400d101f:	005382        	s16i	a8, a3, 0
400d1022:	1c0c      	movi.n	a12, 1
400d1024:	039165        	call8	400d493c <set_chunk_used>
400d1027:	02bd      	mov.n	a11, a2
400d1029:	04ad      	mov.n	a10, a4
400d102b:	ffc865        	call8	400d0cb0 <free_list_add>
400d102e:	f01d      	retw.n

400d1030 <get_usage>:
400d1030:	006136        	entry	a1, 48
400d1033:	20b110        	or	a11, a1, a1
400d1036:	20a220        	or	a10, a2, a2
400d1039:	0395e5        	call8	400d4998 <free_space>
400d103c:	009a16        	beqz	a10, 400d1049 <get_usage+0x19>
400d103f:	0188      	l32i.n	a8, a1, 0
400d1041:	3298      	l32i.n	a9, a2, 12
400d1043:	880b      	addi.n	a8, a8, -1
400d1045:	889a      	add.n	a8, a8, a9
400d1047:	0189      	s32i.n	a8, a1, 0
400d1049:	8228      	l32i.n	a2, a2, 32
400d104b:	0188      	l32i.n	a8, a1, 0
400d104d:	c02280        	sub	a2, a2, a8
400d1050:	220b      	addi.n	a2, a2, -1
400d1052:	f01d      	retw.n

400d1054 <rd_idx_inc>:
400d1054:	004136        	entry	a1, 32
400d1057:	32b8      	l32i.n	a11, a2, 12
400d1059:	03cd      	mov.n	a12, a3
400d105b:	02ad      	mov.n	a10, a2
400d105d:	0396a5        	call8	400d49c8 <idx_inc>
400d1060:	4288      	l32i.n	a8, a2, 16
400d1062:	797c      	movi.n	a9, -9
400d1064:	108890        	and	a8, a8, a9
400d1067:	32a9      	s32i.n	a10, a2, 12
400d1069:	4289      	s32i.n	a8, a2, 16
400d106b:	f01d      	retw.n
400d106d:	000000        	ill

400d1070 <add_skip_item>:
400d1070:	004136        	entry	a1, 32
400d1073:	02a082        	movi	a8, 2
400d1076:	1193e0        	slli	a9, a3, 2
400d1079:	0722a2        	l32i	a10, a2, 28
400d107c:	209980        	or	a9, a9, a8
400d107f:	0288      	l32i.n	a8, a2, 0
400d1081:	03cd      	mov.n	a12, a3
400d1083:	a088a0        	addx4	a8, a8, a10
400d1086:	0899      	s32i.n	a9, a8, 0
400d1088:	02b8      	l32i.n	a11, a2, 0
400d108a:	02ad      	mov.n	a10, a2
400d108c:	0393a5        	call8	400d49c8 <idx_inc>
400d108f:	3288      	l32i.n	a8, a2, 12
400d1091:	02a9      	s32i.n	a10, a2, 0
400d1093:	089a87        	bne	a10, a8, 400d109f <add_skip_item+0x2f>
400d1096:	4288      	l32i.n	a8, a2, 16
400d1098:	890c      	movi.n	a9, 8
400d109a:	208890        	or	a8, a8, a9
400d109d:	4289      	s32i.n	a8, a2, 16
400d109f:	12b8      	l32i.n	a11, a2, 4
400d10a1:	03cd      	mov.n	a12, a3
400d10a3:	02ad      	mov.n	a10, a2
400d10a5:	039225        	call8	400d49c8 <idx_inc>
400d10a8:	12a9      	s32i.n	a10, a2, 4
400d10aa:	f01d      	retw.n

400d10ac <drop_item_locked>:
400d10ac:	006136        	entry	a1, 48
400d10af:	3268      	l32i.n	a6, a2, 12
400d10b1:	03cd      	mov.n	a12, a3
400d10b3:	7238      	l32i.n	a3, a2, 28
400d10b5:	a06630        	addx4	a6, a6, a3
400d10b8:	06b8      	l32i.n	a11, a6, 0
400d10ba:	030c      	movi.n	a3, 0
400d10bc:	1470b0        	extui	a7, a11, 0, 2
400d10bf:	062726        	beqi	a7, 2, 400d10c9 <drop_item_locked+0x1d>
400d10c2:	0439      	s32i.n	a3, a4, 0
400d10c4:	0539      	s32i.n	a3, a5, 0
400d10c6:	0005c6        	j	400d10e1 <drop_item_locked+0x35>
400d10c9:	006432        	s32i	a3, a4, 0
400d10cc:	41b2b0        	srli	a11, a11, 2
400d10cf:	006532        	s32i	a3, a5, 0
400d10d2:	00bb16        	beqz	a11, 400d10e1 <drop_item_locked+0x35>
400d10d5:	02ad      	mov.n	a10, a2
400d10d7:	fff7e5        	call8	400d1054 <rd_idx_inc>
400d10da:	3238      	l32i.n	a3, a2, 12
400d10dc:	2239      	s32i.n	a3, a2, 8
400d10de:	002686        	j	400d117c <drop_item_locked+0xd0>
400d10e1:	4278      	l32i.n	a7, a2, 16
400d10e3:	230c      	movi.n	a3, 2
400d10e5:	048377        	bany	a3, a7, 400d10ed <drop_item_locked+0x41>
400d10e8:	020c      	movi.n	a2, 0
400d10ea:	002406        	j	400d117e <drop_item_locked+0xd2>
400d10ed:	6278      	l32i.n	a7, a2, 24
400d10ef:	06ad      	mov.n	a10, a6
400d10f1:	01c9      	s32i.n	a12, a1, 0
400d10f3:	0007e0        	callx8	a7
400d10f6:	0698      	l32i.n	a9, a6, 0
400d10f8:	01c8      	l32i.n	a12, a1, 0
400d10fa:	0a7d      	mov.n	a7, a10
400d10fc:	e86907        	bbci	a9, 0, 400d10e8 <drop_item_locked+0x3c>
400d10ff:	103390        	and	a3, a3, a9
400d1102:	038316        	beqz	a3, 400d113e <drop_item_locked+0x92>
400d1105:	5c8c      	beqz.n	a12, 400d110e <drop_item_locked+0x62>
400d1107:	0cbd      	mov.n	a11, a12
400d1109:	02ad      	mov.n	a10, a2
400d110b:	fff665        	call8	400d1070 <add_skip_item>
400d110e:	0122b2        	l32i	a11, a2, 4
400d1111:	20c770        	or	a12, a7, a7
400d1114:	02ad      	mov.n	a10, a2
400d1116:	038b25        	call8	400d49c8 <idx_inc>
400d1119:	32b8      	l32i.n	a11, a2, 12
400d111b:	2238      	l32i.n	a3, a2, 8
400d111d:	12a9      	s32i.n	a10, a2, 4
400d111f:	099b37        	bne	a11, a3, 400d112c <drop_item_locked+0x80>
400d1122:	07cd      	mov.n	a12, a7
400d1124:	20a220        	or	a10, a2, a2
400d1127:	038a25        	call8	400d49c8 <idx_inc>
400d112a:	22a9      	s32i.n	a10, a2, 8
400d112c:	2238      	l32i.n	a3, a2, 8
400d112e:	840c      	movi.n	a4, 8
400d1130:	0239      	s32i.n	a3, a2, 0
400d1132:	3239      	s32i.n	a3, a2, 12
400d1134:	4238      	l32i.n	a3, a2, 16
400d1136:	203340        	or	a3, a3, a4
400d1139:	4239      	s32i.n	a3, a2, 16
400d113b:	000f46        	j	400d117c <drop_item_locked+0xd0>
400d113e:	20baa0        	or	a11, a10, a10
400d1141:	0061c2        	s32i	a12, a1, 0
400d1144:	02ad      	mov.n	a10, a2
400d1146:	fff0e5        	call8	400d1054 <rd_idx_inc>
400d1149:	3298      	l32i.n	a9, a2, 12
400d114b:	2299      	s32i.n	a9, a2, 8
400d114d:	01c8      	l32i.n	a12, a1, 0
400d114f:	8c8c      	beqz.n	a12, 400d115b <drop_item_locked+0xaf>
400d1151:	0298      	l32i.n	a9, a2, 0
400d1153:	0722a2        	l32i	a10, a2, 28
400d1156:	a099a0        	addx4	a9, a9, a10
400d1159:	0939      	s32i.n	a3, a9, 0
400d115b:	c7ca      	add.n	a12, a7, a12
400d115d:	05c9      	s32i.n	a12, a5, 0
400d115f:	02b8      	l32i.n	a11, a2, 0
400d1161:	02ad      	mov.n	a10, a2
400d1163:	038665        	call8	400d49c8 <idx_inc>
400d1166:	4238      	l32i.n	a3, a2, 16
400d1168:	850c      	movi.n	a5, 8
400d116a:	203350        	or	a3, a3, a5
400d116d:	4239      	s32i.n	a3, a2, 16
400d116f:	02a9      	s32i.n	a10, a2, 0
400d1171:	0628      	l32i.n	a2, a6, 0
400d1173:	e37c      	movi.n	a3, -2
400d1175:	102230        	and	a2, a2, a3
400d1178:	0629      	s32i.n	a2, a6, 0
400d117a:	0469      	s32i.n	a6, a4, 0
400d117c:	120c      	movi.n	a2, 1
400d117e:	f01d      	retw.n

400d1180 <post_drop_action>:
400d1180:	004136        	entry	a1, 32
400d1183:	04cd      	mov.n	a12, a4
400d1185:	03bd      	mov.n	a11, a3
400d1187:	02ad      	mov.n	a10, a2
400d1189:	0383e5        	call8	400d49c8 <idx_inc>
400d118c:	0288      	l32i.n	a8, a2, 0
400d118e:	0f98a7        	bne	a8, a10, 400d11a1 <post_drop_action+0x21>
400d1191:	0239      	s32i.n	a3, a2, 0
400d1193:	4238      	l32i.n	a3, a2, 16
400d1195:	747c      	movi.n	a4, -9
400d1197:	103340        	and	a3, a3, a4
400d119a:	4239      	s32i.n	a3, a2, 16
400d119c:	000786        	j	400d11be <post_drop_action+0x3e>
400d119f:	00          	.byte 00
400d11a0:	00          	.byte 00
400d11a1:	02a092        	movi	a9, 2
400d11a4:	1184e0        	slli	a8, a4, 2
400d11a7:	208890        	or	a8, a8, a9
400d11aa:	072292        	l32i	a9, a2, 28
400d11ad:	20c440        	or	a12, a4, a4
400d11b0:	a03390        	addx4	a3, a3, a9
400d11b3:	0389      	s32i.n	a8, a3, 0
400d11b5:	12b8      	l32i.n	a11, a2, 4
400d11b7:	02ad      	mov.n	a10, a2
400d11b9:	0380e5        	call8	400d49c8 <idx_inc>
400d11bc:	12a9      	s32i.n	a10, a2, 4
400d11be:	f01d      	retw.n

400d11c0 <max_utilization_update>:
400d11c0:	004136        	entry	a1, 32
400d11c3:	4238      	l32i.n	a3, a2, 16
400d11c5:	0c6327        	bbci	a3, 2, 400d11d5 <max_utilization_update+0x15>
400d11c8:	9238      	l32i.n	a3, a2, 36
400d11ca:	20a220        	or	a10, a2, a2
400d11cd:	ffe625        	call8	400d1030 <get_usage>
400d11d0:	73a3a0        	maxu	a10, a3, a10
400d11d3:	92a9      	s32i.n	a10, a2, 36
400d11d5:	f01d      	retw.n
	...

400d11d8 <mpsc_pbuf_init>:
400d11d8:	004136        	entry	a1, 32
400d11db:	cc1c      	movi.n	a12, 28
400d11dd:	0b0c      	movi.n	a11, 0
400d11df:	02ad      	mov.n	a10, a2
400d11e1:	b2a325        	call8	40083c14 <memset>
400d11e4:	3388      	l32i.n	a8, a3, 12
400d11e6:	090c      	movi.n	a9, 0
400d11e8:	6289      	s32i.n	a8, a2, 24
400d11ea:	2388      	l32i.n	a8, a3, 8
400d11ec:	5289      	s32i.n	a8, a2, 20
400d11ee:	0388      	l32i.n	a8, a3, 0
400d11f0:	7289      	s32i.n	a8, a2, 28
400d11f2:	1388      	l32i.n	a8, a3, 4
400d11f4:	9299      	s32i.n	a9, a2, 36
400d11f6:	8289      	s32i.n	a8, a2, 32
400d11f8:	4338      	l32i.n	a3, a3, 16
400d11fa:	0b1897        	beq	a8, a9, 400d1209 <mpsc_pbuf_init+0x31>
400d11fd:	ffc892        	addi	a9, a8, -1
400d1200:	058987        	bany	a9, a8, 400d1209 <mpsc_pbuf_init+0x31>
400d1203:	01a082        	movi	a8, 1
400d1206:	203380        	or	a3, a3, a8
400d1209:	046232        	s32i	a3, a2, 16
400d120c:	01a0c2        	movi	a12, 1
400d120f:	00a0b2        	movi	a11, 0
400d1212:	28c2a2        	addi	a10, a2, 40
400d1215:	b15665        	call8	4008277c <z_impl_k_sem_init>
400d1218:	f01d      	retw.n
	...

400d121c <mpsc_pbuf_alloc>:
400d121c:	008136        	entry	a1, 64
400d121f:	5149      	s32i.n	a4, a1, 20
400d1221:	6159      	s32i.n	a5, a1, 24
400d1223:	040c      	movi.n	a4, 0
400d1225:	8258      	l32i.n	a5, a2, 32
400d1227:	2149      	s32i.n	a4, a1, 8
400d1229:	0149      	s32i.n	a4, a1, 0
400d122b:	026d      	mov.n	a6, a2
400d122d:	042d      	mov.n	a2, a4
400d122f:	02b537        	bgeu	a5, a3, 400d1235 <mpsc_pbuf_alloc+0x19>
400d1232:	003186        	j	400d12fc <mpsc_pbuf_alloc+0xe0>
400d1235:	006370        	rsil	a7, 3
400d1238:	0021c2        	l32i	a12, a1, 0
400d123b:	046172        	s32i	a7, a1, 16
400d123e:	00ac16        	beqz	a12, 400d124c <mpsc_pbuf_alloc+0x30>
400d1241:	04bd      	mov.n	a11, a4
400d1243:	06ad      	mov.n	a10, a6
400d1245:	050c      	movi.n	a5, 0
400d1247:	fff3a5        	call8	400d1180 <post_drop_action>
400d124a:	0159      	s32i.n	a5, a1, 0
400d124c:	04c1b2        	addi	a11, a1, 4
400d124f:	20a660        	or	a10, a6, a6
400d1252:	037465        	call8	400d4998 <free_space>
400d1255:	11b8      	l32i.n	a11, a1, 4
400d1257:	0a5d      	mov.n	a5, a10
400d1259:	353b37        	bltu	a11, a3, 400d1292 <mpsc_pbuf_alloc+0x76>
400d125c:	0628      	l32i.n	a2, a6, 0
400d125e:	7658      	l32i.n	a5, a6, 28
400d1260:	c77c      	movi.n	a7, -4
400d1262:	a02250        	addx4	a2, a2, a5
400d1265:	000252        	l8ui	a5, a2, 0
400d1268:	03cd      	mov.n	a12, a3
400d126a:	105570        	and	a5, a5, a7
400d126d:	004252        	s8i	a5, a2, 0
400d1270:	06b8      	l32i.n	a11, a6, 0
400d1272:	20a660        	or	a10, a6, a6
400d1275:	037525        	call8	400d49c8 <idx_inc>
400d1278:	3658      	l32i.n	a5, a6, 12
400d127a:	06a9      	s32i.n	a10, a6, 0
400d127c:	041a57        	beq	a10, a5, 400d1284 <mpsc_pbuf_alloc+0x68>
400d127f:	050c      	movi.n	a5, 0
400d1281:	0016c6        	j	400d12e0 <mpsc_pbuf_alloc+0xc4>
400d1284:	4658      	l32i.n	a5, a6, 16
400d1286:	870c      	movi.n	a7, 8
400d1288:	205570        	or	a5, a5, a7
400d128b:	4659      	s32i.n	a5, a6, 16
400d128d:	fffb86        	j	400d127f <mpsc_pbuf_alloc+0x63>
400d1290:	00          	.byte 00
400d1291:	00          	.byte 00
400d1292:	6a8c      	beqz.n	a10, 400d129c <mpsc_pbuf_alloc+0x80>
400d1294:	06ad      	mov.n	a10, a6
400d1296:	ffdda5        	call8	400d1070 <add_skip_item>
400d1299:	0010c6        	j	400d12e0 <mpsc_pbuf_alloc+0xc4>
400d129c:	052182        	l32i	a8, a1, 20
400d129f:	0621a2        	l32i	a10, a1, 24
400d12a2:	2098a0        	or	a9, a8, a10
400d12a5:	79ac      	beqz.n	a9, 400d12d0 <mpsc_pbuf_alloc+0xb4>
400d12a7:	71b9      	s32i.n	a11, a1, 28
400d12a9:	b14ae5        	call8	40082758 <k_is_in_isr>
400d12ac:	71b8      	l32i.n	a11, a1, 28
400d12ae:	eadc      	bnez.n	a10, 400d12d0 <mpsc_pbuf_alloc+0xb4>
400d12b0:	13e670        	wsr.ps	a7
400d12b3:	002010        	rsync
400d12b6:	51c8      	l32i.n	a12, a1, 20
400d12b8:	61d8      	l32i.n	a13, a1, 24
400d12ba:	28c6a2        	addi	a10, a6, 40
400d12bd:	b066e5        	call8	4008192c <z_impl_k_sem_take>
400d12c0:	006370        	rsil	a7, 3
400d12c3:	4179      	s32i.n	a7, a1, 16
400d12c5:	170c      	movi.n	a7, 1
400d12c7:	8357a0        	moveqz	a5, a7, a10
400d12ca:	745050        	extui	a5, a5, 0, 8
400d12cd:	0003c6        	j	400d12e0 <mpsc_pbuf_alloc+0xc4>
400d12d0:	20d110        	or	a13, a1, a1
400d12d3:	08c1c2        	addi	a12, a1, 8
400d12d6:	20a660        	or	a10, a6, a6
400d12d9:	0648      	l32i.n	a4, a6, 0
400d12db:	ffdd25        	call8	400d10ac <drop_item_locked>
400d12de:	0a5d      	mov.n	a5, a10
400d12e0:	4188      	l32i.n	a8, a1, 16
400d12e2:	13e680        	wsr.ps	a8
400d12e5:	002010        	rsync
400d12e8:	21b8      	l32i.n	a11, a1, 8
400d12ea:	bb8c      	beqz.n	a11, 400d12f9 <mpsc_pbuf_alloc+0xdd>
400d12ec:	5678      	l32i.n	a7, a6, 20
400d12ee:	378c      	beqz.n	a7, 400d12f5 <mpsc_pbuf_alloc+0xd9>
400d12f0:	06ad      	mov.n	a10, a6
400d12f2:	0007e0        	callx8	a7
400d12f5:	0a0c      	movi.n	a10, 0
400d12f7:	21a9      	s32i.n	a10, a1, 8
400d12f9:	f38556        	bnez	a5, 400d1235 <mpsc_pbuf_alloc+0x19>
400d12fc:	f01d      	retw.n
	...

400d1300 <mpsc_pbuf_commit>:
400d1300:	004136        	entry	a1, 32
400d1303:	6248      	l32i.n	a4, a2, 24
400d1305:	03ad      	mov.n	a10, a3
400d1307:	0004e0        	callx8	a4
400d130a:	006340        	rsil	a4, 3
400d130d:	0388      	l32i.n	a8, a3, 0
400d130f:	190c      	movi.n	a9, 1
400d1311:	208890        	or	a8, a8, a9
400d1314:	0389      	s32i.n	a8, a3, 0
400d1316:	12b8      	l32i.n	a11, a2, 4
400d1318:	20caa0        	or	a12, a10, a10
400d131b:	20a220        	or	a10, a2, a2
400d131e:	036aa5        	call8	400d49c8 <idx_inc>
400d1321:	12a9      	s32i.n	a10, a2, 4
400d1323:	02ad      	mov.n	a10, a2
400d1325:	ffe9a5        	call8	400d11c0 <max_utilization_update>
400d1328:	13e640        	wsr.ps	a4
400d132b:	002010        	rsync
400d132e:	f01d      	retw.n

400d1330 <mpsc_pbuf_claim>:
400d1330:	004136        	entry	a1, 32
400d1333:	023d      	mov.n	a3, a2
400d1335:	860c      	movi.n	a6, 8
400d1337:	006340        	rsil	a4, 3
400d133a:	4358      	l32i.n	a5, a3, 16
400d133c:	2328      	l32i.n	a2, a3, 8
400d133e:	078657        	bany	a6, a5, 400d1349 <mpsc_pbuf_claim+0x19>
400d1341:	1388      	l32i.n	a8, a3, 4
400d1343:	c05820        	sub	a5, a8, a2
400d1346:	04b827        	bgeu	a8, a2, 400d134e <mpsc_pbuf_claim+0x1e>
400d1349:	8358      	l32i.n	a5, a3, 32
400d134b:	c05520        	sub	a5, a5, a2
400d134e:	7388      	l32i.n	a8, a3, 28
400d1350:	15cc      	bnez.n	a5, 400d1355 <mpsc_pbuf_claim+0x25>
400d1352:	001886        	j	400d13b8 <mpsc_pbuf_claim+0x88>
400d1355:	a02280        	addx4	a2, a2, a8
400d1358:	002282        	l32i	a8, a2, 0
400d135b:	145080        	extui	a5, a8, 0, 2
400d135e:	056516        	beqz	a5, 400d13b8 <mpsc_pbuf_claim+0x88>
400d1361:	052566        	bnei	a5, 2, 400d136a <mpsc_pbuf_claim+0x3a>
400d1364:	415280        	srli	a5, a8, 2
400d1367:	00b556        	bnez	a5, 400d1376 <mpsc_pbuf_claim+0x46>
400d136a:	23e807        	bbsi	a8, 0, 400d1391 <mpsc_pbuf_claim+0x61>
400d136d:	6358      	l32i.n	a5, a3, 24
400d136f:	02ad      	mov.n	a10, a2
400d1371:	0005e0        	callx8	a5
400d1374:	0a5d      	mov.n	a5, a10
400d1376:	23b8      	l32i.n	a11, a3, 8
400d1378:	05cd      	mov.n	a12, a5
400d137a:	03ad      	mov.n	a10, a3
400d137c:	0364a5        	call8	400d49c8 <idx_inc>
400d137f:	23a9      	s32i.n	a10, a3, 8
400d1381:	05bd      	mov.n	a11, a5
400d1383:	03ad      	mov.n	a10, a3
400d1385:	ffcce5        	call8	400d1054 <rd_idx_inc>
400d1388:	13e640        	wsr.ps	a4
400d138b:	002010        	rsync
400d138e:	ffe946        	j	400d1337 <mpsc_pbuf_claim+0x7>
400d1391:	02a052        	movi	a5, 2
400d1394:	208850        	or	a8, a8, a5
400d1397:	006282        	s32i	a8, a2, 0
400d139a:	062362        	l32i	a6, a3, 24
400d139d:	2358      	l32i.n	a5, a3, 8
400d139f:	02ad      	mov.n	a10, a2
400d13a1:	0006e0        	callx8	a6
400d13a4:	0acd      	mov.n	a12, a10
400d13a6:	05bd      	mov.n	a11, a5
400d13a8:	03ad      	mov.n	a10, a3
400d13aa:	0361e5        	call8	400d49c8 <idx_inc>
400d13ad:	23a9      	s32i.n	a10, a3, 8
400d13af:	13e640        	wsr.ps	a4
400d13b2:	002010        	rsync
400d13b5:	0001c6        	j	400d13c0 <mpsc_pbuf_claim+0x90>
400d13b8:	13e640        	wsr.ps	a4
400d13bb:	002010        	rsync
400d13be:	020c      	movi.n	a2, 0
400d13c0:	f01d      	retw.n
	...

400d13c4 <mpsc_pbuf_free>:
400d13c4:	004136        	entry	a1, 32
400d13c7:	6248      	l32i.n	a4, a2, 24
400d13c9:	03ad      	mov.n	a10, a3
400d13cb:	0004e0        	callx8	a4
400d13ce:	0a5d      	mov.n	a5, a10
400d13d0:	006340        	rsil	a4, 3
400d13d3:	0388      	l32i.n	a8, a3, 0
400d13d5:	e97c      	movi.n	a9, -2
400d13d7:	108890        	and	a8, a8, a9
400d13da:	0389      	s32i.n	a8, a3, 0
400d13dc:	4298      	l32i.n	a9, a2, 16
400d13de:	0a6917        	bbci	a9, 1, 400d13ec <mpsc_pbuf_free+0x28>
400d13e1:	032292        	l32i	a9, a2, 12
400d13e4:	72a8      	l32i.n	a10, a2, 28
400d13e6:	a099a0        	addx4	a9, a9, a10
400d13e9:	289397        	bne	a3, a9, 400d1415 <mpsc_pbuf_free+0x51>
400d13ec:	002382        	l32i	a8, a3, 0
400d13ef:	fdaf92        	movi	a9, -3
400d13f2:	108890        	and	a8, a8, a9
400d13f5:	006382        	s32i	a8, a3, 0
400d13f8:	2238      	l32i.n	a3, a2, 8
400d13fa:	32b8      	l32i.n	a11, a2, 12
400d13fc:	089b37        	bne	a11, a3, 400d1408 <mpsc_pbuf_free+0x44>
400d13ff:	05cd      	mov.n	a12, a5
400d1401:	02ad      	mov.n	a10, a2
400d1403:	035c65        	call8	400d49c8 <idx_inc>
400d1406:	22a9      	s32i.n	a10, a2, 8
400d1408:	05bd      	mov.n	a11, a5
400d140a:	02ad      	mov.n	a10, a2
400d140c:	ffc465        	call8	400d1054 <rd_idx_inc>
400d140f:	000346        	j	400d1420 <mpsc_pbuf_free+0x5c>
400d1412:	00          	.byte 00
400d1413:	00          	.byte 00
400d1414:	00          	.byte 00
400d1415:	1155e0        	slli	a5, a5, 2
400d1418:	148080        	extui	a8, a8, 0, 2
400d141b:	208850        	or	a8, a8, a5
400d141e:	0389      	s32i.n	a8, a3, 0
400d1420:	13e640        	wsr.ps	a4
400d1423:	002010        	rsync
400d1426:	28c2a2        	addi	a10, a2, 40
400d1429:	b04c65        	call8	400818f0 <z_impl_k_sem_give>
400d142c:	f01d      	retw.n
	...

400d1430 <log_backend_enable>:
400d1430:	004136        	entry	a1, 32
400d1433:	fb0581        	l32r	a8, 400d0048 <_image_irom_vaddr+0x28> (3ffb0838 <__data_end>)
400d1436:	012292        	l32i	a9, a2, 4
400d1439:	c08280        	sub	a8, a2, a8
400d143c:	218480        	srai	a8, a8, 4
400d143f:	01c882        	addi	a8, a8, 1
400d1442:	044982        	s8i	a8, a9, 4
400d1445:	012282        	l32i	a8, a2, 4
400d1448:	064842        	s8i	a4, a8, 6
400d144b:	1288      	l32i.n	a8, a2, 4
400d144d:	0839      	s32i.n	a3, a8, 0
400d144f:	1228      	l32i.n	a2, a2, 4
400d1451:	180c      	movi.n	a8, 1
400d1453:	054282        	s8i	a8, a2, 5
400d1456:	b172e5        	call8	40082b84 <z_log_notify_backend_enabled>
400d1459:	f01d      	retw.n
	...

400d145c <adc_hal_convert>:
400d145c:	006136        	entry	a1, 48
400d145f:	1a0c      	movi.n	a10, 1
400d1461:	401300        	ssl	a3
400d1464:	a13a00        	sll	a3, a10
400d1467:	b43030        	extui	a3, a3, 0, 12
400d146a:	faf881        	l32r	a8, 400d004c <_image_irom_vaddr+0x2c> (3ff48800 <SENS>)
400d146d:	faf8b1        	l32r	a11, 400d0050 <_image_irom_vaddr+0x30> (8007ffff <_rtc_bss_end+0x3007ffff>)
400d1470:	0133d0        	slli	a3, a3, 19
400d1473:	52dc      	bnez.n	a2, 400d148c <adc_hal_convert+0x30>
400d1475:	0020c0        	memw
400d1478:	152892        	l32i	a9, a8, 84
400d147b:	1099b0        	and	a9, a9, a11
400d147e:	203930        	or	a3, a9, a3
400d1481:	0020c0        	memw
400d1484:	156832        	s32i	a3, a8, 84
400d1487:	000e86        	j	400d14c5 <adc_hal_convert+0x69>
400d148a:	00          	.byte 00
400d148b:	00          	.byte 00
400d148c:	0020c0        	memw
400d148f:	252892        	l32i	a9, a8, 148
400d1492:	01aaf0        	slli	a10, a10, 17
400d1495:	1099b0        	and	a9, a9, a11
400d1498:	203930        	or	a3, a9, a3
400d149b:	0020c0        	memw
400d149e:	256832        	s32i	a3, a8, 148
400d14a1:	0020c0        	memw
400d14a4:	252832        	l32i	a3, a8, 148
400d14a7:	faeb91        	l32r	a9, 400d0054 <_image_irom_vaddr+0x34> (fffdffff <_rtc_bss_end+0xaffdffff>)
400d14aa:	103390        	and	a3, a3, a9
400d14ad:	0020c0        	memw
400d14b0:	256832        	s32i	a3, a8, 148
400d14b3:	0020c0        	memw
400d14b6:	252832        	l32i	a3, a8, 148
400d14b9:	2033a0        	or	a3, a3, a10
400d14bc:	0020c0        	memw
400d14bf:	256832        	s32i	a3, a8, 148
400d14c2:	000e86        	j	400d1500 <adc_hal_convert+0xa4>
400d14c5:	0020c0        	memw
400d14c8:	f838      	l32i.n	a3, a8, 60
400d14ca:	0020c0        	memw
400d14cd:	2139      	s32i.n	a3, a1, 8
400d14cf:	0020c0        	memw
400d14d2:	2138      	l32i.n	a3, a1, 8
400d14d4:	753630        	extui	a3, a3, 22, 8
400d14d7:	fea356        	bnez	a3, 400d14c5 <adc_hal_convert+0x69>
400d14da:	0020c0        	memw
400d14dd:	152832        	l32i	a3, a8, 84
400d14e0:	fadd91        	l32r	a9, 400d0054 <_image_irom_vaddr+0x34> (fffdffff <_rtc_bss_end+0xaffdffff>)
400d14e3:	103390        	and	a3, a3, a9
400d14e6:	0020c0        	memw
400d14e9:	156832        	s32i	a3, a8, 84
400d14ec:	0020c0        	memw
400d14ef:	152832        	l32i	a3, a8, 84
400d14f2:	190c      	movi.n	a9, 1
400d14f4:	0199f0        	slli	a9, a9, 17
400d14f7:	203390        	or	a3, a3, a9
400d14fa:	0020c0        	memw
400d14fd:	156832        	s32i	a3, a8, 84
400d1500:	72cc      	bnez.n	a2, 400d150b <adc_hal_convert+0xaf>
400d1502:	0020c0        	memw
400d1505:	152832        	l32i	a3, a8, 84
400d1508:	000146        	j	400d1511 <adc_hal_convert+0xb5>
400d150b:	0020c0        	memw
400d150e:	252832        	l32i	a3, a8, 148
400d1511:	053030        	extui	a3, a3, 16, 1
400d1514:	fe8316        	beqz	a3, 400d1500 <adc_hal_convert+0xa4>
400d1517:	22dc      	bnez.n	a2, 400d152d <adc_hal_convert+0xd1>
400d1519:	0020c0        	memw
400d151c:	152822        	l32i	a2, a8, 84
400d151f:	0020c0        	memw
400d1522:	1129      	s32i.n	a2, a1, 4
400d1524:	0020c0        	memw
400d1527:	021132        	l16ui	a3, a1, 4
400d152a:	000406        	j	400d153e <adc_hal_convert+0xe2>
400d152d:	0020c0        	memw
400d1530:	252822        	l32i	a2, a8, 148
400d1533:	0020c0        	memw
400d1536:	0129      	s32i.n	a2, a1, 0
400d1538:	0020c0        	memw
400d153b:	001132        	l16ui	a3, a1, 0
400d153e:	f43030        	extui	a3, a3, 0, 16
400d1541:	0439      	s32i.n	a3, a4, 0
400d1543:	020c      	movi.n	a2, 0
400d1545:	f01d      	retw.n
	...

400d1548 <adc_ll_amp_disable>:
400d1548:	006136        	entry	a1, 48
400d154b:	fac081        	l32r	a8, 400d004c <_image_irom_vaddr+0x2c> (3ff48800 <SENS>)
400d154e:	fac2a1        	l32r	a10, 400d0058 <_image_irom_vaddr+0x38> (fffcffff <_rtc_bss_end+0xaffcffff>)
400d1551:	0020c0        	memw
400d1554:	3898      	l32i.n	a9, a8, 12
400d1556:	1099a0        	and	a9, a9, a10
400d1559:	1a0c      	movi.n	a10, 1
400d155b:	01aaf0        	slli	a10, a10, 17
400d155e:	2099a0        	or	a9, a9, a10
400d1561:	0020c0        	memw
400d1564:	3899      	s32i.n	a9, a8, 12
400d1566:	0020c0        	memw
400d1569:	4898      	l32i.n	a9, a8, 16
400d156b:	0fafa2        	movi	a10, -241
400d156e:	1099a0        	and	a9, a9, a10
400d1571:	0020c0        	memw
400d1574:	4899      	s32i.n	a9, a8, 16
400d1576:	0020c0        	memw
400d1579:	4898      	l32i.n	a9, a8, 16
400d157b:	fab8a1        	l32r	a10, 400d005c <_image_irom_vaddr+0x3c> (fffff0ff <_rtc_bss_end+0xaffff0ff>)
400d157e:	1099a0        	and	a9, a9, a10
400d1581:	0020c0        	memw
400d1584:	4899      	s32i.n	a9, a8, 16
400d1586:	0020c0        	memw
400d1589:	4898      	l32i.n	a9, a8, 16
400d158b:	fab5a1        	l32r	a10, 400d0060 <_image_irom_vaddr+0x40> (ffff0fff <_rtc_bss_end+0xafff0fff>)
400d158e:	1099a0        	and	a9, a9, a10
400d1591:	0020c0        	memw
400d1594:	4899      	s32i.n	a9, a8, 16
400d1596:	0020c0        	memw
400d1599:	2898      	l32i.n	a9, a8, 8
400d159b:	0020c0        	memw
400d159e:	2199      	s32i.n	a9, a1, 8
400d15a0:	190c      	movi.n	a9, 1
400d15a2:	0020c0        	memw
400d15a5:	045192        	s16i	a9, a1, 8
400d15a8:	0020c0        	memw
400d15ab:	21a8      	l32i.n	a10, a1, 8
400d15ad:	0020c0        	memw
400d15b0:	28a9      	s32i.n	a10, a8, 8
400d15b2:	0020c0        	memw
400d15b5:	28a8      	l32i.n	a10, a8, 8
400d15b7:	0020c0        	memw
400d15ba:	11a9      	s32i.n	a10, a1, 4
400d15bc:	0020c0        	memw
400d15bf:	035192        	s16i	a9, a1, 6
400d15c2:	0020c0        	memw
400d15c5:	11a8      	l32i.n	a10, a1, 4
400d15c7:	0020c0        	memw
400d15ca:	28a9      	s32i.n	a10, a8, 8
400d15cc:	0020c0        	memw
400d15cf:	38a8      	l32i.n	a10, a8, 12
400d15d1:	0020c0        	memw
400d15d4:	01a9      	s32i.n	a10, a1, 0
400d15d6:	0020c0        	memw
400d15d9:	005192        	s16i	a9, a1, 0
400d15dc:	0020c0        	memw
400d15df:	0198      	l32i.n	a9, a1, 0
400d15e1:	0020c0        	memw
400d15e4:	3899      	s32i.n	a9, a8, 12
400d15e6:	f01d      	retw.n

400d15e8 <z_log_msg_static_create$constprop$0>:
400d15e8:	004136        	entry	a1, 32
400d15eb:	20a220        	or	a10, a2, a2
400d15ee:	20b330        	or	a11, a3, a3
400d15f1:	20c440        	or	a12, a4, a4
400d15f4:	0d0c      	movi.n	a13, 0
400d15f6:	b23d25        	call8	400839c8 <z_impl_z_log_msg_static_create>
400d15f9:	f01d      	retw.n
	...

400d15fc <adc1_get_raw$part$0>:
400d15fc:	006136        	entry	a1, 48
400d15ff:	d0c122        	addi	a2, a1, -48
400d1602:	017d      	mov.n	a7, a1
400d1604:	001210        	movsp	a1, a2
400d1607:	018d      	mov.n	a8, a1
400d1609:	fa9691        	l32r	a9, 400d0064 <_image_irom_vaddr+0x44> (3f400bf4 <gpio_esp32_driver_api+0x148>)
400d160c:	fa97a1        	l32r	a10, 400d0068 <_image_irom_vaddr+0x48> (3f400cf4 <__FUNCTION__$3>)
400d160f:	5899      	s32i.n	a9, a8, 20
400d1611:	090c      	movi.n	a9, 0
400d1613:	004792        	s8i	a9, a7, 0
400d1616:	290c      	movi.n	a9, 2
400d1618:	014792        	s8i	a9, a7, 1
400d161b:	024792        	s8i	a9, a7, 2
400d161e:	490c      	movi.n	a9, 4
400d1620:	034792        	s8i	a9, a7, 3
400d1623:	fa9291        	l32r	a9, 400d006c <_image_irom_vaddr+0x4c> (3f400bff <gpio_esp32_driver_api+0x153>)
400d1626:	68a9      	s32i.n	a10, a8, 24
400d1628:	b6a1a2        	movi	a10, 0x1b6
400d162b:	78a9      	s32i.n	a10, a8, 28
400d162d:	8899      	s32i.n	a9, a8, 32
400d162f:	10c8c2        	addi	a12, a8, 16
400d1632:	090c      	movi.n	a9, 0
400d1634:	4a0c      	movi.n	a10, 4
400d1636:	0d8a76        	loop	a10, 400d1647 <adc1_get_raw$part$0+0x4b>
400d1639:	d79a      	add.n	a13, a7, a9
400d163b:	000dd2        	l8ui	a13, a13, 0
400d163e:	80b890        	add	a11, a8, a9
400d1641:	244bd2        	s8i	a13, a11, 36
400d1644:	01c992        	addi	a9, a9, 1
400d1647:	fa8a91        	l32r	a9, 400d0070 <_image_irom_vaddr+0x50> (2000005 <CONFIG_FLASH_SIZE+0x1c00005>)
400d164a:	fa8aa1        	l32r	a10, 400d0074 <_image_irom_vaddr+0x54> (3ffb07f0 <log_const_adc_common>)
400d164d:	c1a0b2        	movi	a11, 193
400d1650:	046892        	s32i	a9, a8, 16
400d1653:	11bba0        	slli	a11, a11, 6
400d1656:	fff925        	call8	400d15e8 <z_log_msg_static_create$constprop$0>
400d1659:	02a122        	movi	a2, 0x102
400d165c:	f01d      	retw.n
	...

400d1660 <adc1_lock_release$part$0>:
400d1660:	006136        	entry	a1, 48
400d1663:	d0c122        	addi	a2, a1, -48
400d1666:	017d      	mov.n	a7, a1
400d1668:	001210        	movsp	a1, a2
400d166b:	018d      	mov.n	a8, a1
400d166d:	fa7d91        	l32r	a9, 400d0064 <_image_irom_vaddr+0x44> (3f400bf4 <gpio_esp32_driver_api+0x148>)
400d1670:	fa82a1        	l32r	a10, 400d0078 <_image_irom_vaddr+0x58> (3f400d01 <__FUNCTION__$4>)
400d1673:	5899      	s32i.n	a9, a8, 20
400d1675:	090c      	movi.n	a9, 0
400d1677:	004792        	s8i	a9, a7, 0
400d167a:	290c      	movi.n	a9, 2
400d167c:	014792        	s8i	a9, a7, 1
400d167f:	024792        	s8i	a9, a7, 2
400d1682:	490c      	movi.n	a9, 4
400d1684:	034792        	s8i	a9, a7, 3
400d1687:	fa7d91        	l32r	a9, 400d007c <_image_irom_vaddr+0x5c> (3f400c1a <gpio_esp32_driver_api+0x16e>)
400d168a:	68a9      	s32i.n	a10, a8, 24
400d168c:	aba1a2        	movi	a10, 0x1ab
400d168f:	78a9      	s32i.n	a10, a8, 28
400d1691:	8899      	s32i.n	a9, a8, 32
400d1693:	10c8c2        	addi	a12, a8, 16
400d1696:	090c      	movi.n	a9, 0
400d1698:	4a0c      	movi.n	a10, 4
400d169a:	0d8a76        	loop	a10, 400d16ab <adc1_lock_release$part$0+0x4b>
400d169d:	d79a      	add.n	a13, a7, a9
400d169f:	000dd2        	l8ui	a13, a13, 0
400d16a2:	80b890        	add	a11, a8, a9
400d16a5:	244bd2        	s8i	a13, a11, 36
400d16a8:	01c992        	addi	a9, a9, 1
400d16ab:	fa7191        	l32r	a9, 400d0070 <_image_irom_vaddr+0x50> (2000005 <CONFIG_FLASH_SIZE+0x1c00005>)
400d16ae:	fa71a1        	l32r	a10, 400d0074 <_image_irom_vaddr+0x54> (3ffb07f0 <log_const_adc_common>)
400d16b1:	c1a0b2        	movi	a11, 193
400d16b4:	046892        	s32i	a9, a8, 16
400d16b7:	11bba0        	slli	a11, a11, 6
400d16ba:	fff2e5        	call8	400d15e8 <z_log_msg_static_create$constprop$0>
400d16bd:	03a122        	movi	a2, 0x103
400d16c0:	f01d      	retw.n
	...

400d16c4 <k_mutex_unlock$isra$0>:
400d16c4:	004136        	entry	a1, 32
400d16c7:	02ad      	mov.n	a10, a2
400d16c9:	b01c25        	call8	4008188c <z_impl_k_mutex_unlock>
400d16cc:	f01d      	retw.n
	...

400d16d0 <adc_power_acquire>:
400d16d0:	004136        	entry	a1, 32
400d16d3:	0063a0        	rsil	a10, 3
400d16d6:	fa6a81        	l32r	a8, 400d0080 <_image_irom_vaddr+0x60> (3ffb1dc0 <adc_context>)
400d16d9:	fa6a91        	l32r	a9, 400d0084 <_image_irom_vaddr+0x64> (3ffb1dbc <s_adc_power_on_cnt>)
400d16dc:	08a9      	s32i.n	a10, a8, 0
400d16de:	0988      	l32i.n	a8, a9, 0
400d16e0:	881b      	addi.n	a8, a8, 1
400d16e2:	0989      	s32i.n	a8, a9, 0
400d16e4:	141866        	bnei	a8, 1, 400d16fc <adc_power_acquire+0x2c>
400d16e7:	fa59b1        	l32r	a11, 400d004c <_image_irom_vaddr+0x2c> (3ff48800 <SENS>)
400d16ea:	390c      	movi.n	a9, 3
400d16ec:	0020c0        	memw
400d16ef:	3b88      	l32i.n	a8, a11, 12
400d16f1:	0199e0        	slli	a9, a9, 18
400d16f4:	208890        	or	a8, a8, a9
400d16f7:	0020c0        	memw
400d16fa:	3b89      	s32i.n	a8, a11, 12
400d16fc:	13e6a0        	wsr.ps	a10
400d16ff:	002010        	rsync
400d1702:	f01d      	retw.n

400d1704 <adc_power_release>:
400d1704:	004136        	entry	a1, 32
400d1707:	006390        	rsil	a9, 3
400d170a:	fa5ea1        	l32r	a10, 400d0084 <_image_irom_vaddr+0x64> (3ffb1dbc <s_adc_power_on_cnt>)
400d170d:	fa5c21        	l32r	a2, 400d0080 <_image_irom_vaddr+0x60> (3ffb1dc0 <adc_context>)
400d1710:	0a88      	l32i.n	a8, a10, 0
400d1712:	0299      	s32i.n	a9, a2, 0
400d1714:	880b      	addi.n	a8, a8, -1
400d1716:	0a89      	s32i.n	a8, a10, 0
400d1718:	00c8d6        	bgez	a8, 400d1728 <adc_power_release+0x24>
400d171b:	13e690        	wsr.ps	a9
400d171e:	002010        	rsync
400d1721:	020e25        	call8	400d3804 <abort>
400d1724:	000746        	j	400d1745 <adc_power_release+0x41>
400d1727:	00          	.byte 00
400d1728:	98dc      	bnez.n	a8, 400d1745 <adc_power_release+0x41>
400d172a:	fa48a1        	l32r	a10, 400d004c <_image_irom_vaddr+0x2c> (3ff48800 <SENS>)
400d172d:	fa5691        	l32r	a9, 400d0088 <_image_irom_vaddr+0x68> (fff3ffff <_rtc_bss_end+0xaff3ffff>)
400d1730:	0020c0        	memw
400d1733:	3a88      	l32i.n	a8, a10, 12
400d1735:	108890        	and	a8, a8, a9
400d1738:	190c      	movi.n	a9, 1
400d173a:	0199d0        	slli	a9, a9, 19
400d173d:	208890        	or	a8, a8, a9
400d1740:	0020c0        	memw
400d1743:	3a89      	s32i.n	a8, a10, 12
400d1745:	0228      	l32i.n	a2, a2, 0
400d1747:	13e620        	wsr.ps	a2
400d174a:	002010        	rsync
400d174d:	f01d      	retw.n
	...

400d1750 <adc_common_gpio_init>:
400d1750:	006136        	entry	a1, 48
400d1753:	049020        	extui	a9, a2, 0, 1
400d1756:	017d      	mov.n	a7, a1
400d1758:	124916        	beqz	a9, 400d1880 <adc_common_gpio_init+0x130>
400d175b:	6183b6        	bltui	a3, 8, 400d17c0 <adc_common_gpio_init+0x70>
400d175e:	d0c122        	addi	a2, a1, -48
400d1761:	014d      	mov.n	a4, a1
400d1763:	001210        	movsp	a1, a2
400d1766:	018d      	mov.n	a8, a1
400d1768:	fa3f21        	l32r	a2, 400d0064 <_image_irom_vaddr+0x44> (3f400bf4 <gpio_esp32_driver_api+0x148>)
400d176b:	fa4831        	l32r	a3, 400d008c <_image_irom_vaddr+0x6c> (3f400d40 <__FUNCTION__$8>)
400d176e:	5829      	s32i.n	a2, a8, 20
400d1770:	020c      	movi.n	a2, 0
400d1772:	004722        	s8i	a2, a7, 0
400d1775:	220c      	movi.n	a2, 2
400d1777:	014722        	s8i	a2, a7, 1
400d177a:	024722        	s8i	a2, a7, 2
400d177d:	420c      	movi.n	a2, 4
400d177f:	034722        	s8i	a2, a7, 3
400d1782:	fa3a21        	l32r	a2, 400d006c <_image_irom_vaddr+0x4c> (3f400bff <gpio_esp32_driver_api+0x153>)
400d1785:	6839      	s32i.n	a3, a8, 24
400d1787:	1ca132        	movi	a3, 0x11c
400d178a:	7839      	s32i.n	a3, a8, 28
400d178c:	8829      	s32i.n	a2, a8, 32
400d178e:	10c8c2        	addi	a12, a8, 16
400d1791:	030c      	movi.n	a3, 0
400d1793:	420c      	movi.n	a2, 4
400d1795:	0d8276        	loop	a2, 400d17a6 <adc_common_gpio_init+0x56>
400d1798:	a73a      	add.n	a10, a7, a3
400d179a:	000aa2        	l8ui	a10, a10, 0
400d179d:	809830        	add	a9, a8, a3
400d17a0:	2449a2        	s8i	a10, a9, 36
400d17a3:	01c332        	addi	a3, a3, 1
400d17a6:	fa3221        	l32r	a2, 400d0070 <_image_irom_vaddr+0x50> (2000005 <CONFIG_FLASH_SIZE+0x1c00005>)
400d17a9:	fa32a1        	l32r	a10, 400d0074 <_image_irom_vaddr+0x54> (3ffb07f0 <log_const_adc_common>)
400d17ac:	c1a0b2        	movi	a11, 193
400d17af:	046822        	s32i	a2, a8, 16
400d17b2:	11bba0        	slli	a11, a11, 6
400d17b5:	ffe325        	call8	400d15e8 <z_log_msg_static_create$constprop$0>
400d17b8:	001410        	movsp	a1, a4
400d17bb:	004886        	j	400d18e1 <adc_common_gpio_init+0x191>
400d17be:	00          	.byte 00
400d17bf:	00          	.byte 00
400d17c0:	fa3441        	l32r	a4, 400d0090 <_image_irom_vaddr+0x70> (3f400160 <adc_channel_io_map>)
400d17c3:	a04340        	addx4	a4, a3, a4
400d17c6:	002442        	l32i	a4, a4, 0
400d17c9:	20a440        	or	a10, a4, a4
400d17cc:	00a0e5        	call8	400d21dc <rtc_gpio_init>
400d17cf:	019a16        	beqz	a10, 400d17ec <adc_common_gpio_init+0x9c>
400d17d2:	d0c132        	addi	a3, a1, -48
400d17d5:	012d      	mov.n	a2, a1
400d17d7:	001310        	movsp	a1, a3
400d17da:	01cd      	mov.n	a12, a1
400d17dc:	fa2e31        	l32r	a3, 400d0094 <_image_irom_vaddr+0x74> (3f400c5d <gpio_esp32_driver_api+0x1b1>)
400d17df:	5c39      	s32i.n	a3, a12, 20
400d17e1:	fa2a31        	l32r	a3, 400d008c <_image_irom_vaddr+0x6c> (3f400d40 <__FUNCTION__$8>)
400d17e4:	6c39      	s32i.n	a3, a12, 24
400d17e6:	1ea132        	movi	a3, 0x11e
400d17e9:	0007c6        	j	400d180c <adc_common_gpio_init+0xbc>
400d17ec:	3b0c      	movi.n	a11, 3
400d17ee:	04ad      	mov.n	a10, a4
400d17f0:	00a4a5        	call8	400d223c <rtc_gpio_set_direction>
400d17f3:	9abc      	beqz.n	a10, 400d1830 <adc_common_gpio_init+0xe0>
400d17f5:	d0c132        	addi	a3, a1, -48
400d17f8:	012d      	mov.n	a2, a1
400d17fa:	001310        	movsp	a1, a3
400d17fd:	01cd      	mov.n	a12, a1
400d17ff:	fa2531        	l32r	a3, 400d0094 <_image_irom_vaddr+0x74> (3f400c5d <gpio_esp32_driver_api+0x1b1>)
400d1802:	5c39      	s32i.n	a3, a12, 20
400d1804:	fa2231        	l32r	a3, 400d008c <_image_irom_vaddr+0x6c> (3f400d40 <__FUNCTION__$8>)
400d1807:	6c39      	s32i.n	a3, a12, 24
400d1809:	1fa132        	movi	a3, 0x11f
400d180c:	7c39      	s32i.n	a3, a12, 28
400d180e:	00a232        	movi	a3, 0x200
400d1811:	105c32        	s16i	a3, a12, 32
400d1814:	fa0b31        	l32r	a3, 400d0040 <_image_irom_vaddr+0x20> (1000004 <CONFIG_FLASH_SIZE+0xc00004>)
400d1817:	fa17a1        	l32r	a10, 400d0074 <_image_irom_vaddr+0x54> (3ffb07f0 <log_const_adc_common>)
400d181a:	91a0b2        	movi	a11, 145
400d181d:	4c39      	s32i.n	a3, a12, 16
400d181f:	11bba0        	slli	a11, a11, 6
400d1822:	10ccc2        	addi	a12, a12, 16
400d1825:	ffdc25        	call8	400d15e8 <z_log_msg_static_create$constprop$0>
400d1828:	001210        	movsp	a1, a2
400d182b:	f27c      	movi.n	a2, -1
400d182d:	005486        	j	400d1983 <adc_common_gpio_init+0x233>
400d1830:	20a440        	or	a10, a4, a4
400d1833:	00a865        	call8	400d22b8 <rtc_gpio_pulldown_dis>
400d1836:	01aa16        	beqz	a10, 400d1854 <adc_common_gpio_init+0x104>
400d1839:	d0c132        	addi	a3, a1, -48
400d183c:	202110        	or	a2, a1, a1
400d183f:	001310        	movsp	a1, a3
400d1842:	01cd      	mov.n	a12, a1
400d1844:	fa1431        	l32r	a3, 400d0094 <_image_irom_vaddr+0x74> (3f400c5d <gpio_esp32_driver_api+0x1b1>)
400d1847:	5c39      	s32i.n	a3, a12, 20
400d1849:	fa1031        	l32r	a3, 400d008c <_image_irom_vaddr+0x6c> (3f400d40 <__FUNCTION__$8>)
400d184c:	6c39      	s32i.n	a3, a12, 24
400d184e:	20a132        	movi	a3, 0x120
400d1851:	ffedc6        	j	400d180c <adc_common_gpio_init+0xbc>
400d1854:	20a440        	or	a10, a4, a4
400d1857:	00a165        	call8	400d226c <rtc_gpio_pullup_dis>
400d185a:	01aa16        	beqz	a10, 400d1878 <adc_common_gpio_init+0x128>
400d185d:	d0c132        	addi	a3, a1, -48
400d1860:	202110        	or	a2, a1, a1
400d1863:	001310        	movsp	a1, a3
400d1866:	01cd      	mov.n	a12, a1
400d1868:	fa0b31        	l32r	a3, 400d0094 <_image_irom_vaddr+0x74> (3f400c5d <gpio_esp32_driver_api+0x1b1>)
400d186b:	5c39      	s32i.n	a3, a12, 20
400d186d:	fa0731        	l32r	a3, 400d008c <_image_irom_vaddr+0x6c> (3f400d40 <__FUNCTION__$8>)
400d1870:	6c39      	s32i.n	a3, a12, 24
400d1872:	21a132        	movi	a3, 0x121
400d1875:	ffe4c6        	j	400d180c <adc_common_gpio_init+0xbc>
400d1878:	6ce217        	bbsi	a2, 1, 400d18e8 <adc_common_gpio_init+0x198>
400d187b:	020c      	movi.n	a2, 0
400d187d:	004086        	j	400d1983 <adc_common_gpio_init+0x233>
400d1880:	240c      	movi.n	a4, 2
400d1882:	f50247        	bnone	a2, a4, 400d187b <adc_common_gpio_init+0x12b>
400d1885:	920c      	movi.n	a2, 9
400d1887:	5db237        	bgeu	a2, a3, 400d18e8 <adc_common_gpio_init+0x198>
400d188a:	d0c122        	addi	a2, a1, -48
400d188d:	013d      	mov.n	a3, a1
400d188f:	001210        	movsp	a1, a2
400d1892:	018d      	mov.n	a8, a1
400d1894:	f9f421        	l32r	a2, 400d0064 <_image_irom_vaddr+0x44> (3f400bf4 <gpio_esp32_driver_api+0x148>)
400d1897:	10c8c2        	addi	a12, a8, 16
400d189a:	5829      	s32i.n	a2, a8, 20
400d189c:	f9fc21        	l32r	a2, 400d008c <_image_irom_vaddr+0x6c> (3f400d40 <__FUNCTION__$8>)
400d189f:	004792        	s8i	a9, a7, 0
400d18a2:	6829      	s32i.n	a2, a8, 24
400d18a4:	24a122        	movi	a2, 0x124
400d18a7:	7829      	s32i.n	a2, a8, 28
400d18a9:	420c      	movi.n	a2, 4
400d18ab:	034722        	s8i	a2, a7, 3
400d18ae:	f9fa21        	l32r	a2, 400d0098 <_image_irom_vaddr+0x78> (3f400c42 <gpio_esp32_driver_api+0x196>)
400d18b1:	014742        	s8i	a4, a7, 1
400d18b4:	8829      	s32i.n	a2, a8, 32
400d18b6:	024742        	s8i	a4, a7, 2
400d18b9:	420c      	movi.n	a2, 4
400d18bb:	0d8276        	loop	a2, 400d18cc <adc_common_gpio_init+0x17c>
400d18be:	a79a      	add.n	a10, a7, a9
400d18c0:	000aa2        	l8ui	a10, a10, 0
400d18c3:	804890        	add	a4, a8, a9
400d18c6:	2444a2        	s8i	a10, a4, 36
400d18c9:	01c992        	addi	a9, a9, 1
400d18cc:	f9e921        	l32r	a2, 400d0070 <_image_irom_vaddr+0x50> (2000005 <CONFIG_FLASH_SIZE+0x1c00005>)
400d18cf:	f9e9a1        	l32r	a10, 400d0074 <_image_irom_vaddr+0x54> (3ffb07f0 <log_const_adc_common>)
400d18d2:	c1a0b2        	movi	a11, 193
400d18d5:	046822        	s32i	a2, a8, 16
400d18d8:	11bba0        	slli	a11, a11, 6
400d18db:	ffd0e5        	call8	400d15e8 <z_log_msg_static_create$constprop$0>
400d18de:	001310        	movsp	a1, a3
400d18e1:	02a122        	movi	a2, 0x102
400d18e4:	0026c6        	j	400d1983 <adc_common_gpio_init+0x233>
400d18e7:	00          	.byte 00
400d18e8:	f9ea21        	l32r	a2, 400d0090 <_image_irom_vaddr+0x70> (3f400160 <adc_channel_io_map>)
400d18eb:	a03320        	addx4	a3, a3, a2
400d18ee:	0a2332        	l32i	a3, a3, 40
400d18f1:	20a330        	or	a10, a3, a3
400d18f4:	008e65        	call8	400d21dc <rtc_gpio_init>
400d18f7:	019a16        	beqz	a10, 400d1914 <adc_common_gpio_init+0x1c4>
400d18fa:	d0c132        	addi	a3, a1, -48
400d18fd:	012d      	mov.n	a2, a1
400d18ff:	001310        	movsp	a1, a3
400d1902:	01cd      	mov.n	a12, a1
400d1904:	f9e431        	l32r	a3, 400d0094 <_image_irom_vaddr+0x74> (3f400c5d <gpio_esp32_driver_api+0x1b1>)
400d1907:	5c39      	s32i.n	a3, a12, 20
400d1909:	f9e031        	l32r	a3, 400d008c <_image_irom_vaddr+0x6c> (3f400d40 <__FUNCTION__$8>)
400d190c:	6c39      	s32i.n	a3, a12, 24
400d190e:	26a132        	movi	a3, 0x126
400d1911:	ffbdc6        	j	400d180c <adc_common_gpio_init+0xbc>
400d1914:	03a0b2        	movi	a11, 3
400d1917:	20a330        	or	a10, a3, a3
400d191a:	009225        	call8	400d223c <rtc_gpio_set_direction>
400d191d:	019a16        	beqz	a10, 400d193a <adc_common_gpio_init+0x1ea>
400d1920:	d0c132        	addi	a3, a1, -48
400d1923:	012d      	mov.n	a2, a1
400d1925:	001310        	movsp	a1, a3
400d1928:	01cd      	mov.n	a12, a1
400d192a:	f9da31        	l32r	a3, 400d0094 <_image_irom_vaddr+0x74> (3f400c5d <gpio_esp32_driver_api+0x1b1>)
400d192d:	5c39      	s32i.n	a3, a12, 20
400d192f:	f9d731        	l32r	a3, 400d008c <_image_irom_vaddr+0x6c> (3f400d40 <__FUNCTION__$8>)
400d1932:	6c39      	s32i.n	a3, a12, 24
400d1934:	27a132        	movi	a3, 0x127
400d1937:	ffb446        	j	400d180c <adc_common_gpio_init+0xbc>
400d193a:	20a330        	or	a10, a3, a3
400d193d:	0097a5        	call8	400d22b8 <rtc_gpio_pulldown_dis>
400d1940:	01aa16        	beqz	a10, 400d195e <adc_common_gpio_init+0x20e>
400d1943:	d0c132        	addi	a3, a1, -48
400d1946:	202110        	or	a2, a1, a1
400d1949:	001310        	movsp	a1, a3
400d194c:	01cd      	mov.n	a12, a1
400d194e:	f9d131        	l32r	a3, 400d0094 <_image_irom_vaddr+0x74> (3f400c5d <gpio_esp32_driver_api+0x1b1>)
400d1951:	5c39      	s32i.n	a3, a12, 20
400d1953:	f9ce31        	l32r	a3, 400d008c <_image_irom_vaddr+0x6c> (3f400d40 <__FUNCTION__$8>)
400d1956:	6c39      	s32i.n	a3, a12, 24
400d1958:	28a132        	movi	a3, 0x128
400d195b:	ffab46        	j	400d180c <adc_common_gpio_init+0xbc>
400d195e:	20a330        	or	a10, a3, a3
400d1961:	0090a5        	call8	400d226c <rtc_gpio_pullup_dis>
400d1964:	f13a16        	beqz	a10, 400d187b <adc_common_gpio_init+0x12b>
400d1967:	d0c132        	addi	a3, a1, -48
400d196a:	202110        	or	a2, a1, a1
400d196d:	001310        	movsp	a1, a3
400d1970:	20c110        	or	a12, a1, a1
400d1973:	f9c831        	l32r	a3, 400d0094 <_image_irom_vaddr+0x74> (3f400c5d <gpio_esp32_driver_api+0x1b1>)
400d1976:	5c39      	s32i.n	a3, a12, 20
400d1978:	f9c531        	l32r	a3, 400d008c <_image_irom_vaddr+0x6c> (3f400d40 <__FUNCTION__$8>)
400d197b:	6c39      	s32i.n	a3, a12, 24
400d197d:	29a132        	movi	a3, 0x129
400d1980:	ffa206        	j	400d180c <adc_common_gpio_init+0xbc>
400d1983:	f01d      	retw.n
400d1985:	000000        	ill

400d1988 <adc_set_data_width>:
400d1988:	006136        	entry	a1, 48
400d198b:	017d      	mov.n	a7, a1
400d198d:	6443b6        	bltui	a3, 4, 400d19f5 <adc_set_data_width+0x6d>
400d1990:	d0c122        	addi	a2, a1, -48
400d1993:	014d      	mov.n	a4, a1
400d1995:	001210        	movsp	a1, a2
400d1998:	013d      	mov.n	a3, a1
400d199a:	f9b221        	l32r	a2, 400d0064 <_image_irom_vaddr+0x44> (3f400bf4 <gpio_esp32_driver_api+0x148>)
400d199d:	f9bf81        	l32r	a8, 400d009c <_image_irom_vaddr+0x7c> (3f400d2d <__FUNCTION__$7>)
400d19a0:	5329      	s32i.n	a2, a3, 20
400d19a2:	020c      	movi.n	a2, 0
400d19a4:	004722        	s8i	a2, a7, 0
400d19a7:	220c      	movi.n	a2, 2
400d19a9:	014722        	s8i	a2, a7, 1
400d19ac:	024722        	s8i	a2, a7, 2
400d19af:	420c      	movi.n	a2, 4
400d19b1:	034722        	s8i	a2, a7, 3
400d19b4:	f9bb21        	l32r	a2, 400d00a0 <_image_irom_vaddr+0x80> (3f400c64 <gpio_esp32_driver_api+0x1b8>)
400d19b7:	6389      	s32i.n	a8, a3, 24
400d19b9:	42a182        	movi	a8, 0x142
400d19bc:	7389      	s32i.n	a8, a3, 28
400d19be:	10c3c2        	addi	a12, a3, 16
400d19c1:	8329      	s32i.n	a2, a3, 32
400d19c3:	080c      	movi.n	a8, 0
400d19c5:	490c      	movi.n	a9, 4
400d19c7:	0d8976        	loop	a9, 400d19d8 <adc_set_data_width+0x50>
400d19ca:	a78a      	add.n	a10, a7, a8
400d19cc:	000aa2        	l8ui	a10, a10, 0
400d19cf:	802380        	add	a2, a3, a8
400d19d2:	2442a2        	s8i	a10, a2, 36
400d19d5:	01c882        	addi	a8, a8, 1
400d19d8:	f9a621        	l32r	a2, 400d0070 <_image_irom_vaddr+0x50> (2000005 <CONFIG_FLASH_SIZE+0x1c00005>)
400d19db:	f9a6a1        	l32r	a10, 400d0074 <_image_irom_vaddr+0x54> (3ffb07f0 <log_const_adc_common>)
400d19de:	c1a0b2        	movi	a11, 193
400d19e1:	046322        	s32i	a2, a3, 16
400d19e4:	11bba0        	slli	a11, a11, 6
400d19e7:	ffc025        	call8	400d15e8 <z_log_msg_static_create$constprop$0>
400d19ea:	02a122        	movi	a2, 0x102
400d19ed:	001410        	movsp	a1, a4
400d19f0:	002306        	j	400d1a80 <adc_set_data_width+0xf8>
400d19f3:	00          	.byte 00
400d19f4:	00          	.byte 00
400d19f5:	3b6207        	bbci	a2, 0, 400d1a34 <adc_set_data_width+0xac>
400d19f8:	0063b0        	rsil	a11, 3
400d19fb:	f9a181        	l32r	a8, 400d0080 <_image_irom_vaddr+0x60> (3ffb1dc0 <adc_context>)
400d19fe:	f993a1        	l32r	a10, 400d004c <_image_irom_vaddr+0x2c> (3ff48800 <SENS>)
400d1a01:	08b9      	s32i.n	a11, a8, 0
400d1a03:	0020c0        	memw
400d1a06:	ba98      	l32i.n	a9, a10, 44
400d1a08:	cc7c      	movi.n	a12, -4
400d1a0a:	148030        	extui	a8, a3, 0, 2
400d1a0d:	1099c0        	and	a9, a9, a12
400d1a10:	209980        	or	a9, a9, a8
400d1a13:	0020c0        	memw
400d1a16:	ba99      	s32i.n	a9, a10, 44
400d1a18:	0020c0        	memw
400d1a1b:	0a98      	l32i.n	a9, a10, 0
400d1a1d:	f98ec1        	l32r	a12, 400d0058 <_image_irom_vaddr+0x38> (fffcffff <_rtc_bss_end+0xaffcffff>)
400d1a20:	118800        	slli	a8, a8, 16
400d1a23:	1099c0        	and	a9, a9, a12
400d1a26:	208980        	or	a8, a9, a8
400d1a29:	0020c0        	memw
400d1a2c:	0a89      	s32i.n	a8, a10, 0
400d1a2e:	13e6b0        	wsr.ps	a11
400d1a31:	002010        	rsync
400d1a34:	04e217        	bbsi	a2, 1, 400d1a3c <adc_set_data_width+0xb4>
400d1a37:	020c      	movi.n	a2, 0
400d1a39:	0010c6        	j	400d1a80 <adc_set_data_width+0xf8>
400d1a3c:	006320        	rsil	a2, 3
400d1a3f:	f99081        	l32r	a8, 400d0080 <_image_irom_vaddr+0x60> (3ffb1dc0 <adc_context>)
400d1a42:	f98291        	l32r	a9, 400d004c <_image_irom_vaddr+0x2c> (3ff48800 <SENS>)
400d1a45:	0829      	s32i.n	a2, a8, 0
400d1a47:	0020c0        	memw
400d1a4a:	b988      	l32i.n	a8, a9, 44
400d1a4c:	143030        	extui	a3, a3, 0, 2
400d1a4f:	3b7c      	movi.n	a11, -13
400d1a51:	11a3e0        	slli	a10, a3, 2
400d1a54:	1088b0        	and	a8, a8, a11
400d1a57:	2088a0        	or	a8, a8, a10
400d1a5a:	0020c0        	memw
400d1a5d:	b989      	s32i.n	a8, a9, 44
400d1a5f:	0020c0        	memw
400d1a62:	242982        	l32i	a8, a9, 144
400d1a65:	f97ca1        	l32r	a10, 400d0058 <_image_irom_vaddr+0x38> (fffcffff <_rtc_bss_end+0xaffcffff>)
400d1a68:	113300        	slli	a3, a3, 16
400d1a6b:	1088a0        	and	a8, a8, a10
400d1a6e:	203830        	or	a3, a8, a3
400d1a71:	0020c0        	memw
400d1a74:	246932        	s32i	a3, a9, 144
400d1a77:	13e620        	wsr.ps	a2
400d1a7a:	002010        	rsync
400d1a7d:	ffed86        	j	400d1a37 <adc_set_data_width+0xaf>
400d1a80:	f01d      	retw.n
	...

400d1a84 <adc1_config_channel_atten>:
400d1a84:	006136        	entry	a1, 48
400d1a87:	017d      	mov.n	a7, a1
400d1a89:	4b82b6        	bltui	a2, 8, 400d1ad8 <adc1_config_channel_atten+0x54>
400d1a8c:	d0c122        	addi	a2, a1, -48
400d1a8f:	015d      	mov.n	a5, a1
400d1a91:	001210        	movsp	a1, a2
400d1a94:	014d      	mov.n	a4, a1
400d1a96:	f97321        	l32r	a2, 400d0064 <_image_irom_vaddr+0x44> (3f400bf4 <gpio_esp32_driver_api+0x148>)
400d1a99:	f98231        	l32r	a3, 400d00a4 <_image_irom_vaddr+0x84> (3f400d13 <__FUNCTION__$6>)
400d1a9c:	5429      	s32i.n	a2, a4, 20
400d1a9e:	020c      	movi.n	a2, 0
400d1aa0:	004722        	s8i	a2, a7, 0
400d1aa3:	220c      	movi.n	a2, 2
400d1aa5:	014722        	s8i	a2, a7, 1
400d1aa8:	024722        	s8i	a2, a7, 2
400d1aab:	420c      	movi.n	a2, 4
400d1aad:	034722        	s8i	a2, a7, 3
400d1ab0:	f96f21        	l32r	a2, 400d006c <_image_irom_vaddr+0x4c> (3f400bff <gpio_esp32_driver_api+0x153>)
400d1ab3:	6439      	s32i.n	a3, a4, 24
400d1ab5:	6aa132        	movi	a3, 0x16a
400d1ab8:	7439      	s32i.n	a3, a4, 28
400d1aba:	8429      	s32i.n	a2, a4, 32
400d1abc:	10c4c2        	addi	a12, a4, 16
400d1abf:	020c      	movi.n	a2, 0
400d1ac1:	04a032        	movi	a3, 4
400d1ac4:	972a      	add.n	a9, a7, a2
400d1ac6:	000992        	l8ui	a9, a9, 0
400d1ac9:	842a      	add.n	a8, a4, a2
400d1acb:	244892        	s8i	a9, a8, 36
400d1ace:	221b      	addi.n	a2, a2, 1
400d1ad0:	330b      	addi.n	a3, a3, -1
400d1ad2:	fee356        	bnez	a3, 400d1ac4 <adc1_config_channel_atten+0x40>
400d1ad5:	001286        	j	400d1b23 <adc1_config_channel_atten+0x9f>
400d1ad8:	6243b6        	bltui	a3, 4, 400d1b3e <adc1_config_channel_atten+0xba>
400d1adb:	d0c122        	addi	a2, a1, -48
400d1ade:	015d      	mov.n	a5, a1
400d1ae0:	001210        	movsp	a1, a2
400d1ae3:	014d      	mov.n	a4, a1
400d1ae5:	f95f21        	l32r	a2, 400d0064 <_image_irom_vaddr+0x44> (3f400bf4 <gpio_esp32_driver_api+0x148>)
400d1ae8:	f96f31        	l32r	a3, 400d00a4 <_image_irom_vaddr+0x84> (3f400d13 <__FUNCTION__$6>)
400d1aeb:	5429      	s32i.n	a2, a4, 20
400d1aed:	020c      	movi.n	a2, 0
400d1aef:	004722        	s8i	a2, a7, 0
400d1af2:	220c      	movi.n	a2, 2
400d1af4:	014722        	s8i	a2, a7, 1
400d1af7:	024722        	s8i	a2, a7, 2
400d1afa:	420c      	movi.n	a2, 4
400d1afc:	034722        	s8i	a2, a7, 3
400d1aff:	f96a21        	l32r	a2, 400d00a8 <_image_irom_vaddr+0x88> (3f400c8e <gpio_esp32_driver_api+0x1e2>)
400d1b02:	6439      	s32i.n	a3, a4, 24
400d1b04:	6ba132        	movi	a3, 0x16b
400d1b07:	7439      	s32i.n	a3, a4, 28
400d1b09:	8429      	s32i.n	a2, a4, 32
400d1b0b:	10c4c2        	addi	a12, a4, 16
400d1b0e:	020c      	movi.n	a2, 0
400d1b10:	430c      	movi.n	a3, 4
400d1b12:	972a      	add.n	a9, a7, a2
400d1b14:	000992        	l8ui	a9, a9, 0
400d1b17:	842a      	add.n	a8, a4, a2
400d1b19:	244892        	s8i	a9, a8, 36
400d1b1c:	221b      	addi.n	a2, a2, 1
400d1b1e:	330b      	addi.n	a3, a3, -1
400d1b20:	fee356        	bnez	a3, 400d1b12 <adc1_config_channel_atten+0x8e>
400d1b23:	f95321        	l32r	a2, 400d0070 <_image_irom_vaddr+0x50> (2000005 <CONFIG_FLASH_SIZE+0x1c00005>)
400d1b26:	f953a1        	l32r	a10, 400d0074 <_image_irom_vaddr+0x54> (3ffb07f0 <log_const_adc_common>)
400d1b29:	c1a0b2        	movi	a11, 193
400d1b2c:	4429      	s32i.n	a2, a4, 16
400d1b2e:	11bba0        	slli	a11, a11, 6
400d1b31:	ffab65        	call8	400d15e8 <z_log_msg_static_create$constprop$0>
400d1b34:	02a122        	movi	a2, 0x102
400d1b37:	001510        	movsp	a1, a5
400d1b3a:	002686        	j	400d1bd8 <adc1_config_channel_atten+0x154>
400d1b3d:	00          	.byte 00
400d1b3e:	20b220        	or	a11, a2, a2
400d1b41:	01a0a2        	movi	a10, 1
400d1b44:	ffc0a5        	call8	400d1750 <adc_common_gpio_init>
400d1b47:	006340        	rsil	a4, 3
400d1b4a:	f94d51        	l32r	a5, 400d0080 <_image_irom_vaddr+0x60> (3ffb1dc0 <adc_context>)
400d1b4d:	097c      	movi.n	a9, -16
400d1b4f:	0549      	s32i.n	a4, a5, 0
400d1b51:	f93e41        	l32r	a4, 400d004c <_image_irom_vaddr+0x2c> (3ff48800 <SENS>)
400d1b54:	f957a1        	l32r	a10, 400d00b0 <_image_irom_vaddr+0x90> (7fffffff <_rtc_bss_end+0x2fffffff>)
400d1b57:	0020c0        	memw
400d1b5a:	282482        	l32i	a8, a4, 160
400d1b5d:	222a      	add.n	a2, a2, a2
400d1b5f:	108890        	and	a8, a8, a9
400d1b62:	0020c0        	memw
400d1b65:	286482        	s32i	a8, a4, 160
400d1b68:	0020c0        	memw
400d1b6b:	0488      	l32i.n	a8, a4, 0
400d1b6d:	190c      	movi.n	a9, 1
400d1b6f:	019940        	slli	a9, a9, 28
400d1b72:	208890        	or	a8, a8, a9
400d1b75:	0020c0        	memw
400d1b78:	0489      	s32i.n	a8, a4, 0
400d1b7a:	0020c0        	memw
400d1b7d:	0488      	l32i.n	a8, a4, 0
400d1b7f:	f94b91        	l32r	a9, 400d00ac <_image_irom_vaddr+0x8c> (3ff48400 <RTCIO>)
400d1b82:	0020c0        	memw
400d1b85:	0789      	s32i.n	a8, a7, 0
400d1b87:	280c      	movi.n	a8, 2
400d1b89:	0020c0        	memw
400d1b8c:	004782        	s8i	a8, a7, 0
400d1b8f:	0020c0        	memw
400d1b92:	0788      	l32i.n	a8, a7, 0
400d1b94:	401200        	ssl	a2
400d1b97:	a13300        	sll	a3, a3
400d1b9a:	0020c0        	memw
400d1b9d:	0489      	s32i.n	a8, a4, 0
400d1b9f:	0020c0        	memw
400d1ba2:	1e2982        	l32i	a8, a9, 120
400d1ba5:	1088a0        	and	a8, a8, a10
400d1ba8:	0020c0        	memw
400d1bab:	1e6982        	s32i	a8, a9, 120
400d1bae:	ff99a5        	call8	400d1548 <adc_ll_amp_disable>
400d1bb1:	390c      	movi.n	a9, 3
400d1bb3:	0020c0        	memw
400d1bb6:	d4a8      	l32i.n	a10, a4, 52
400d1bb8:	401200        	ssl	a2
400d1bbb:	a19900        	sll	a9, a9
400d1bbe:	f87c      	movi.n	a8, -1
400d1bc0:	308890        	xor	a8, a8, a9
400d1bc3:	1088a0        	and	a8, a8, a10
400d1bc6:	208830        	or	a8, a8, a3
400d1bc9:	0020c0        	memw
400d1bcc:	d489      	s32i.n	a8, a4, 52
400d1bce:	0528      	l32i.n	a2, a5, 0
400d1bd0:	13e620        	wsr.ps	a2
400d1bd3:	002010        	rsync
400d1bd6:	020c      	movi.n	a2, 0
400d1bd8:	f01d      	retw.n
	...

400d1bdc <adc1_rtc_mode_acquire>:
400d1bdc:	004136        	entry	a1, 32
400d1bdf:	f27c      	movi.n	a2, -1
400d1be1:	f934a1        	l32r	a10, 400d00b4 <_image_irom_vaddr+0x94> (3ffb07b8 <adc1_dma_lock>)
400d1be4:	02cd      	mov.n	a12, a2
400d1be6:	02dd      	mov.n	a13, a2
400d1be8:	afbda5        	call8	400817c4 <z_impl_k_mutex_lock>
400d1beb:	ffae65        	call8	400d16d0 <adc_power_acquire>
400d1bee:	0063a0        	rsil	a10, 3
400d1bf1:	f92381        	l32r	a8, 400d0080 <_image_irom_vaddr+0x60> (3ffb1dc0 <adc_context>)
400d1bf4:	f931b1        	l32r	a11, 400d00b8 <_image_irom_vaddr+0x98> (f7ffffff <_rtc_bss_end+0xa7ffffff>)
400d1bf7:	08a9      	s32i.n	a10, a8, 0
400d1bf9:	f91481        	l32r	a8, 400d004c <_image_irom_vaddr+0x2c> (3ff48800 <SENS>)
400d1bfc:	012210        	slli	a2, a2, 31
400d1bff:	0020c0        	memw
400d1c02:	0898      	l32i.n	a9, a8, 0
400d1c04:	1099b0        	and	a9, a9, a11
400d1c07:	0020c0        	memw
400d1c0a:	0899      	s32i.n	a9, a8, 0
400d1c0c:	0020c0        	memw
400d1c0f:	152892        	l32i	a9, a8, 84
400d1c12:	1b0c      	movi.n	a11, 1
400d1c14:	01bbe0        	slli	a11, a11, 18
400d1c17:	2099b0        	or	a9, a9, a11
400d1c1a:	0020c0        	memw
400d1c1d:	156892        	s32i	a9, a8, 84
400d1c20:	0020c0        	memw
400d1c23:	152892        	l32i	a9, a8, 84
400d1c26:	202920        	or	a2, a9, a2
400d1c29:	0020c0        	memw
400d1c2c:	156822        	s32i	a2, a8, 84
400d1c2f:	0020c0        	memw
400d1c32:	162822        	l32i	a2, a8, 88
400d1c35:	190c      	movi.n	a9, 1
400d1c37:	019960        	slli	a9, a9, 26
400d1c3a:	202290        	or	a2, a2, a9
400d1c3d:	0020c0        	memw
400d1c40:	166822        	s32i	a2, a8, 88
400d1c43:	0020c0        	memw
400d1c46:	162822        	l32i	a2, a8, 88
400d1c49:	190c      	movi.n	a9, 1
400d1c4b:	019950        	slli	a9, a9, 27
400d1c4e:	202290        	or	a2, a2, a9
400d1c51:	0020c0        	memw
400d1c54:	166822        	s32i	a2, a8, 88
400d1c57:	13e6a0        	wsr.ps	a10
400d1c5a:	002010        	rsync
400d1c5d:	020c      	movi.n	a2, 0
400d1c5f:	f01d      	retw.n
400d1c61:	000000        	ill

400d1c64 <adc1_lock_release>:
400d1c64:	004136        	entry	a1, 32
400d1c67:	f91321        	l32r	a2, 400d00b4 <_image_irom_vaddr+0x94> (3ffb07b8 <adc1_dma_lock>)
400d1c6a:	3288      	l32i.n	a8, a2, 12
400d1c6c:	48cc      	bnez.n	a8, 400d1c74 <adc1_lock_release+0x10>
400d1c6e:	ff9f25        	call8	400d1660 <adc1_lock_release$part$0>
400d1c71:	0002c6        	j	400d1c80 <adc1_lock_release+0x1c>
400d1c74:	ffa8e5        	call8	400d1704 <adc_power_release>
400d1c77:	20a220        	or	a10, a2, a2
400d1c7a:	ffa4a5        	call8	400d16c4 <k_mutex_unlock$isra$0>
400d1c7d:	00a0a2        	movi	a10, 0
400d1c80:	0a2d      	mov.n	a2, a10
400d1c82:	f01d      	retw.n

400d1c84 <adc1_get_raw>:
400d1c84:	006136        	entry	a1, 48
400d1c87:	0a82b6        	bltui	a2, 8, 400d1c95 <adc1_get_raw+0x11>
400d1c8a:	ff9725        	call8	400d15fc <adc1_get_raw$part$0>
400d1c8d:	0a2d      	mov.n	a2, a10
400d1c8f:	0027c6        	j	400d1d32 <adc1_get_raw+0xae>
400d1c92:	00          	.byte 00
400d1c93:	00          	.byte 00
400d1c94:	00          	.byte 00
400d1c95:	fff465        	call8	400d1bdc <adc1_rtc_mode_acquire>
400d1c98:	006380        	rsil	a8, 3
400d1c9b:	f8f931        	l32r	a3, 400d0080 <_image_irom_vaddr+0x60> (3ffb1dc0 <adc_context>)
400d1c9e:	f90391        	l32r	a9, 400d00ac <_image_irom_vaddr+0x8c> (3ff48400 <RTCIO>)
400d1ca1:	0389      	s32i.n	a8, a3, 0
400d1ca3:	0020c0        	memw
400d1ca6:	1e2982        	l32i	a8, a9, 120
400d1ca9:	f901a1        	l32r	a10, 400d00b0 <_image_irom_vaddr+0x90> (7fffffff <_rtc_bss_end+0x2fffffff>)
400d1cac:	1088a0        	and	a8, a8, a10
400d1caf:	0020c0        	memw
400d1cb2:	1e6982        	s32i	a8, a9, 120
400d1cb5:	ff8925        	call8	400d1548 <adc_ll_amp_disable>
400d1cb8:	f8e581        	l32r	a8, 400d004c <_image_irom_vaddr+0x2c> (3ff48800 <SENS>)
400d1cbb:	f8ffa1        	l32r	a10, 400d00b8 <_image_irom_vaddr+0x98> (f7ffffff <_rtc_bss_end+0xa7ffffff>)
400d1cbe:	0020c0        	memw
400d1cc1:	0898      	l32i.n	a9, a8, 0
400d1cc3:	02bd      	mov.n	a11, a2
400d1cc5:	1099a0        	and	a9, a9, a10
400d1cc8:	0020c0        	memw
400d1ccb:	0899      	s32i.n	a9, a8, 0
400d1ccd:	0020c0        	memw
400d1cd0:	152892        	l32i	a9, a8, 84
400d1cd3:	1a0c      	movi.n	a10, 1
400d1cd5:	01aae0        	slli	a10, a10, 18
400d1cd8:	2099a0        	or	a9, a9, a10
400d1cdb:	0020c0        	memw
400d1cde:	156892        	s32i	a9, a8, 84
400d1ce1:	0020c0        	memw
400d1ce4:	152892        	l32i	a9, a8, 84
400d1ce7:	fa7c      	movi.n	a10, -1
400d1ce9:	01aa10        	slli	a10, a10, 31
400d1cec:	2099a0        	or	a9, a9, a10
400d1cef:	0020c0        	memw
400d1cf2:	156892        	s32i	a9, a8, 84
400d1cf5:	0020c0        	memw
400d1cf8:	162892        	l32i	a9, a8, 88
400d1cfb:	1a0c      	movi.n	a10, 1
400d1cfd:	01aa60        	slli	a10, a10, 26
400d1d00:	2099a0        	or	a9, a9, a10
400d1d03:	0020c0        	memw
400d1d06:	166892        	s32i	a9, a8, 88
400d1d09:	0020c0        	memw
400d1d0c:	162892        	l32i	a9, a8, 88
400d1d0f:	1a0c      	movi.n	a10, 1
400d1d11:	01aa50        	slli	a10, a10, 27
400d1d14:	2099a0        	or	a9, a9, a10
400d1d17:	0020c0        	memw
400d1d1a:	166892        	s32i	a9, a8, 88
400d1d1d:	01cd      	mov.n	a12, a1
400d1d1f:	00a0a2        	movi	a10, 0
400d1d22:	ff73a5        	call8	400d145c <adc_hal_convert>
400d1d25:	0328      	l32i.n	a2, a3, 0
400d1d27:	13e620        	wsr.ps	a2
400d1d2a:	002010        	rsync
400d1d2d:	fff365        	call8	400d1c64 <adc1_lock_release>
400d1d30:	0128      	l32i.n	a2, a1, 0
400d1d32:	f01d      	retw.n

400d1d34 <adc2_config_channel_atten>:
400d1d34:	006136        	entry	a1, 48
400d1d37:	940c      	movi.n	a4, 9
400d1d39:	017d      	mov.n	a7, a1
400d1d3b:	4ab427        	bgeu	a4, a2, 400d1d89 <adc2_config_channel_atten+0x55>
400d1d3e:	d0c122        	addi	a2, a1, -48
400d1d41:	014d      	mov.n	a4, a1
400d1d43:	001210        	movsp	a1, a2
400d1d46:	018d      	mov.n	a8, a1
400d1d48:	f8c721        	l32r	a2, 400d0064 <_image_irom_vaddr+0x44> (3f400bf4 <gpio_esp32_driver_api+0x148>)
400d1d4b:	f8dc31        	l32r	a3, 400d00bc <_image_irom_vaddr+0x9c> (3f400cda <__FUNCTION__$1>)
400d1d4e:	5829      	s32i.n	a2, a8, 20
400d1d50:	020c      	movi.n	a2, 0
400d1d52:	004722        	s8i	a2, a7, 0
400d1d55:	220c      	movi.n	a2, 2
400d1d57:	014722        	s8i	a2, a7, 1
400d1d5a:	024722        	s8i	a2, a7, 2
400d1d5d:	420c      	movi.n	a2, 4
400d1d5f:	034722        	s8i	a2, a7, 3
400d1d62:	f8cd21        	l32r	a2, 400d0098 <_image_irom_vaddr+0x78> (3f400c42 <gpio_esp32_driver_api+0x196>)
400d1d65:	6839      	s32i.n	a3, a8, 24
400d1d67:	fda132        	movi	a3, 0x1fd
400d1d6a:	7839      	s32i.n	a3, a8, 28
400d1d6c:	8829      	s32i.n	a2, a8, 32
400d1d6e:	10c8c2        	addi	a12, a8, 16
400d1d71:	020c      	movi.n	a2, 0
400d1d73:	430c      	movi.n	a3, 4
400d1d75:	a72a      	add.n	a10, a7, a2
400d1d77:	000aa2        	l8ui	a10, a10, 0
400d1d7a:	982a      	add.n	a9, a8, a2
400d1d7c:	2449a2        	s8i	a10, a9, 36
400d1d7f:	221b      	addi.n	a2, a2, 1
400d1d81:	330b      	addi.n	a3, a3, -1
400d1d83:	fee356        	bnez	a3, 400d1d75 <adc2_config_channel_atten+0x41>
400d1d86:	001306        	j	400d1dd6 <adc2_config_channel_atten+0xa2>
400d1d89:	6443b6        	bltui	a3, 4, 400d1df1 <adc2_config_channel_atten+0xbd>
400d1d8c:	d0c122        	addi	a2, a1, -48
400d1d8f:	014d      	mov.n	a4, a1
400d1d91:	001210        	movsp	a1, a2
400d1d94:	018d      	mov.n	a8, a1
400d1d96:	f8b321        	l32r	a2, 400d0064 <_image_irom_vaddr+0x44> (3f400bf4 <gpio_esp32_driver_api+0x148>)
400d1d99:	f8c831        	l32r	a3, 400d00bc <_image_irom_vaddr+0x9c> (3f400cda <__FUNCTION__$1>)
400d1d9c:	5829      	s32i.n	a2, a8, 20
400d1d9e:	020c      	movi.n	a2, 0
400d1da0:	004722        	s8i	a2, a7, 0
400d1da3:	220c      	movi.n	a2, 2
400d1da5:	014722        	s8i	a2, a7, 1
400d1da8:	024722        	s8i	a2, a7, 2
400d1dab:	420c      	movi.n	a2, 4
400d1dad:	034722        	s8i	a2, a7, 3
400d1db0:	f8c421        	l32r	a2, 400d00c0 <_image_irom_vaddr+0xa0> (3f400c9c <gpio_esp32_driver_api+0x1f0>)
400d1db3:	6839      	s32i.n	a3, a8, 24
400d1db5:	fea132        	movi	a3, 0x1fe
400d1db8:	7839      	s32i.n	a3, a8, 28
400d1dba:	086822        	s32i	a2, a8, 32
400d1dbd:	10c8c2        	addi	a12, a8, 16
400d1dc0:	00a022        	movi	a2, 0
400d1dc3:	430c      	movi.n	a3, 4
400d1dc5:	a72a      	add.n	a10, a7, a2
400d1dc7:	000aa2        	l8ui	a10, a10, 0
400d1dca:	982a      	add.n	a9, a8, a2
400d1dcc:	2449a2        	s8i	a10, a9, 36
400d1dcf:	221b      	addi.n	a2, a2, 1
400d1dd1:	330b      	addi.n	a3, a3, -1
400d1dd3:	fee356        	bnez	a3, 400d1dc5 <adc2_config_channel_atten+0x91>
400d1dd6:	f8a621        	l32r	a2, 400d0070 <_image_irom_vaddr+0x50> (2000005 <CONFIG_FLASH_SIZE+0x1c00005>)
400d1dd9:	f8a6a1        	l32r	a10, 400d0074 <_image_irom_vaddr+0x54> (3ffb07f0 <log_const_adc_common>)
400d1ddc:	c1a0b2        	movi	a11, 193
400d1ddf:	046822        	s32i	a2, a8, 16
400d1de2:	11bba0        	slli	a11, a11, 6
400d1de5:	ff8025        	call8	400d15e8 <z_log_msg_static_create$constprop$0>
400d1de8:	02a182        	movi	a8, 0x102
400d1deb:	001410        	movsp	a1, a4
400d1dee:	002886        	j	400d1e94 <adc2_config_channel_atten+0x160>
400d1df1:	20b220        	or	a11, a2, a2
400d1df4:	02a0a2        	movi	a10, 2
400d1df7:	ff95a5        	call8	400d1750 <adc_common_gpio_init>
400d1dfa:	0c0c      	movi.n	a12, 0
400d1dfc:	f8b2a1        	l32r	a10, 400d00c4 <_image_irom_vaddr+0xa4> (3ffb07cc <adc2_wifi_lock>)
400d1dff:	0cdd      	mov.n	a13, a12
400d1e01:	af9c25        	call8	400817c4 <z_impl_k_mutex_lock>
400d1e04:	07a182        	movi	a8, 0x107
400d1e07:	020a66        	bnei	a10, -1, 400d1e0d <adc2_config_channel_atten+0xd9>
400d1e0a:	002186        	j	400d1e94 <adc2_config_channel_atten+0x160>
400d1e0d:	0063a0        	rsil	a10, 3
400d1e10:	f89c81        	l32r	a8, 400d0080 <_image_irom_vaddr+0x60> (3ffb1dc0 <adc_context>)
400d1e13:	1fafb2        	movi	a11, -225
400d1e16:	08a9      	s32i.n	a10, a8, 0
400d1e18:	f88d81        	l32r	a8, 400d004c <_image_irom_vaddr+0x2c> (3ff48800 <SENS>)
400d1e1b:	222a      	add.n	a2, a2, a2
400d1e1d:	0020c0        	memw
400d1e20:	b898      	l32i.n	a9, a8, 44
400d1e22:	401200        	ssl	a2
400d1e25:	a13300        	sll	a3, a3
400d1e28:	1099b0        	and	a9, a9, a11
400d1e2b:	80a0b2        	movi	a11, 128
400d1e2e:	2099b0        	or	a9, a9, a11
400d1e31:	0020c0        	memw
400d1e34:	b899      	s32i.n	a9, a8, 44
400d1e36:	0020c0        	memw
400d1e39:	242892        	l32i	a9, a8, 144
400d1e3c:	1b0c      	movi.n	a11, 1
400d1e3e:	01bb30        	slli	a11, a11, 29
400d1e41:	2099b0        	or	a9, a9, a11
400d1e44:	0020c0        	memw
400d1e47:	246892        	s32i	a9, a8, 144
400d1e4a:	0020c0        	memw
400d1e4d:	242892        	l32i	a9, a8, 144
400d1e50:	3b0c      	movi.n	a11, 3
400d1e52:	0020c0        	memw
400d1e55:	0799      	s32i.n	a9, a7, 0
400d1e57:	290c      	movi.n	a9, 2
400d1e59:	0020c0        	memw
400d1e5c:	004792        	s8i	a9, a7, 0
400d1e5f:	0020c0        	memw
400d1e62:	0798      	l32i.n	a9, a7, 0
400d1e64:	401200        	ssl	a2
400d1e67:	a1bb00        	sll	a11, a11
400d1e6a:	0020c0        	memw
400d1e6d:	246892        	s32i	a9, a8, 144
400d1e70:	0020c0        	memw
400d1e73:	e8c8      	l32i.n	a12, a8, 56
400d1e75:	f97c      	movi.n	a9, -1
400d1e77:	3099b0        	xor	a9, a9, a11
400d1e7a:	1099c0        	and	a9, a9, a12
400d1e7d:	209930        	or	a9, a9, a3
400d1e80:	0020c0        	memw
400d1e83:	0e6892        	s32i	a9, a8, 56
400d1e86:	13e6a0        	wsr.ps	a10
400d1e89:	002010        	rsync
400d1e8c:	f88ea1        	l32r	a10, 400d00c4 <_image_irom_vaddr+0xa4> (3ffb07cc <adc2_wifi_lock>)
400d1e8f:	ff8365        	call8	400d16c4 <k_mutex_unlock$isra$0>
400d1e92:	080c      	movi.n	a8, 0
400d1e94:	082d      	mov.n	a2, a8
400d1e96:	f01d      	retw.n

400d1e98 <adc2_get_raw>:
400d1e98:	006136        	entry	a1, 48
400d1e9b:	017d      	mov.n	a7, a1
400d1e9d:	0d0c      	movi.n	a13, 0
400d1e9f:	17d9      	s32i.n	a13, a7, 4
400d1ea1:	5994d7        	bne	a4, a13, 400d1efe <adc2_get_raw+0x66>
400d1ea4:	d0c122        	addi	a2, a1, -48
400d1ea7:	015d      	mov.n	a5, a1
400d1ea9:	001210        	movsp	a1, a2
400d1eac:	f86e31        	l32r	a3, 400d0064 <_image_irom_vaddr+0x44> (3f400bf4 <gpio_esp32_driver_api+0x148>)
400d1eaf:	f88661        	l32r	a6, 400d00c8 <_image_irom_vaddr+0xa8> (3f400ccd <__FUNCTION__$0>)
400d1eb2:	5239      	s32i.n	a3, a2, 20
400d1eb4:	230c      	movi.n	a3, 2
400d1eb6:	014732        	s8i	a3, a7, 1
400d1eb9:	024732        	s8i	a3, a7, 2
400d1ebc:	430c      	movi.n	a3, 4
400d1ebe:	034732        	s8i	a3, a7, 3
400d1ec1:	f88231        	l32r	a3, 400d00cc <_image_irom_vaddr+0xac> (3f400cab <gpio_esp32_driver_api+0x1ff>)
400d1ec4:	6269      	s32i.n	a6, a2, 24
400d1ec6:	40a262        	movi	a6, 0x240
400d1ec9:	8239      	s32i.n	a3, a2, 32
400d1ecb:	10c2c2        	addi	a12, a2, 16
400d1ece:	004742        	s8i	a4, a7, 0
400d1ed1:	7269      	s32i.n	a6, a2, 28
400d1ed3:	430c      	movi.n	a3, 4
400d1ed5:	0d8376        	loop	a3, 400d1ee6 <adc2_get_raw+0x4e>
400d1ed8:	874a      	add.n	a8, a7, a4
400d1eda:	000882        	l8ui	a8, a8, 0
400d1edd:	806240        	add	a6, a2, a4
400d1ee0:	244682        	s8i	a8, a6, 36
400d1ee3:	01c442        	addi	a4, a4, 1
400d1ee6:	f86231        	l32r	a3, 400d0070 <_image_irom_vaddr+0x50> (2000005 <CONFIG_FLASH_SIZE+0x1c00005>)
400d1ee9:	f862a1        	l32r	a10, 400d0074 <_image_irom_vaddr+0x54> (3ffb07f0 <log_const_adc_common>)
400d1eec:	c1a0b2        	movi	a11, 193
400d1eef:	046232        	s32i	a3, a2, 16
400d1ef2:	11bba0        	slli	a11, a11, 6
400d1ef5:	ff6f25        	call8	400d15e8 <z_log_msg_static_create$constprop$0>
400d1ef8:	001510        	movsp	a1, a5
400d1efb:	001706        	j	400d1f5b <adc2_get_raw+0xc3>
400d1efe:	950c      	movi.n	a5, 9
400d1f00:	5db527        	bgeu	a5, a2, 400d1f61 <adc2_get_raw+0xc9>
400d1f03:	d0c122        	addi	a2, a1, -48
400d1f06:	014d      	mov.n	a4, a1
400d1f08:	001210        	movsp	a1, a2
400d1f0b:	f85631        	l32r	a3, 400d0064 <_image_irom_vaddr+0x44> (3f400bf4 <gpio_esp32_driver_api+0x148>)
400d1f0e:	f86e51        	l32r	a5, 400d00c8 <_image_irom_vaddr+0xa8> (3f400ccd <__FUNCTION__$0>)
400d1f11:	5239      	s32i.n	a3, a2, 20
400d1f13:	230c      	movi.n	a3, 2
400d1f15:	014732        	s8i	a3, a7, 1
400d1f18:	024732        	s8i	a3, a7, 2
400d1f1b:	430c      	movi.n	a3, 4
400d1f1d:	034732        	s8i	a3, a7, 3
400d1f20:	f86c31        	l32r	a3, 400d00d0 <_image_irom_vaddr+0xb0> (3f400cbd <gpio_esp32_driver_api+0x211>)
400d1f23:	6259      	s32i.n	a5, a2, 24
400d1f25:	41a252        	movi	a5, 0x241
400d1f28:	8239      	s32i.n	a3, a2, 32
400d1f2a:	10c2c2        	addi	a12, a2, 16
400d1f2d:	0047d2        	s8i	a13, a7, 0
400d1f30:	7259      	s32i.n	a5, a2, 28
400d1f32:	04a032        	movi	a3, 4
400d1f35:	0d8376        	loop	a3, 400d1f46 <adc2_get_raw+0xae>
400d1f38:	67da      	add.n	a6, a7, a13
400d1f3a:	000662        	l8ui	a6, a6, 0
400d1f3d:	8052d0        	add	a5, a2, a13
400d1f40:	244562        	s8i	a6, a5, 36
400d1f43:	01cdd2        	addi	a13, a13, 1
400d1f46:	f84a31        	l32r	a3, 400d0070 <_image_irom_vaddr+0x50> (2000005 <CONFIG_FLASH_SIZE+0x1c00005>)
400d1f49:	f84aa1        	l32r	a10, 400d0074 <_image_irom_vaddr+0x54> (3ffb07f0 <log_const_adc_common>)
400d1f4c:	c1a0b2        	movi	a11, 193
400d1f4f:	046232        	s32i	a3, a2, 16
400d1f52:	11bba0        	slli	a11, a11, 6
400d1f55:	ff6925        	call8	400d15e8 <z_log_msg_static_create$constprop$0>
400d1f58:	001410        	movsp	a1, a4
400d1f5b:	02a162        	movi	a6, 0x102
400d1f5e:	0046c6        	j	400d207d <adc2_get_raw+0x1e5>
400d1f61:	4443b6        	bltui	a3, 4, 400d1fa9 <adc2_get_raw+0x111>
400d1f64:	d0c122        	addi	a2, a1, -48
400d1f67:	014d      	mov.n	a4, a1
400d1f69:	001210        	movsp	a1, a2
400d1f6c:	f83e31        	l32r	a3, 400d0064 <_image_irom_vaddr+0x44> (3f400bf4 <gpio_esp32_driver_api+0x148>)
400d1f6f:	f85651        	l32r	a5, 400d00c8 <_image_irom_vaddr+0xa8> (3f400ccd <__FUNCTION__$0>)
400d1f72:	5239      	s32i.n	a3, a2, 20
400d1f74:	230c      	movi.n	a3, 2
400d1f76:	014732        	s8i	a3, a7, 1
400d1f79:	024732        	s8i	a3, a7, 2
400d1f7c:	430c      	movi.n	a3, 4
400d1f7e:	034732        	s8i	a3, a7, 3
400d1f81:	f84731        	l32r	a3, 400d00a0 <_image_irom_vaddr+0x80> (3f400c64 <gpio_esp32_driver_api+0x1b8>)
400d1f84:	6259      	s32i.n	a5, a2, 24
400d1f86:	43a252        	movi	a5, 0x243
400d1f89:	8239      	s32i.n	a3, a2, 32
400d1f8b:	10c2c2        	addi	a12, a2, 16
400d1f8e:	0047d2        	s8i	a13, a7, 0
400d1f91:	7259      	s32i.n	a5, a2, 28
400d1f93:	430c      	movi.n	a3, 4
400d1f95:	0b8376        	loop	a3, 400d1fa4 <adc2_get_raw+0x10c>
400d1f98:	67da      	add.n	a6, a7, a13
400d1f9a:	000662        	l8ui	a6, a6, 0
400d1f9d:	52da      	add.n	a5, a2, a13
400d1f9f:	244562        	s8i	a6, a5, 36
400d1fa2:	dd1b      	addi.n	a13, a13, 1
400d1fa4:	ffe786        	j	400d1f46 <adc2_get_raw+0xae>
400d1fa7:	00          	.byte 00
400d1fa8:	00          	.byte 00
400d1fa9:	f846a1        	l32r	a10, 400d00c4 <_image_irom_vaddr+0xa4> (3ffb07cc <adc2_wifi_lock>)
400d1fac:	0dcd      	mov.n	a12, a13
400d1fae:	af8165        	call8	400817c4 <z_impl_k_mutex_lock>
400d1fb1:	07a162        	movi	a6, 0x107
400d1fb4:	020a66        	bnei	a10, -1, 400d1fba <adc2_get_raw+0x122>
400d1fb7:	003086        	j	400d207d <adc2_get_raw+0x1e5>
400d1fba:	ff7165        	call8	400d16d0 <adc_power_acquire>
400d1fbd:	006360        	rsil	a6, 3
400d1fc0:	f83051        	l32r	a5, 400d0080 <_image_irom_vaddr+0x60> (3ffb1dc0 <adc_context>)
400d1fc3:	f82281        	l32r	a8, 400d004c <_image_irom_vaddr+0x2c> (3ff48800 <SENS>)
400d1fc6:	0569      	s32i.n	a6, a5, 0
400d1fc8:	0020c0        	memw
400d1fcb:	b898      	l32i.n	a9, a8, 44
400d1fcd:	143030        	extui	a3, a3, 0, 2
400d1fd0:	3a7c      	movi.n	a10, -13
400d1fd2:	1163e0        	slli	a6, a3, 2
400d1fd5:	1099a0        	and	a9, a9, a10
400d1fd8:	209960        	or	a9, a9, a6
400d1fdb:	0020c0        	memw
400d1fde:	b899      	s32i.n	a9, a8, 44
400d1fe0:	0020c0        	memw
400d1fe3:	242892        	l32i	a9, a8, 144
400d1fe6:	f81c61        	l32r	a6, 400d0058 <_image_irom_vaddr+0x38> (fffcffff <_rtc_bss_end+0xaffcffff>)
400d1fe9:	113300        	slli	a3, a3, 16
400d1fec:	109960        	and	a9, a9, a6
400d1fef:	203930        	or	a3, a9, a3
400d1ff2:	0020c0        	memw
400d1ff5:	246832        	s32i	a3, a8, 144
400d1ff8:	0020c0        	memw
400d1ffb:	252832        	l32i	a3, a8, 148
400d1ffe:	160c      	movi.n	a6, 1
400d2000:	0166e0        	slli	a6, a6, 18
400d2003:	203360        	or	a3, a3, a6
400d2006:	0020c0        	memw
400d2009:	256832        	s32i	a3, a8, 148
400d200c:	0020c0        	memw
400d200f:	252832        	l32i	a3, a8, 148
400d2012:	f67c      	movi.n	a6, -1
400d2014:	016610        	slli	a6, a6, 31
400d2017:	203360        	or	a3, a3, a6
400d201a:	0020c0        	memw
400d201d:	256832        	s32i	a3, a8, 148
400d2020:	0020c0        	memw
400d2023:	242832        	l32i	a3, a8, 144
400d2026:	f82b61        	l32r	a6, 400d00d4 <_image_irom_vaddr+0xb4> (efffffff <_rtc_bss_end+0x9fffffff>)
400d2029:	02bd      	mov.n	a11, a2
400d202b:	103360        	and	a3, a3, a6
400d202e:	0020c0        	memw
400d2031:	246832        	s32i	a3, a8, 144
400d2034:	0020c0        	memw
400d2037:	242832        	l32i	a3, a8, 144
400d203a:	f81f61        	l32r	a6, 400d00b8 <_image_irom_vaddr+0x98> (f7ffffff <_rtc_bss_end+0xa7ffffff>)
400d203d:	1a0c      	movi.n	a10, 1
400d203f:	103360        	and	a3, a3, a6
400d2042:	f82561        	l32r	a6, 400d00d8 <_image_irom_vaddr+0xb8> (3ff66000 <SYSCON>)
400d2045:	0020c0        	memw
400d2048:	246832        	s32i	a3, a8, 144
400d204b:	0020c0        	memw
400d204e:	4638      	l32i.n	a3, a6, 16
400d2050:	480c      	movi.n	a8, 4
400d2052:	203380        	or	a3, a3, a8
400d2055:	0020c0        	memw
400d2058:	4639      	s32i.n	a3, a6, 16
400d205a:	c78a      	add.n	a12, a7, a8
400d205c:	ff3fe5        	call8	400d145c <adc_hal_convert>
400d205f:	0a6d      	mov.n	a6, a10
400d2061:	3a8c      	beqz.n	a10, 400d2068 <adc2_get_raw+0x1d0>
400d2063:	f27c      	movi.n	a2, -1
400d2065:	016722        	s32i	a2, a7, 4
400d2068:	0528      	l32i.n	a2, a5, 0
400d206a:	13e620        	wsr.ps	a2
400d206d:	002010        	rsync
400d2070:	ff6925        	call8	400d1704 <adc_power_release>
400d2073:	f814a1        	l32r	a10, 400d00c4 <_image_irom_vaddr+0xa4> (3ffb07cc <adc2_wifi_lock>)
400d2076:	ff64e5        	call8	400d16c4 <k_mutex_unlock$isra$0>
400d2079:	1728      	l32i.n	a2, a7, 4
400d207b:	0429      	s32i.n	a2, a4, 0
400d207d:	062d      	mov.n	a2, a6
400d207f:	f01d      	retw.n
400d2081:	000000        	ill

400d2084 <rtcio_ll_input_enable>:
400d2084:	004136        	entry	a1, 32
400d2087:	f81581        	l32r	a8, 400d00dc <_image_irom_vaddr+0xbc> (3f400250 <rtc_io_desc>)
400d208a:	f02220        	subx8	a2, a2, a2
400d208d:	b02280        	addx8	a2, a2, a8
400d2090:	0298      	l32i.n	a9, a2, 0
400d2092:	3228      	l32i.n	a2, a2, 12
400d2094:	0020c0        	memw
400d2097:	0988      	l32i.n	a8, a9, 0
400d2099:	202820        	or	a2, a8, a2
400d209c:	0020c0        	memw
400d209f:	0929      	s32i.n	a2, a9, 0
400d20a1:	f01d      	retw.n
	...

400d20a4 <rtcio_ll_input_disable>:
400d20a4:	004136        	entry	a1, 32
400d20a7:	f80d81        	l32r	a8, 400d00dc <_image_irom_vaddr+0xbc> (3f400250 <rtc_io_desc>)
400d20aa:	f02220        	subx8	a2, a2, a2
400d20ad:	b02280        	addx8	a2, a2, a8
400d20b0:	0298      	l32i.n	a9, a2, 0
400d20b2:	3228      	l32i.n	a2, a2, 12
400d20b4:	0020c0        	memw
400d20b7:	09a8      	l32i.n	a10, a9, 0
400d20b9:	f87c      	movi.n	a8, -1
400d20bb:	308820        	xor	a8, a8, a2
400d20be:	1088a0        	and	a8, a8, a10
400d20c1:	0020c0        	memw
400d20c4:	0989      	s32i.n	a8, a9, 0
400d20c6:	f01d      	retw.n

400d20c8 <rtcio_hal_set_direction>:
400d20c8:	004136        	entry	a1, 32
400d20cb:	02ad      	mov.n	a10, a2
400d20cd:	0263b6        	bltui	a3, 6, 400d20d3 <rtcio_hal_set_direction+0xb>
400d20d0:	003906        	j	400d21b8 <rtcio_hal_set_direction+0xf0>
400d20d3:	f80381        	l32r	a8, 400d00e0 <_image_irom_vaddr+0xc0> (3f400108 <__rodata_region_start+0xc8>)
400d20d6:	f7f591        	l32r	a9, 400d00ac <_image_irom_vaddr+0x8c> (3ff48400 <RTCIO>)
400d20d9:	a03380        	addx4	a3, a3, a8
400d20dc:	0338      	l32i.n	a3, a3, 0
400d20de:	828b      	addi.n	a8, a2, 8
400d20e0:	a08890        	addx4	a8, a8, a9
400d20e3:	0003a0        	jx	a3
400d20e6:	0020c0        	memw
400d20e9:	2838      	l32i.n	a3, a8, 8
400d20eb:	bb7c      	movi.n	a11, -5
400d20ed:	1033b0        	and	a3, a3, a11
400d20f0:	0020c0        	memw
400d20f3:	2839      	s32i.n	a3, a8, 8
400d20f5:	0020c0        	memw
400d20f8:	5988      	l32i.n	a8, a9, 20
400d20fa:	1b0c      	movi.n	a11, 1
400d20fc:	401200        	ssl	a2
400d20ff:	a1bb00        	sll	a11, a11
400d2102:	11bb20        	slli	a11, a11, 14
400d2105:	d48080        	extui	a8, a8, 0, 14
400d2108:	2088b0        	or	a8, a8, a11
400d210b:	0020c0        	memw
400d210e:	5989      	s32i.n	a8, a9, 20
400d2110:	002846        	j	400d21b5 <rtcio_hal_set_direction+0xed>
400d2113:	0020c0        	memw
400d2116:	2838      	l32i.n	a3, a8, 8
400d2118:	bb7c      	movi.n	a11, -5
400d211a:	1033b0        	and	a3, a3, a11
400d211d:	0010c6        	j	400d2164 <rtcio_hal_set_direction+0x9c>
400d2120:	0020c0        	memw
400d2123:	2838      	l32i.n	a3, a8, 8
400d2125:	bb7c      	movi.n	a11, -5
400d2127:	1033b0        	and	a3, a3, a11
400d212a:	0019c6        	j	400d2195 <rtcio_hal_set_direction+0xcd>
400d212d:	0020c0        	memw
400d2130:	2838      	l32i.n	a3, a8, 8
400d2132:	bb7c      	movi.n	a11, -5
400d2134:	1033b0        	and	a3, a3, a11
400d2137:	0020c0        	memw
400d213a:	2839      	s32i.n	a3, a8, 8
400d213c:	0020c0        	memw
400d213f:	5988      	l32i.n	a8, a9, 20
400d2141:	1b0c      	movi.n	a11, 1
400d2143:	401200        	ssl	a2
400d2146:	a1bb00        	sll	a11, a11
400d2149:	11bb20        	slli	a11, a11, 14
400d214c:	d48080        	extui	a8, a8, 0, 14
400d214f:	2088b0        	or	a8, a8, a11
400d2152:	0020c0        	memw
400d2155:	5989      	s32i.n	a8, a9, 20
400d2157:	000a86        	j	400d2185 <rtcio_hal_set_direction+0xbd>
400d215a:	0020c0        	memw
400d215d:	2838      	l32i.n	a3, a8, 8
400d215f:	4b0c      	movi.n	a11, 4
400d2161:	2033b0        	or	a3, a3, a11
400d2164:	0020c0        	memw
400d2167:	2839      	s32i.n	a3, a8, 8
400d2169:	0020c0        	memw
400d216c:	4988      	l32i.n	a8, a9, 16
400d216e:	1b0c      	movi.n	a11, 1
400d2170:	401a00        	ssl	a10
400d2173:	a1bb00        	sll	a11, a11
400d2176:	11bb20        	slli	a11, a11, 14
400d2179:	d48080        	extui	a8, a8, 0, 14
400d217c:	2088b0        	or	a8, a8, a11
400d217f:	0020c0        	memw
400d2182:	046982        	s32i	a8, a9, 16
400d2185:	fff1e5        	call8	400d20a4 <rtcio_ll_input_disable>
400d2188:	000b06        	j	400d21b8 <rtcio_hal_set_direction+0xf0>
400d218b:	0020c0        	memw
400d218e:	2838      	l32i.n	a3, a8, 8
400d2190:	4b0c      	movi.n	a11, 4
400d2192:	2033b0        	or	a3, a3, a11
400d2195:	0020c0        	memw
400d2198:	2839      	s32i.n	a3, a8, 8
400d219a:	0020c0        	memw
400d219d:	4988      	l32i.n	a8, a9, 16
400d219f:	1b0c      	movi.n	a11, 1
400d21a1:	401a00        	ssl	a10
400d21a4:	a1bb00        	sll	a11, a11
400d21a7:	11bb20        	slli	a11, a11, 14
400d21aa:	d48080        	extui	a8, a8, 0, 14
400d21ad:	2088b0        	or	a8, a8, a11
400d21b0:	0020c0        	memw
400d21b3:	4989      	s32i.n	a8, a9, 16
400d21b5:	ffece5        	call8	400d2084 <rtcio_ll_input_enable>
400d21b8:	f01d      	retw.n
	...

400d21bc <rtc_gpio_is_valid_gpio>:
400d21bc:	004136        	entry	a1, 32
400d21bf:	792c      	movi.n	a9, 39
400d21c1:	080c      	movi.n	a8, 0
400d21c3:	0f2927        	blt	a9, a2, 400d21d6 <rtc_gpio_is_valid_gpio+0x1a>
400d21c6:	f7c781        	l32r	a8, 400d00e4 <_image_irom_vaddr+0xc4> (3f400640 <rtc_io_num_map>)
400d21c9:	a02280        	addx4	a2, a2, a8
400d21cc:	0228      	l32i.n	a2, a2, 0
400d21ce:	f87c      	movi.n	a8, -1
400d21d0:	308820        	xor	a8, a8, a2
400d21d3:	058f80        	extui	a8, a8, 31, 1
400d21d6:	082d      	mov.n	a2, a8
400d21d8:	f01d      	retw.n
	...

400d21dc <rtc_gpio_init>:
400d21dc:	004136        	entry	a1, 32
400d21df:	02ad      	mov.n	a10, a2
400d21e1:	fffda5        	call8	400d21bc <rtc_gpio_is_valid_gpio>
400d21e4:	02a182        	movi	a8, 0x102
400d21e7:	04da16        	beqz	a10, 400d2238 <rtc_gpio_init+0x5c>
400d21ea:	0063a0        	rsil	a10, 3
400d21ed:	f7be81        	l32r	a8, 400d00e8 <_image_irom_vaddr+0xc8> (3ffb1dc4 <rtcio_context>)
400d21f0:	08a9      	s32i.n	a10, a8, 0
400d21f2:	f7bc81        	l32r	a8, 400d00e4 <_image_irom_vaddr+0xc4> (3f400640 <rtc_io_num_map>)
400d21f5:	a02280        	addx4	a2, a2, a8
400d21f8:	0288      	l32i.n	a8, a2, 0
400d21fa:	f7b821        	l32r	a2, 400d00dc <_image_irom_vaddr+0xbc> (3f400250 <rtc_io_desc>)
400d21fd:	f08880        	subx8	a8, a8, a8
400d2200:	b08820        	addx8	a8, a8, a2
400d2203:	0898      	l32i.n	a9, a8, 0
400d2205:	18b8      	l32i.n	a11, a8, 4
400d2207:	0020c0        	memw
400d220a:	0928      	l32i.n	a2, a9, 0
400d220c:	2888      	l32i.n	a8, a8, 8
400d220e:	2022b0        	or	a2, a2, a11
400d2211:	0020c0        	memw
400d2214:	0929      	s32i.n	a2, a9, 0
400d2216:	320c      	movi.n	a2, 3
400d2218:	0020c0        	memw
400d221b:	09b8      	l32i.n	a11, a9, 0
400d221d:	401800        	ssl	a8
400d2220:	a12200        	sll	a2, a2
400d2223:	f87c      	movi.n	a8, -1
400d2225:	308820        	xor	a8, a8, a2
400d2228:	1088b0        	and	a8, a8, a11
400d222b:	0020c0        	memw
400d222e:	0989      	s32i.n	a8, a9, 0
400d2230:	13e6a0        	wsr.ps	a10
400d2233:	002010        	rsync
400d2236:	080c      	movi.n	a8, 0
400d2238:	082d      	mov.n	a2, a8
400d223a:	f01d      	retw.n

400d223c <rtc_gpio_set_direction>:
400d223c:	004136        	entry	a1, 32
400d223f:	02ad      	mov.n	a10, a2
400d2241:	fff7a5        	call8	400d21bc <rtc_gpio_is_valid_gpio>
400d2244:	02a182        	movi	a8, 0x102
400d2247:	da9c      	beqz.n	a10, 400d2268 <rtc_gpio_set_direction+0x2c>
400d2249:	006380        	rsil	a8, 3
400d224c:	f7a741        	l32r	a4, 400d00e8 <_image_irom_vaddr+0xc8> (3ffb1dc4 <rtcio_context>)
400d224f:	03bd      	mov.n	a11, a3
400d2251:	0489      	s32i.n	a8, a4, 0
400d2253:	f7a481        	l32r	a8, 400d00e4 <_image_irom_vaddr+0xc4> (3f400640 <rtc_io_num_map>)
400d2256:	a02280        	addx4	a2, a2, a8
400d2259:	02a8      	l32i.n	a10, a2, 0
400d225b:	ffe6e5        	call8	400d20c8 <rtcio_hal_set_direction>
400d225e:	0428      	l32i.n	a2, a4, 0
400d2260:	13e620        	wsr.ps	a2
400d2263:	002010        	rsync
400d2266:	080c      	movi.n	a8, 0
400d2268:	082d      	mov.n	a2, a8
400d226a:	f01d      	retw.n

400d226c <rtc_gpio_pullup_dis>:
400d226c:	004136        	entry	a1, 32
400d226f:	02ad      	mov.n	a10, a2
400d2271:	fff4a5        	call8	400d21bc <rtc_gpio_is_valid_gpio>
400d2274:	02a182        	movi	a8, 0x102
400d2277:	9abc      	beqz.n	a10, 400d22b4 <rtc_gpio_pullup_dis+0x48>
400d2279:	006390        	rsil	a9, 3
400d227c:	f79b81        	l32r	a8, 400d00e8 <_image_irom_vaddr+0xc8> (3ffb1dc4 <rtcio_context>)
400d227f:	0899      	s32i.n	a9, a8, 0
400d2281:	f79881        	l32r	a8, 400d00e4 <_image_irom_vaddr+0xc4> (3f400640 <rtc_io_num_map>)
400d2284:	a02280        	addx4	a2, a2, a8
400d2287:	0288      	l32i.n	a8, a2, 0
400d2289:	f79421        	l32r	a2, 400d00dc <_image_irom_vaddr+0xbc> (3f400250 <rtc_io_desc>)
400d228c:	f08880        	subx8	a8, a8, a8
400d228f:	b08820        	addx8	a8, a8, a2
400d2292:	48a8      	l32i.n	a10, a8, 16
400d2294:	4a9c      	beqz.n	a10, 400d22ac <rtc_gpio_pullup_dis+0x40>
400d2296:	0828      	l32i.n	a2, a8, 0
400d2298:	f87c      	movi.n	a8, -1
400d229a:	0020c0        	memw
400d229d:	0022b2        	l32i	a11, a2, 0
400d22a0:	3088a0        	xor	a8, a8, a10
400d22a3:	1088b0        	and	a8, a8, a11
400d22a6:	0020c0        	memw
400d22a9:	006282        	s32i	a8, a2, 0
400d22ac:	13e690        	wsr.ps	a9
400d22af:	002010        	rsync
400d22b2:	080c      	movi.n	a8, 0
400d22b4:	082d      	mov.n	a2, a8
400d22b6:	f01d      	retw.n

400d22b8 <rtc_gpio_pulldown_dis>:
400d22b8:	004136        	entry	a1, 32
400d22bb:	02ad      	mov.n	a10, a2
400d22bd:	ffefe5        	call8	400d21bc <rtc_gpio_is_valid_gpio>
400d22c0:	02a182        	movi	a8, 0x102
400d22c3:	9abc      	beqz.n	a10, 400d2300 <rtc_gpio_pulldown_dis+0x48>
400d22c5:	006390        	rsil	a9, 3
400d22c8:	f78881        	l32r	a8, 400d00e8 <_image_irom_vaddr+0xc8> (3ffb1dc4 <rtcio_context>)
400d22cb:	0899      	s32i.n	a9, a8, 0
400d22cd:	f78581        	l32r	a8, 400d00e4 <_image_irom_vaddr+0xc4> (3f400640 <rtc_io_num_map>)
400d22d0:	a02280        	addx4	a2, a2, a8
400d22d3:	0288      	l32i.n	a8, a2, 0
400d22d5:	f78121        	l32r	a2, 400d00dc <_image_irom_vaddr+0xbc> (3f400250 <rtc_io_desc>)
400d22d8:	f08880        	subx8	a8, a8, a8
400d22db:	b08820        	addx8	a8, a8, a2
400d22de:	58a8      	l32i.n	a10, a8, 20
400d22e0:	4a9c      	beqz.n	a10, 400d22f8 <rtc_gpio_pulldown_dis+0x40>
400d22e2:	0828      	l32i.n	a2, a8, 0
400d22e4:	f87c      	movi.n	a8, -1
400d22e6:	0020c0        	memw
400d22e9:	0022b2        	l32i	a11, a2, 0
400d22ec:	3088a0        	xor	a8, a8, a10
400d22ef:	1088b0        	and	a8, a8, a11
400d22f2:	0020c0        	memw
400d22f5:	006282        	s32i	a8, a2, 0
400d22f8:	13e690        	wsr.ps	a9
400d22fb:	002010        	rsync
400d22fe:	080c      	movi.n	a8, 0
400d2300:	082d      	mov.n	a2, a8
400d2302:	f01d      	retw.n

400d2304 <check_efuse_tp>:
400d2304:	004136        	entry	a1, 32
400d2307:	f77921        	l32r	a2, 400d00ec <_image_irom_vaddr+0xcc> (3ff5a00c <SENS+0x1180c>)
400d230a:	0020c0        	memw
400d230d:	0288      	l32i.n	a8, a2, 0
400d230f:	020c      	movi.n	a2, 0
400d2311:	3368e7        	bbci	a8, 14, 400d2348 <check_efuse_tp+0x44>
400d2314:	f77781        	l32r	a8, 400d00f0 <_image_irom_vaddr+0xd0> (3ff5a084 <SENS+0x11884>)
400d2317:	0020c0        	memw
400d231a:	0898      	l32i.n	a9, a8, 0
400d231c:	649090        	extui	a9, a9, 0, 7
400d231f:	251927        	beq	a9, a2, 400d2348 <check_efuse_tp+0x44>
400d2322:	0020c0        	memw
400d2325:	0898      	l32i.n	a9, a8, 0
400d2327:	659090        	extui	a9, a9, 16, 7
400d232a:	1a1927        	beq	a9, a2, 400d2348 <check_efuse_tp+0x44>
400d232d:	0020c0        	memw
400d2330:	0898      	l32i.n	a9, a8, 0
400d2332:	849790        	extui	a9, a9, 7, 9
400d2335:	0f1927        	beq	a9, a2, 400d2348 <check_efuse_tp+0x44>
400d2338:	0020c0        	memw
400d233b:	0888      	l32i.n	a8, a8, 0
400d233d:	190c      	movi.n	a9, 1
400d233f:	858780        	extui	a8, a8, 23, 9
400d2342:	932980        	movnez	a2, a9, a8
400d2345:	742020        	extui	a2, a2, 0, 8
400d2348:	f01d      	retw.n
	...

400d234c <esp_adc_cal_check_efuse>:
400d234c:	004136        	entry	a1, 32
400d234f:	151266        	bnei	a2, 1, 400d2368 <esp_adc_cal_check_efuse+0x1c>
400d2352:	201110        	or	a1, a1, a1
400d2355:	fffae5        	call8	400d2304 <check_efuse_tp>
400d2358:	4a8c      	beqz.n	a10, 400d2360 <esp_adc_cal_check_efuse+0x14>
400d235a:	080c      	movi.n	a8, 0
400d235c:	000786        	j	400d237e <esp_adc_cal_check_efuse+0x32>
400d235f:	00          	.byte 00
400d2360:	06a182        	movi	a8, 0x106
400d2363:	0005c6        	j	400d237e <esp_adc_cal_check_efuse+0x32>
400d2366:	00          	.byte 00
400d2367:	00          	.byte 00
400d2368:	02a182        	movi	a8, 0x102
400d236b:	f2cc      	bnez.n	a2, 400d237e <esp_adc_cal_check_efuse+0x32>
400d236d:	f76121        	l32r	a2, 400d00f4 <_image_irom_vaddr+0xd4> (3ff5a010 <SENS+0x11810>)
400d2370:	0020c0        	memw
400d2373:	0288      	l32i.n	a8, a2, 0
400d2375:	448880        	extui	a8, a8, 8, 5
400d2378:	fde856        	bnez	a8, 400d235a <esp_adc_cal_check_efuse+0xe>
400d237b:	fff846        	j	400d2360 <esp_adc_cal_check_efuse+0x14>
400d237e:	082d      	mov.n	a2, a8
400d2380:	f01d      	retw.n
	...

400d2384 <esp_adc_cal_characterize>:
400d2384:	004136        	entry	a1, 32
400d2387:	fff7e5        	call8	400d2304 <check_efuse_tp>
400d238a:	f75a81        	l32r	a8, 400d00f4 <_image_irom_vaddr+0xd4> (3ff5a010 <SENS+0x11810>)
400d238d:	f75a91        	l32r	a9, 400d00f8 <_image_irom_vaddr+0xd8> (3f400130 <adc1_vref_atten_offset>)
400d2390:	0020c0        	memw
400d2393:	002882        	l32i	a8, a8, 0
400d2396:	f75981        	l32r	a8, 400d00fc <_image_irom_vaddr+0xdc> (3f400150 <adc1_vref_atten_scale>)
400d2399:	051226        	beqi	a2, 1, 400d23a2 <esp_adc_cal_characterize+0x1e>
400d239c:	f75991        	l32r	a9, 400d0100 <_image_irom_vaddr+0xe0> (3f400120 <adc2_vref_atten_offset>)
400d239f:	f75981        	l32r	a8, 400d0104 <_image_irom_vaddr+0xe4> (3f400140 <adc2_vref_atten_scale>)
400d23a2:	a08380        	addx4	a8, a3, a8
400d23a5:	002882        	l32i	a8, a8, 0
400d23a8:	a09390        	addx4	a9, a3, a9
400d23ab:	828580        	mull	a8, a5, a8
400d23ae:	418c80        	srli	a8, a8, 12
400d23b1:	036682        	s32i	a8, a6, 12
400d23b4:	0988      	l32i.n	a8, a9, 0
400d23b6:	0629      	s32i.n	a2, a6, 0
400d23b8:	020c      	movi.n	a2, 0
400d23ba:	6629      	s32i.n	a2, a6, 24
400d23bc:	7629      	s32i.n	a2, a6, 28
400d23be:	4689      	s32i.n	a8, a6, 16
400d23c0:	1639      	s32i.n	a3, a6, 4
400d23c2:	2649      	s32i.n	a4, a6, 8
400d23c4:	5659      	s32i.n	a5, a6, 20
400d23c6:	220c      	movi.n	a2, 2
400d23c8:	f01d      	retw.n
	...

400d23cc <esp_adc_cal_raw_to_voltage>:
400d23cc:	004136        	entry	a1, 32
400d23cf:	2398      	l32i.n	a9, a3, 8
400d23d1:	380c      	movi.n	a8, 3
400d23d3:	c08890        	sub	a8, a8, a9
400d23d6:	401800        	ssl	a8
400d23d9:	a12200        	sll	a2, a2
400d23dc:	f74b81        	l32r	a8, 400d0108 <_image_irom_vaddr+0xe8> (fff <_image_dram_size+0x7c7>)
400d23df:	632280        	minu	a2, a2, a8
400d23e2:	3388      	l32i.n	a8, a3, 12
400d23e4:	4338      	l32i.n	a3, a3, 16
400d23e6:	822280        	mull	a2, a2, a8
400d23e9:	180c      	movi.n	a8, 1
400d23eb:	118810        	slli	a8, a8, 15
400d23ee:	228a      	add.n	a2, a2, a8
400d23f0:	f52020        	extui	a2, a2, 16, 16
400d23f3:	223a      	add.n	a2, a2, a3
400d23f5:	f01d      	retw.n
	...

400d23f8 <select_rtc_slow_clk>:
400d23f8:	004136        	entry	a1, 32
400d23fb:	204220        	or	a4, a2, a2
400d23fe:	01a032        	movi	a3, 1
400d2401:	441466        	bnei	a4, 1, 400d2449 <select_rtc_slow_clk+0x51>
400d2404:	041266        	bnei	a2, 1, 400d240c <select_rtc_slow_clk+0x14>
400d2407:	02ad      	mov.n	a10, a2
400d2409:	002125        	call8	400d261c <rtc_clk_32k_enable>
400d240c:	00a4b2        	movi	a11, 0x400
400d240f:	2a0c      	movi.n	a10, 2
400d2411:	00d4a5        	call8	400d315c <rtc_clk_cal>
400d2414:	f73e51        	l32r	a5, 400d010c <_image_irom_vaddr+0xec> (e4e1bf <CONFIG_FLASH_SIZE+0xa4e1bf>)
400d2417:	2e35a7        	bltu	a5, a10, 400d2449 <select_rtc_slow_clk+0x51>
400d241a:	071366        	bnei	a3, 1, 400d2425 <select_rtc_slow_clk+0x2d>
400d241d:	030c      	movi.n	a3, 0
400d241f:	e11a37        	beq	a10, a3, 400d2404 <select_rtc_slow_clk+0xc>
400d2422:	000d06        	j	400d245a <select_rtc_slow_clk+0x62>
400d2425:	f73a41        	l32r	a4, 400d0110 <_image_irom_vaddr+0xf0> (3ffb0008 <esp_log_default_level>)
400d2428:	0448      	l32i.n	a4, a4, 0
400d242a:	0624f6        	bgeui	a4, 2, 400d2434 <select_rtc_slow_clk+0x3c>
400d242d:	330b      	addi.n	a3, a3, -1
400d242f:	040c      	movi.n	a4, 0
400d2431:	000506        	j	400d2449 <select_rtc_slow_clk+0x51>
400d2434:	b04d25        	call8	40082908 <esp_log_early_timestamp>
400d2437:	0abd      	mov.n	a11, a10
400d2439:	f736c1        	l32r	a12, 400d0114 <_image_irom_vaddr+0xf4> (3f400db0 <__FUNCTION__$8+0x70>)
400d243c:	f737a1        	l32r	a10, 400d0118 <_image_irom_vaddr+0xf8> (3f400d60 <__FUNCTION__$8+0x20>)
400d243f:	f73781        	l32r	a8, 400d011c <_image_irom_vaddr+0xfc> (40007d54 <esp_rom_printf>)
400d2442:	0008e0        	callx8	a8
400d2445:	fff906        	j	400d242d <select_rtc_slow_clk+0x35>
400d2448:	00          	.byte 00
400d2449:	20a440        	or	a10, a4, a4
400d244c:	002be5        	call8	400d270c <rtc_clk_slow_freq_set>
400d244f:	00a4b2        	movi	a11, 0x400
400d2452:	0a0c      	movi.n	a10, 0
400d2454:	00d065        	call8	400d315c <rtc_clk_cal>
400d2457:	fa6a16        	beqz	a10, 400d2401 <select_rtc_slow_clk+0x9>
400d245a:	000525        	call8	400d24ac <esp_clk_slowclk_cal_set>
400d245d:	f01d      	retw.n
	...

400d2460 <esp_clk_init>:
400d2460:	008136        	entry	a1, 64
400d2463:	f72f21        	l32r	a2, 400d0120 <_image_irom_vaddr+0x100> (3f400040 <__rodata_region_start>)
400d2466:	02a8      	l32i.n	a10, a2, 0
400d2468:	007be5        	call8	400d2c28 <rtc_init>
400d246b:	1a0c      	movi.n	a10, 1
400d246d:	002f65        	call8	400d2764 <rtc_clk_fast_freq_set>
400d2470:	0a0c      	movi.n	a10, 0
400d2472:	fff865        	call8	400d23f8 <select_rtc_slow_clk>
400d2475:	10c1a2        	addi	a10, a1, 16
400d2478:	0052a5        	call8	400d29a4 <rtc_clk_cpu_freq_get_config>
400d247b:	01bd      	mov.n	a11, a1
400d247d:	f0a0a2        	movi	a10, 240
400d2480:	7128      	l32i.n	a2, a1, 28
400d2482:	004ca5        	call8	400d294c <rtc_clk_cpu_freq_mhz_to_config>
400d2485:	3a8c      	beqz.n	a10, 400d248c <esp_clk_init+0x2c>
400d2487:	01ad      	mov.n	a10, a1
400d2489:	006665        	call8	400d2af0 <rtc_clk_cpu_freq_set_config>
400d248c:	03eaa0        	rsr.ccount	a10
400d248f:	f0a082        	movi	a8, 240
400d2492:	a2ba80        	muluh	a11, a10, a8
400d2495:	82aa80        	mull	a10, a10, a8
400d2498:	20c220        	or	a12, a2, a2
400d249b:	00a0d2        	movi	a13, 0
400d249e:	f72181        	l32r	a8, 400d0124 <_image_irom_vaddr+0x104> (4000cff8 <__udivdi3>)
400d24a1:	0008e0        	callx8	a8
400d24a4:	13eaa0        	wsr.ccount	a10
400d24a7:	f01d      	retw.n
400d24a9:	000000        	ill

400d24ac <esp_clk_slowclk_cal_set>:
400d24ac:	004136        	entry	a1, 32
400d24af:	f71e81        	l32r	a8, 400d0128 <_image_irom_vaddr+0x108> (3ff48050 <RTCCNTL+0x50>)
400d24b2:	0020c0        	memw
400d24b5:	0829      	s32i.n	a2, a8, 0
400d24b7:	f01d      	retw.n
400d24b9:	000000        	ill

400d24bc <rtc_clk_cpu_freq_to_pll_mhz>:
400d24bc:	004136        	entry	a1, 32
400d24bf:	f71ba1        	l32r	a10, 400d012c <_image_irom_vaddr+0x10c> (3ff5a014 <SENS+0x11814>)
400d24c2:	790c      	movi.n	a9, 7
400d24c4:	0020c0        	memw
400d24c7:	0a38      	l32i.n	a3, a10, 0
400d24c9:	0b5c      	movi.n	a11, 80
400d24cb:	153630        	extui	a3, a3, 22, 2
400d24ce:	c03930        	sub	a3, a9, a3
400d24d1:	080c      	movi.n	a8, 0
400d24d3:	3e12b7        	beq	a2, a11, 400d2515 <rtc_clk_cpu_freq_to_pll_mhz+0x59>
400d24d6:	a0a0b2        	movi	a11, 160
400d24d9:	180c      	movi.n	a8, 1
400d24db:	3612b7        	beq	a2, a11, 400d2515 <rtc_clk_cpu_freq_to_pll_mhz+0x59>
400d24de:	f0a082        	movi	a8, 240
400d24e1:	109287        	bne	a2, a8, 400d24f5 <rtc_clk_cpu_freq_to_pll_mhz+0x39>
400d24e4:	0020c0        	memw
400d24e7:	0a38      	l32i.n	a3, a10, 0
400d24e9:	280c      	movi.n	a8, 2
400d24eb:	153630        	extui	a3, a3, 22, 2
400d24ee:	c03930        	sub	a3, a9, a3
400d24f1:	000806        	j	400d2515 <rtc_clk_cpu_freq_to_pll_mhz+0x59>
400d24f4:	00          	.byte 00
400d24f5:	f70681        	l32r	a8, 400d0110 <_image_irom_vaddr+0xf0> (3ffb0008 <esp_log_default_level>)
400d24f8:	002882        	l32i	a8, a8, 0
400d24fb:	011816        	beqz	a8, 400d2510 <rtc_clk_cpu_freq_to_pll_mhz+0x54>
400d24fe:	b040a5        	call8	40082908 <esp_log_early_timestamp>
400d2501:	20baa0        	or	a11, a10, a10
400d2504:	f70bc1        	l32r	a12, 400d0130 <_image_irom_vaddr+0x110> (3f400dac <__FUNCTION__$8+0x6c>)
400d2507:	f70ba1        	l32r	a10, 400d0134 <_image_irom_vaddr+0x114> (3f400db4 <__FUNCTION__$8+0x74>)
400d250a:	f70481        	l32r	a8, 400d011c <_image_irom_vaddr+0xfc> (40007d54 <esp_rom_printf>)
400d250d:	0008e0        	callx8	a8
400d2510:	012f25        	call8	400d3804 <abort>
400d2513:	080c      	movi.n	a8, 0
400d2515:	f70891        	l32r	a9, 400d0138 <_image_irom_vaddr+0x118> (3ff0003c <__device_handles_end+0xafeb7c>)
400d2518:	f70aa1        	l32r	a10, 400d0140 <_image_irom_vaddr+0x120> (ffffc7ff <_rtc_bss_end+0xafffc7ff>)
400d251b:	0020c0        	memw
400d251e:	006982        	s32i	a8, a9, 0
400d2521:	f70691        	l32r	a9, 400d013c <_image_irom_vaddr+0x11c> (3ff4807c <RTCCNTL+0x7c>)
400d2524:	113350        	slli	a3, a3, 11
400d2527:	0020c0        	memw
400d252a:	002982        	l32i	a8, a9, 0
400d252d:	1088a0        	and	a8, a8, a10
400d2530:	203830        	or	a3, a8, a3
400d2533:	0020c0        	memw
400d2536:	0939      	s32i.n	a3, a9, 0
400d2538:	f70391        	l32r	a9, 400d0144 <_image_irom_vaddr+0x124> (3ff48070 <RTCCNTL+0x70>)
400d253b:	f70381        	l32r	a8, 400d0148 <_image_irom_vaddr+0x128> (e7ffffff <_rtc_bss_end+0x97ffffff>)
400d253e:	0020c0        	memw
400d2541:	0938      	l32i.n	a3, a9, 0
400d2543:	02ad      	mov.n	a10, a2
400d2545:	103380        	and	a3, a3, a8
400d2548:	180c      	movi.n	a8, 1
400d254a:	018850        	slli	a8, a8, 27
400d254d:	203380        	or	a3, a3, a8
400d2550:	0020c0        	memw
400d2553:	0939      	s32i.n	a3, a9, 0
400d2555:	f6fe81        	l32r	a8, 400d0150 <_image_irom_vaddr+0x130> (4c4b4c4b <_etext+0xc3e0057>)
400d2558:	f6fd31        	l32r	a3, 400d014c <_image_irom_vaddr+0x12c> (3ff480b4 <RTCCNTL+0xb4>)
400d255b:	0020c0        	memw
400d255e:	0389      	s32i.n	a8, a3, 0
400d2560:	ae1325        	call8	40080694 <ets_update_cpu_frequency>
400d2563:	00c465        	call8	400d31a8 <rtc_clk_wait_for_slow_cycle>
400d2566:	f01d      	retw.n

400d2568 <rtc_clk_bbpll_disable>:
400d2568:	004136        	entry	a1, 32
400d256b:	f6fa81        	l32r	a8, 400d0154 <_image_irom_vaddr+0x134> (3ff48000 <RTCCNTL>)
400d256e:	40a5a2        	movi	a10, 0x540
400d2571:	0020c0        	memw
400d2574:	0898      	l32i.n	a9, a8, 0
400d2576:	2099a0        	or	a9, a9, a10
400d2579:	0020c0        	memw
400d257c:	0899      	s32i.n	a9, a8, 0
400d257e:	f6f691        	l32r	a9, 400d0158 <_image_irom_vaddr+0x138> (3ffb1dcc <s_cur_pll_freq>)
400d2581:	0a0c      	movi.n	a10, 0
400d2583:	09a9      	s32i.n	a10, a9, 0
400d2585:	f6f591        	l32r	a9, 400d015c <_image_irom_vaddr+0x13c> (3ff48030 <RTCCNTL+0x30>)
400d2588:	0020c0        	memw
400d258b:	0998      	l32i.n	a9, a9, 0
400d258d:	117977        	bbci	a9, 23, 400d25a2 <rtc_clk_bbpll_disable+0x3a>
400d2590:	0020c0        	memw
400d2593:	0898      	l32i.n	a9, a8, 0
400d2595:	1a0c      	movi.n	a10, 1
400d2597:	01aae0        	slli	a10, a10, 18
400d259a:	2099a0        	or	a9, a9, a10
400d259d:	0020c0        	memw
400d25a0:	0899      	s32i.n	a9, a8, 0
400d25a2:	f01d      	retw.n

400d25a4 <rtc_clk_32k_enable_common$constprop$0>:
400d25a4:	004136        	entry	a1, 32
400d25a7:	f6ee81        	l32r	a8, 400d0160 <_image_irom_vaddr+0x140> (3ff4848c <RTCIO+0x8c>)
400d25aa:	f6eea1        	l32r	a10, 400d0164 <_image_irom_vaddr+0x144> (e73ff7df <_rtc_bss_end+0x973ff7df>)
400d25ad:	0020c0        	memw
400d25b0:	0898      	l32i.n	a9, a8, 0
400d25b2:	0122c0        	slli	a2, a2, 20
400d25b5:	1099a0        	and	a9, a9, a10
400d25b8:	0020c0        	memw
400d25bb:	0899      	s32i.n	a9, a8, 0
400d25bd:	0020c0        	memw
400d25c0:	0898      	l32i.n	a9, a8, 0
400d25c2:	3a0c      	movi.n	a10, 3
400d25c4:	01aaf0        	slli	a10, a10, 17
400d25c7:	2099a0        	or	a9, a9, a10
400d25ca:	0020c0        	memw
400d25cd:	0899      	s32i.n	a9, a8, 0
400d25cf:	0020c0        	memw
400d25d2:	0898      	l32i.n	a9, a8, 0
400d25d4:	f6e5a1        	l32r	a10, 400d0168 <_image_irom_vaddr+0x148> (ffcfffff <_rtc_bss_end+0xafcfffff>)
400d25d7:	333a      	add.n	a3, a3, a3
400d25d9:	1099a0        	and	a9, a9, a10
400d25dc:	209920        	or	a9, a9, a2
400d25df:	0020c0        	memw
400d25e2:	0899      	s32i.n	a9, a8, 0
400d25e4:	0020c0        	memw
400d25e7:	0898      	l32i.n	a9, a8, 0
400d25e9:	8a1c      	movi.n	a10, 24
400d25eb:	2099a0        	or	a9, a9, a10
400d25ee:	0020c0        	memw
400d25f1:	0899      	s32i.n	a9, a8, 0
400d25f3:	0020c0        	memw
400d25f6:	0898      	l32i.n	a9, a8, 0
400d25f8:	9a7c      	movi.n	a10, -7
400d25fa:	1099a0        	and	a9, a9, a10
400d25fd:	209930        	or	a9, a9, a3
400d2600:	0020c0        	memw
400d2603:	0899      	s32i.n	a9, a8, 0
400d2605:	0020c0        	memw
400d2608:	0898      	l32i.n	a9, a8, 0
400d260a:	1a0c      	movi.n	a10, 1
400d260c:	01aad0        	slli	a10, a10, 19
400d260f:	2099a0        	or	a9, a9, a10
400d2612:	0020c0        	memw
400d2615:	0899      	s32i.n	a9, a8, 0
400d2617:	f01d      	retw.n
400d2619:	000000        	ill

400d261c <rtc_clk_32k_enable>:
400d261c:	004136        	entry	a1, 32
400d261f:	742020        	extui	a2, a2, 0, 8
400d2622:	a28c      	beqz.n	a2, 400d2630 <rtc_clk_32k_enable+0x14>
400d2624:	0b0c      	movi.n	a11, 0
400d2626:	01a0a2        	movi	a10, 1
400d2629:	fff7a5        	call8	400d25a4 <rtc_clk_32k_enable_common$constprop$0>
400d262c:	0008c6        	j	400d2653 <rtc_clk_32k_enable+0x37>
400d262f:	00          	.byte 00
400d2630:	f6cc81        	l32r	a8, 400d0160 <_image_irom_vaddr+0x140> (3ff4848c <RTCIO+0x8c>)
400d2633:	f6cea1        	l32r	a10, 400d016c <_image_irom_vaddr+0x14c> (fff7ffff <_rtc_bss_end+0xaff7ffff>)
400d2636:	0020c0        	memw
400d2639:	0898      	l32i.n	a9, a8, 0
400d263b:	1099a0        	and	a9, a9, a10
400d263e:	0020c0        	memw
400d2641:	0899      	s32i.n	a9, a8, 0
400d2643:	0020c0        	memw
400d2646:	0898      	l32i.n	a9, a8, 0
400d2648:	f6caa1        	l32r	a10, 400d0170 <_image_irom_vaddr+0x150> (fff9ffff <_rtc_bss_end+0xaff9ffff>)
400d264b:	1099a0        	and	a9, a9, a10
400d264e:	0020c0        	memw
400d2651:	0899      	s32i.n	a9, a8, 0
400d2653:	f01d      	retw.n
400d2655:	000000        	ill

400d2658 <rtc_clk_8m_enable>:
400d2658:	004136        	entry	a1, 32
400d265b:	f6ba81        	l32r	a8, 400d0144 <_image_irom_vaddr+0x124> (3ff48070 <RTCCNTL+0x70>)
400d265e:	742020        	extui	a2, a2, 0, 8
400d2661:	0020c0        	memw
400d2664:	0898      	l32i.n	a9, a8, 0
400d2666:	f6c3a1        	l32r	a10, 400d0174 <_image_irom_vaddr+0x154> (3ff4801c <RTCCNTL+0x1c>)
400d2669:	743030        	extui	a3, a3, 0, 8
400d266c:	047216        	beqz	a2, 400d26b7 <rtc_clk_8m_enable+0x5f>
400d266f:	bfafb2        	movi	a11, -65
400d2672:	1099b0        	and	a9, a9, a11
400d2675:	0020c0        	memw
400d2678:	0899      	s32i.n	a9, a8, 0
400d267a:	0020c0        	memw
400d267d:	0a98      	l32i.n	a9, a10, 0
400d267f:	f6beb1        	l32r	a11, 400d0178 <_image_irom_vaddr+0x158> (ffffc03f <_rtc_bss_end+0xafffc03f>)
400d2682:	1099b0        	and	a9, a9, a11
400d2685:	0b4c      	movi.n	a11, 64
400d2687:	2099b0        	or	a9, a9, a11
400d268a:	0020c0        	memw
400d268d:	0a99      	s32i.n	a9, a10, 0
400d268f:	0020c0        	memw
400d2692:	0898      	l32i.n	a9, a8, 0
400d2694:	938c      	beqz.n	a3, 400d26a1 <rtc_clk_8m_enable+0x49>
400d2696:	7fafa2        	movi	a10, -129
400d2699:	1099a0        	and	a9, a9, a10
400d269c:	0001c6        	j	400d26a7 <rtc_clk_8m_enable+0x4f>
400d269f:	00          	.byte 00
400d26a0:	00          	.byte 00
400d26a1:	80a0a2        	movi	a10, 128
400d26a4:	2099a0        	or	a9, a9, a10
400d26a7:	0020c0        	memw
400d26aa:	0899      	s32i.n	a9, a8, 0
400d26ac:	2a3c      	movi.n	a10, 50
400d26ae:	f6b381        	l32r	a8, 400d017c <_image_irom_vaddr+0x15c> (40008534 <esp_rom_delay_us>)
400d26b1:	0008e0        	callx8	a8
400d26b4:	0007c6        	j	400d26d7 <rtc_clk_8m_enable+0x7f>
400d26b7:	0b4c      	movi.n	a11, 64
400d26b9:	2099b0        	or	a9, a9, a11
400d26bc:	0020c0        	memw
400d26bf:	0899      	s32i.n	a9, a8, 0
400d26c1:	0020c0        	memw
400d26c4:	0a88      	l32i.n	a8, a10, 0
400d26c6:	f6ac91        	l32r	a9, 400d0178 <_image_irom_vaddr+0x158> (ffffc03f <_rtc_bss_end+0xafffc03f>)
400d26c9:	108890        	and	a8, a8, a9
400d26cc:	00a592        	movi	a9, 0x500
400d26cf:	208890        	or	a8, a8, a9
400d26d2:	0020c0        	memw
400d26d5:	0a89      	s32i.n	a8, a10, 0
400d26d7:	f01d      	retw.n
400d26d9:	000000        	ill

400d26dc <rtc_clk_8m_enabled>:
400d26dc:	004136        	entry	a1, 32
400d26df:	f69921        	l32r	a2, 400d0144 <_image_irom_vaddr+0x124> (3ff48070 <RTCCNTL+0x70>)
400d26e2:	0020c0        	memw
400d26e5:	0288      	l32i.n	a8, a2, 0
400d26e7:	120c      	movi.n	a2, 1
400d26e9:	048680        	extui	a8, a8, 6, 1
400d26ec:	302820        	xor	a2, a8, a2
400d26ef:	f01d      	retw.n
400d26f1:	000000        	ill

400d26f4 <rtc_clk_8md256_enabled>:
400d26f4:	004136        	entry	a1, 32
400d26f7:	f69321        	l32r	a2, 400d0144 <_image_irom_vaddr+0x124> (3ff48070 <RTCCNTL+0x70>)
400d26fa:	0020c0        	memw
400d26fd:	0288      	l32i.n	a8, a2, 0
400d26ff:	120c      	movi.n	a2, 1
400d2701:	048780        	extui	a8, a8, 7, 1
400d2704:	302820        	xor	a2, a8, a2
400d2707:	f01d      	retw.n
400d2709:	000000        	ill

400d270c <rtc_clk_slow_freq_set>:
400d270c:	004136        	entry	a1, 32
400d270f:	f68d91        	l32r	a9, 400d0144 <_image_irom_vaddr+0x124> (3ff48070 <RTCCNTL+0x70>)
400d2712:	f69ba1        	l32r	a10, 400d0180 <_image_irom_vaddr+0x160> (3fffffff <dram0_seg_1_heap+0x195cf>)
400d2715:	0020c0        	memw
400d2718:	0988      	l32i.n	a8, a9, 0
400d271a:	0b0c      	movi.n	a11, 0
400d271c:	1088a0        	and	a8, a8, a10
400d271f:	01a220        	slli	a10, a2, 30
400d2722:	2088a0        	or	a8, a8, a10
400d2725:	0020c0        	memw
400d2728:	0989      	s32i.n	a8, a9, 0
400d272a:	0020c0        	memw
400d272d:	09a8      	l32i.n	a10, a9, 0
400d272f:	220b      	addi.n	a2, a2, -1
400d2731:	180c      	movi.n	a8, 1
400d2733:	938b20        	movnez	a8, a11, a2
400d2736:	ffae22        	movi	a2, 0xfffffeff
400d2739:	10aa20        	and	a10, a10, a2
400d273c:	118880        	slli	a8, a8, 8
400d273f:	2088a0        	or	a8, a8, a10
400d2742:	0020c0        	memw
400d2745:	0989      	s32i.n	a8, a9, 0
400d2747:	2ca1a2        	movi	a10, 0x12c
400d274a:	f68c81        	l32r	a8, 400d017c <_image_irom_vaddr+0x15c> (40008534 <esp_rom_delay_us>)
400d274d:	0008e0        	callx8	a8
400d2750:	f01d      	retw.n
	...

400d2754 <rtc_clk_slow_freq_get>:
400d2754:	004136        	entry	a1, 32
400d2757:	f67b21        	l32r	a2, 400d0144 <_image_irom_vaddr+0x124> (3ff48070 <RTCCNTL+0x70>)
400d275a:	0020c0        	memw
400d275d:	0228      	l32i.n	a2, a2, 0
400d275f:	152e20        	extui	a2, a2, 30, 2
400d2762:	f01d      	retw.n

400d2764 <rtc_clk_fast_freq_set>:
400d2764:	004136        	entry	a1, 32
400d2767:	f677a1        	l32r	a10, 400d0144 <_image_irom_vaddr+0x124> (3ff48070 <RTCCNTL+0x70>)
400d276a:	190c      	movi.n	a9, 1
400d276c:	019930        	slli	a9, a9, 29
400d276f:	012230        	slli	a2, a2, 29
400d2772:	0020c0        	memw
400d2775:	0a88      	l32i.n	a8, a10, 0
400d2777:	102290        	and	a2, a2, a9
400d277a:	f68291        	l32r	a9, 400d0184 <_image_irom_vaddr+0x164> (dfffffff <_rtc_bss_end+0x8fffffff>)
400d277d:	108890        	and	a8, a8, a9
400d2780:	202280        	or	a2, a2, a8
400d2783:	0020c0        	memw
400d2786:	0a29      	s32i.n	a2, a10, 0
400d2788:	3a0c      	movi.n	a10, 3
400d278a:	f67c81        	l32r	a8, 400d017c <_image_irom_vaddr+0x15c> (40008534 <esp_rom_delay_us>)
400d278d:	0008e0        	callx8	a8
400d2790:	f01d      	retw.n
	...

400d2794 <rtc_clk_fast_freq_get>:
400d2794:	004136        	entry	a1, 32
400d2797:	f66b21        	l32r	a2, 400d0144 <_image_irom_vaddr+0x124> (3ff48070 <RTCCNTL+0x70>)
400d279a:	0020c0        	memw
400d279d:	0228      	l32i.n	a2, a2, 0
400d279f:	052d20        	extui	a2, a2, 29, 1
400d27a2:	f01d      	retw.n

400d27a4 <rtc_clk_bbpll_configure>:
400d27a4:	006136        	entry	a1, 48
400d27a7:	0139      	s32i.n	a3, a1, 0
400d27a9:	40a162        	movi	a6, 0x140
400d27ac:	f66451        	l32r	a5, 400d013c <_image_irom_vaddr+0x11c> (3ff4807c <RTCCNTL+0x7c>)
400d27af:	f65f41        	l32r	a4, 400d012c <_image_irom_vaddr+0x10c> (3ff5a014 <SENS+0x11814>)
400d27b2:	e8c222        	addi	a2, a2, -24
400d27b5:	7f9367        	bne	a3, a6, 400d2838 <rtc_clk_bbpll_configure+0x94>
400d27b8:	0020c0        	memw
400d27bb:	0568      	l32i.n	a6, a5, 0
400d27bd:	0020c0        	memw
400d27c0:	0478      	l32i.n	a7, a4, 0
400d27c2:	740c      	movi.n	a4, 7
400d27c4:	157670        	extui	a7, a7, 22, 2
400d27c7:	c04470        	sub	a4, a4, a7
400d27ca:	f65d71        	l32r	a7, 400d0140 <_image_irom_vaddr+0x120> (ffffc7ff <_rtc_bss_end+0xafffc7ff>)
400d27cd:	114450        	slli	a4, a4, 11
400d27d0:	106670        	and	a6, a6, a7
400d27d3:	204460        	or	a4, a4, a6
400d27d6:	0020c0        	memw
400d27d9:	0549      	s32i.n	a4, a5, 0
400d27db:	041c      	movi.n	a4, 16
400d27dd:	333427        	bltu	a4, a2, 400d2814 <rtc_clk_bbpll_configure+0x70>
400d27e0:	f66a41        	l32r	a4, 400d0188 <_image_irom_vaddr+0x168> (3f400e68 <CSWTCH$47>)
400d27e3:	f66b51        	l32r	a5, 400d0190 <_image_irom_vaddr+0x170> (3f400e46 <CSWTCH$49>)
400d27e6:	442a      	add.n	a4, a4, a2
400d27e8:	552a      	add.n	a5, a5, a2
400d27ea:	000462        	l8ui	a6, a4, 0
400d27ed:	000572        	l8ui	a7, a5, 0
400d27f0:	f66741        	l32r	a4, 400d018c <_image_irom_vaddr+0x16c> (3f400e57 <CSWTCH$48>)
400d27f3:	f66851        	l32r	a5, 400d0194 <_image_irom_vaddr+0x174> (3f400e35 <CSWTCH$50>)
400d27f6:	f66881        	l32r	a8, 400d0198 <_image_irom_vaddr+0x178> (3f400e24 <CSWTCH$51>)
400d27f9:	f66891        	l32r	a9, 400d019c <_image_irom_vaddr+0x17c> (3f400e13 <CSWTCH$52>)
400d27fc:	442a      	add.n	a4, a4, a2
400d27fe:	552a      	add.n	a5, a5, a2
400d2800:	882a      	add.n	a8, a8, a2
400d2802:	992a      	add.n	a9, a9, a2
400d2804:	000442        	l8ui	a4, a4, 0
400d2807:	000552        	l8ui	a5, a5, 0
400d280a:	000832        	l8ui	a3, a8, 0
400d280d:	000922        	l8ui	a2, a9, 0
400d2810:	000406        	j	400d2824 <rtc_clk_bbpll_configure+0x80>
400d2813:	00          	.byte 00
400d2814:	00a022        	movi	a2, 0
400d2817:	203220        	or	a3, a2, a2
400d281a:	205220        	or	a5, a2, a2
400d281d:	470c      	movi.n	a7, 4
400d281f:	e0a042        	movi	a4, 224
400d2822:	c60c      	movi.n	a6, 12
400d2824:	3d4c      	movi.n	a13, 67
400d2826:	bc0c      	movi.n	a12, 11
400d2828:	4b0c      	movi.n	a11, 4
400d282a:	66a0a2        	movi	a10, 102
400d282d:	ade3e5        	call8	4008066c <regi2c_ctrl_write_reg>
400d2830:	84a0d2        	movi	a13, 132
400d2833:	002086        	j	400d28b9 <rtc_clk_bbpll_configure+0x115>
400d2836:	00          	.byte 00
400d2837:	00          	.byte 00
400d2838:	0020c0        	memw
400d283b:	0568      	l32i.n	a6, a5, 0
400d283d:	0020c0        	memw
400d2840:	0478      	l32i.n	a7, a4, 0
400d2842:	740c      	movi.n	a4, 7
400d2844:	157670        	extui	a7, a7, 22, 2
400d2847:	c04470        	sub	a4, a4, a7
400d284a:	f63d71        	l32r	a7, 400d0140 <_image_irom_vaddr+0x120> (ffffc7ff <_rtc_bss_end+0xafffc7ff>)
400d284d:	114450        	slli	a4, a4, 11
400d2850:	106670        	and	a6, a6, a7
400d2853:	204460        	or	a4, a4, a6
400d2856:	0020c0        	memw
400d2859:	0549      	s32i.n	a4, a5, 0
400d285b:	3a0c      	movi.n	a10, 3
400d285d:	041c      	movi.n	a4, 16
400d285f:	f64781        	l32r	a8, 400d017c <_image_irom_vaddr+0x15c> (40008534 <esp_rom_delay_us>)
400d2862:	0008e0        	callx8	a8
400d2865:	333427        	bltu	a4, a2, 400d289c <rtc_clk_bbpll_configure+0xf8>
400d2868:	f64841        	l32r	a4, 400d0188 <_image_irom_vaddr+0x168> (3f400e68 <CSWTCH$47>)
400d286b:	f64951        	l32r	a5, 400d0190 <_image_irom_vaddr+0x170> (3f400e46 <CSWTCH$49>)
400d286e:	442a      	add.n	a4, a4, a2
400d2870:	552a      	add.n	a5, a5, a2
400d2872:	000462        	l8ui	a6, a4, 0
400d2875:	000572        	l8ui	a7, a5, 0
400d2878:	f64a41        	l32r	a4, 400d01a0 <_image_irom_vaddr+0x180> (3f400e02 <CSWTCH$54>)
400d287b:	f64651        	l32r	a5, 400d0194 <_image_irom_vaddr+0x174> (3f400e35 <CSWTCH$50>)
400d287e:	f64681        	l32r	a8, 400d0198 <_image_irom_vaddr+0x178> (3f400e24 <CSWTCH$51>)
400d2881:	f64691        	l32r	a9, 400d019c <_image_irom_vaddr+0x17c> (3f400e13 <CSWTCH$52>)
400d2884:	442a      	add.n	a4, a4, a2
400d2886:	552a      	add.n	a5, a5, a2
400d2888:	882a      	add.n	a8, a8, a2
400d288a:	992a      	add.n	a9, a9, a2
400d288c:	000442        	l8ui	a4, a4, 0
400d288f:	000552        	l8ui	a5, a5, 0
400d2892:	000832        	l8ui	a3, a8, 0
400d2895:	000922        	l8ui	a2, a9, 0
400d2898:	000346        	j	400d28a9 <rtc_clk_bbpll_configure+0x105>
400d289b:	00          	.byte 00
400d289c:	020c      	movi.n	a2, 0
400d289e:	023d      	mov.n	a3, a2
400d28a0:	025d      	mov.n	a5, a2
400d28a2:	470c      	movi.n	a7, 4
400d28a4:	e0a042        	movi	a4, 224
400d28a7:	c60c      	movi.n	a6, 12
400d28a9:	c3a0d2        	movi	a13, 195
400d28ac:	bc0c      	movi.n	a12, 11
400d28ae:	4b0c      	movi.n	a11, 4
400d28b0:	66a0a2        	movi	a10, 102
400d28b3:	addba5        	call8	4008066c <regi2c_ctrl_write_reg>
400d28b6:	74a0d2        	movi	a13, 116
400d28b9:	9c0c      	movi.n	a12, 9
400d28bb:	04a0b2        	movi	a11, 4
400d28be:	66a0a2        	movi	a10, 102
400d28c1:	115590        	slli	a5, a5, 7
400d28c4:	1177c0        	slli	a7, a7, 4
400d28c7:	adda65        	call8	4008066c <regi2c_ctrl_write_reg>
400d28ca:	205570        	or	a5, a5, a7
400d28cd:	20d650        	or	a13, a6, a5
400d28d0:	74d0d0        	extui	a13, a13, 0, 8
400d28d3:	2c0c      	movi.n	a12, 2
400d28d5:	04a0b2        	movi	a11, 4
400d28d8:	66a0a2        	movi	a10, 102
400d28db:	add925        	call8	4008066c <regi2c_ctrl_write_reg>
400d28de:	1122a0        	slli	a2, a2, 6
400d28e1:	04dd      	mov.n	a13, a4
400d28e3:	202320        	or	a2, a3, a2
400d28e6:	3c0c      	movi.n	a12, 3
400d28e8:	4b0c      	movi.n	a11, 4
400d28ea:	66a0a2        	movi	a10, 102
400d28ed:	add7e5        	call8	4008066c <regi2c_ctrl_write_reg>
400d28f0:	742020        	extui	a2, a2, 0, 8
400d28f3:	02dd      	mov.n	a13, a2
400d28f5:	5c0c      	movi.n	a12, 5
400d28f7:	04a0b2        	movi	a11, 4
400d28fa:	66a0a2        	movi	a10, 102
400d28fd:	add6e5        	call8	4008066c <regi2c_ctrl_write_reg>
400d2900:	f61121        	l32r	a2, 400d0144 <_image_irom_vaddr+0x124> (3ff48070 <RTCCNTL+0x70>)
400d2903:	a0a0a2        	movi	a10, 160
400d2906:	0020c0        	memw
400d2909:	0228      	l32i.n	a2, a2, 0
400d290b:	045c      	movi.n	a4, 80
400d290d:	152e20        	extui	a2, a2, 30, 2
400d2910:	83a420        	moveqz	a10, a4, a2
400d2913:	f61a81        	l32r	a8, 400d017c <_image_irom_vaddr+0x15c> (40008534 <esp_rom_delay_us>)
400d2916:	0008e0        	callx8	a8
400d2919:	f60f21        	l32r	a2, 400d0158 <_image_irom_vaddr+0x138> (3ffb1dcc <s_cur_pll_freq>)
400d291c:	0138      	l32i.n	a3, a1, 0
400d291e:	0239      	s32i.n	a3, a2, 0
400d2920:	f01d      	retw.n
	...

400d2924 <rtc_clk_xtal_freq_get>:
400d2924:	004136        	entry	a1, 32
400d2927:	f61f21        	l32r	a2, 400d01a4 <_image_irom_vaddr+0x184> (3ff480b0 <RTCCNTL+0xb0>)
400d292a:	0020c0        	memw
400d292d:	0288      	l32i.n	a8, a2, 0
400d292f:	020c      	movi.n	a2, 0
400d2931:	f4a080        	extui	a10, a8, 0, 16
400d2934:	f59080        	extui	a9, a8, 16, 16
400d2937:	0d9a97        	bne	a10, a9, 400d2948 <rtc_clk_xtal_freq_get+0x24>
400d293a:	980b      	addi.n	a9, a8, -1
400d293c:	fdafa2        	movi	a10, -3
400d293f:	053a97        	bltu	a10, a9, 400d2948 <rtc_clk_xtal_freq_get+0x24>
400d2942:	f61921        	l32r	a2, 400d01a8 <_image_irom_vaddr+0x188> (fffe <CONFIG_ESP_HEAP_MEM_POOL_REGION_1_SIZE+0x3ffe>)
400d2945:	102820        	and	a2, a8, a2
400d2948:	f01d      	retw.n
	...

400d294c <rtc_clk_cpu_freq_mhz_to_config>:
400d294c:	004136        	entry	a1, 32
400d294f:	024d      	mov.n	a4, a2
400d2951:	fffd25        	call8	400d2924 <rtc_clk_xtal_freq_get>
400d2954:	143a27        	bltu	a10, a2, 400d296c <rtc_clk_cpu_freq_mhz_to_config+0x20>
400d2957:	c29a20        	quou	a9, a10, a2
400d295a:	418190        	srli	a8, a9, 1
400d295d:	88aa      	add.n	a8, a8, a10
400d295f:	c28890        	quou	a8, a8, a9
400d2962:	020c      	movi.n	a2, 0
400d2964:	389487        	bne	a4, a8, 400d29a0 <rtc_clk_cpu_freq_mhz_to_config+0x54>
400d2967:	028d      	mov.n	a8, a2
400d2969:	000a06        	j	400d2995 <rtc_clk_cpu_freq_mhz_to_config+0x49>
400d296c:	025c      	movi.n	a2, 80
400d296e:	171427        	beq	a4, a2, 400d2989 <rtc_clk_cpu_freq_mhz_to_config+0x3d>
400d2971:	a0a022        	movi	a2, 160
400d2974:	161427        	beq	a4, a2, 400d298e <rtc_clk_cpu_freq_mhz_to_config+0x42>
400d2977:	f0a082        	movi	a8, 240
400d297a:	020c      	movi.n	a2, 0
400d297c:	209487        	bne	a4, a8, 400d29a0 <rtc_clk_cpu_freq_mhz_to_config+0x54>
400d297f:	290c      	movi.n	a9, 2
400d2981:	180c      	movi.n	a8, 1
400d2983:	e0a1a2        	movi	a10, 0x1e0
400d2986:	0002c6        	j	400d2995 <rtc_clk_cpu_freq_mhz_to_config+0x49>
400d2989:	490c      	movi.n	a9, 4
400d298b:	000046        	j	400d2990 <rtc_clk_cpu_freq_mhz_to_config+0x44>
400d298e:	290c      	movi.n	a9, 2
400d2990:	180c      	movi.n	a8, 1
400d2992:	40a1a2        	movi	a10, 0x140
400d2995:	0389      	s32i.n	a8, a3, 0
400d2997:	13a9      	s32i.n	a10, a3, 4
400d2999:	2399      	s32i.n	a9, a3, 8
400d299b:	3349      	s32i.n	a4, a3, 12
400d299d:	01a022        	movi	a2, 1
400d29a0:	f01d      	retw.n
	...

400d29a4 <rtc_clk_cpu_freq_get_config>:
400d29a4:	004136        	entry	a1, 32
400d29a7:	f5e751        	l32r	a5, 400d0144 <_image_irom_vaddr+0x124> (3ff48070 <RTCCNTL+0x70>)
400d29aa:	0020c0        	memw
400d29ad:	002552        	l32i	a5, a5, 0
400d29b0:	155b50        	extui	a5, a5, 27, 2
400d29b3:	1e1526        	beqi	a5, 1, 400d29d5 <rtc_clk_cpu_freq_get_config+0x31>
400d29b6:	562526        	beqi	a5, 2, 400d2a10 <rtc_clk_cpu_freq_get_config+0x6c>
400d29b9:	033556        	bnez	a5, 400d29f0 <rtc_clk_cpu_freq_get_config+0x4c>
400d29bc:	f5fc31        	l32r	a3, 400d01ac <_image_irom_vaddr+0x18c> (3ff66000 <SYSCON>)
400d29bf:	0020c0        	memw
400d29c2:	002332        	l32i	a3, a3, 0
400d29c5:	fff5e5        	call8	400d2924 <rtc_clk_xtal_freq_get>
400d29c8:	943030        	extui	a3, a3, 0, 10
400d29cb:	331b      	addi.n	a3, a3, 1
400d29cd:	0a6d      	mov.n	a6, a10
400d29cf:	c24a30        	quou	a4, a10, a3
400d29d2:	001486        	j	400d2a28 <rtc_clk_cpu_freq_get_config+0x84>
400d29d5:	f5d831        	l32r	a3, 400d0138 <_image_irom_vaddr+0x118> (3ff0003c <__device_handles_end+0xafeb7c>)
400d29d8:	0020c0        	memw
400d29db:	002332        	l32i	a3, a3, 0
400d29de:	143030        	extui	a3, a3, 0, 2
400d29e1:	034316        	beqz	a3, 400d2a19 <rtc_clk_cpu_freq_get_config+0x75>
400d29e4:	381326        	beqi	a3, 1, 400d2a20 <rtc_clk_cpu_freq_get_config+0x7c>
400d29e7:	f0a042        	movi	a4, 240
400d29ea:	e0a162        	movi	a6, 0x1e0
400d29ed:	372326        	beqi	a3, 2, 400d2a28 <rtc_clk_cpu_freq_get_config+0x84>
400d29f0:	f5c881        	l32r	a8, 400d0110 <_image_irom_vaddr+0xf0> (3ffb0008 <esp_log_default_level>)
400d29f3:	002882        	l32i	a8, a8, 0
400d29f6:	f88c      	beqz.n	a8, 400d2a09 <rtc_clk_cpu_freq_get_config+0x65>
400d29f8:	aff0e5        	call8	40082908 <esp_log_early_timestamp>
400d29fb:	0abd      	mov.n	a11, a10
400d29fd:	f5ccc1        	l32r	a12, 400d0130 <_image_irom_vaddr+0x110> (3f400dac <__FUNCTION__$8+0x6c>)
400d2a00:	f5eca1        	l32r	a10, 400d01b0 <_image_irom_vaddr+0x190> (3f400dd2 <__FUNCTION__$8+0x92>)
400d2a03:	f5c681        	l32r	a8, 400d011c <_image_irom_vaddr+0xfc> (40007d54 <esp_rom_printf>)
400d2a06:	0008e0        	callx8	a8
400d2a09:	00dfa5        	call8	400d3804 <abort>
400d2a0c:	000606        	j	400d2a28 <rtc_clk_cpu_freq_get_config+0x84>
400d2a0f:	00          	.byte 00
400d2a10:	840c      	movi.n	a4, 8
400d2a12:	130c      	movi.n	a3, 1
400d2a14:	046d      	mov.n	a6, a4
400d2a16:	000386        	j	400d2a28 <rtc_clk_cpu_freq_get_config+0x84>
400d2a19:	045c      	movi.n	a4, 80
400d2a1b:	430c      	movi.n	a3, 4
400d2a1d:	000106        	j	400d2a25 <rtc_clk_cpu_freq_get_config+0x81>
400d2a20:	a0a042        	movi	a4, 160
400d2a23:	230c      	movi.n	a3, 2
400d2a25:	40a162        	movi	a6, 0x140
400d2a28:	0259      	s32i.n	a5, a2, 0
400d2a2a:	1269      	s32i.n	a6, a2, 4
400d2a2c:	2239      	s32i.n	a3, a2, 8
400d2a2e:	3249      	s32i.n	a4, a2, 12
400d2a30:	f01d      	retw.n
	...

400d2a34 <rtc_clk_xtal_freq_update>:
400d2a34:	004136        	entry	a1, 32
400d2a37:	f5db91        	l32r	a9, 400d01a4 <_image_irom_vaddr+0x184> (3ff480b0 <RTCCNTL+0xb0>)
400d2a3a:	f5dea1        	l32r	a10, 400d01b4 <_image_irom_vaddr+0x194> (10001 <CONFIG_ESP_HEAP_MEM_POOL_REGION_1_SIZE+0x4001>)
400d2a3d:	0020c0        	memw
400d2a40:	0988      	l32i.n	a8, a9, 0
400d2a42:	1088a0        	and	a8, a8, a10
400d2a45:	0498a7        	bne	a8, a10, 400d2a4d <rtc_clk_xtal_freq_update+0x19>
400d2a48:	180c      	movi.n	a8, 1
400d2a4a:	202280        	or	a2, a2, a8
400d2a4d:	f48020        	extui	a8, a2, 0, 16
400d2a50:	112200        	slli	a2, a2, 16
400d2a53:	208820        	or	a8, a8, a2
400d2a56:	0020c0        	memw
400d2a59:	0989      	s32i.n	a8, a9, 0
400d2a5b:	f01d      	retw.n
400d2a5d:	000000        	ill

400d2a60 <rtc_clk_apb_freq_update>:
400d2a60:	004136        	entry	a1, 32
400d2a63:	418c20        	srli	a8, a2, 12
400d2a66:	118800        	slli	a8, a8, 16
400d2a69:	f42c20        	extui	a2, a2, 12, 16
400d2a6c:	202280        	or	a2, a2, a8
400d2a6f:	f5b781        	l32r	a8, 400d014c <_image_irom_vaddr+0x12c> (3ff480b4 <RTCCNTL+0xb4>)
400d2a72:	0020c0        	memw
400d2a75:	0829      	s32i.n	a2, a8, 0
400d2a77:	f01d      	retw.n
400d2a79:	000000        	ill

400d2a7c <rtc_clk_cpu_freq_to_xtal>:
400d2a7c:	004136        	entry	a1, 32
400d2a7f:	20a220        	or	a10, a2, a2
400d2a82:	adc125        	call8	40080694 <ets_update_cpu_frequency>
400d2a85:	f5c991        	l32r	a9, 400d01ac <_image_irom_vaddr+0x18c> (3ff66000 <SYSCON>)
400d2a88:	00aca2        	movi	a10, 0xfffffc00
400d2a8b:	0020c0        	memw
400d2a8e:	002982        	l32i	a8, a9, 0
400d2a91:	ffc332        	addi	a3, a3, -1
400d2a94:	1088a0        	and	a8, a8, a10
400d2a97:	943030        	extui	a3, a3, 0, 10
400d2a9a:	203380        	or	a3, a3, a8
400d2a9d:	0020c0        	memw
400d2aa0:	0939      	s32i.n	a3, a9, 0
400d2aa2:	f5c531        	l32r	a3, 400d01b8 <_image_irom_vaddr+0x198> (3ff66004 <SYSCON+0x4>)
400d2aa5:	820b      	addi.n	a8, a2, -1
400d2aa7:	0020c0        	memw
400d2aaa:	0389      	s32i.n	a8, a3, 0
400d2aac:	f5a681        	l32r	a8, 400d0144 <_image_irom_vaddr+0x124> (3ff48070 <RTCCNTL+0x70>)
400d2aaf:	f5a691        	l32r	a9, 400d0148 <_image_irom_vaddr+0x128> (e7ffffff <_rtc_bss_end+0x97ffffff>)
400d2ab2:	0020c0        	memw
400d2ab5:	0838      	l32i.n	a3, a8, 0
400d2ab7:	f5c1a1        	l32r	a10, 400d01bc <_image_irom_vaddr+0x19c> (f4240 <CONFIG_ESP_HEAP_MEM_POOL_REGION_1_SIZE+0xe8240>)
400d2aba:	103390        	and	a3, a3, a9
400d2abd:	82a2a0        	mull	a10, a2, a10
400d2ac0:	0020c0        	memw
400d2ac3:	0839      	s32i.n	a3, a8, 0
400d2ac5:	fff9a5        	call8	400d2a60 <rtc_clk_apb_freq_update>
400d2ac8:	f59d81        	l32r	a8, 400d013c <_image_irom_vaddr+0x11c> (3ff4807c <RTCCNTL+0x7c>)
400d2acb:	f59d91        	l32r	a9, 400d0140 <_image_irom_vaddr+0x120> (ffffc7ff <_rtc_bss_end+0xafffc7ff>)
400d2ace:	0020c0        	memw
400d2ad1:	0838      	l32i.n	a3, a8, 0
400d2ad3:	103390        	and	a3, a3, a9
400d2ad6:	0732e6        	bgei	a2, 3, 400d2ae1 <rtc_clk_cpu_freq_to_xtal+0x65>
400d2ad9:	120c      	movi.n	a2, 1
400d2adb:	112240        	slli	a2, a2, 12
400d2ade:	000106        	j	400d2ae6 <rtc_clk_cpu_freq_to_xtal+0x6a>
400d2ae1:	120c      	movi.n	a2, 1
400d2ae3:	112230        	slli	a2, a2, 13
400d2ae6:	203320        	or	a3, a3, a2
400d2ae9:	0020c0        	memw
400d2aec:	0839      	s32i.n	a3, a8, 0
400d2aee:	f01d      	retw.n

400d2af0 <rtc_clk_cpu_freq_set_config>:
400d2af0:	004136        	entry	a1, 32
400d2af3:	ffe325        	call8	400d2924 <rtc_clk_xtal_freq_get>
400d2af6:	f59331        	l32r	a3, 400d0144 <_image_irom_vaddr+0x124> (3ff48070 <RTCCNTL+0x70>)
400d2af9:	0020c0        	memw
400d2afc:	002332        	l32i	a3, a3, 0
400d2aff:	153b30        	extui	a3, a3, 27, 2
400d2b02:	00e316        	beqz	a3, 400d2b14 <rtc_clk_cpu_freq_set_config+0x24>
400d2b05:	01a0b2        	movi	a11, 1
400d2b08:	fff725        	call8	400d2a7c <rtc_clk_cpu_freq_to_xtal>
400d2b0b:	0069e5        	call8	400d31a8 <rtc_clk_wait_for_slow_cycle>
400d2b0e:	021366        	bnei	a3, 1, 400d2b14 <rtc_clk_cpu_freq_set_config+0x24>
400d2b11:	ffa565        	call8	400d2568 <rtc_clk_bbpll_disable>
400d2b14:	002232        	l32i	a3, a2, 0
400d2b17:	012356        	bnez	a3, 400d2b2d <rtc_clk_cpu_freq_set_config+0x3d>
400d2b1a:	0222b2        	l32i	a11, a2, 8
400d2b1d:	022bf6        	bgeui	a11, 2, 400d2b23 <rtc_clk_cpu_freq_set_config+0x33>
400d2b20:	003506        	j	400d2bf8 <rtc_clk_cpu_freq_set_config+0x108>
400d2b23:	32a8      	l32i.n	a10, a2, 12
400d2b25:	fff565        	call8	400d2a7c <rtc_clk_cpu_freq_to_xtal>
400d2b28:	003306        	j	400d2bf8 <rtc_clk_cpu_freq_set_config+0x108>
400d2b2b:	00          	.byte 00
400d2b2c:	00          	.byte 00
400d2b2d:	021326        	beqi	a3, 1, 400d2b33 <rtc_clk_cpu_freq_set_config+0x43>
400d2b30:	001946        	j	400d2b99 <rtc_clk_cpu_freq_set_config+0xa9>
400d2b33:	f58891        	l32r	a9, 400d0154 <_image_irom_vaddr+0x134> (3ff48000 <RTCCNTL>)
400d2b36:	f5a2a1        	l32r	a10, 400d01c0 <_image_irom_vaddr+0x1a0> (fffbfabf <_rtc_bss_end+0xaffbfabf>)
400d2b39:	0020c0        	memw
400d2b3c:	0988      	l32i.n	a8, a9, 0
400d2b3e:	8d1c      	movi.n	a13, 24
400d2b40:	1088a0        	and	a8, a8, a10
400d2b43:	0020c0        	memw
400d2b46:	0989      	s32i.n	a8, a9, 0
400d2b48:	0c0c      	movi.n	a12, 0
400d2b4a:	4b0c      	movi.n	a11, 4
400d2b4c:	66a0a2        	movi	a10, 102
400d2b4f:	adb1e5        	call8	4008066c <regi2c_ctrl_write_reg>
400d2b52:	03cd      	mov.n	a12, a3
400d2b54:	0d2c      	movi.n	a13, 32
400d2b56:	4b0c      	movi.n	a11, 4
400d2b58:	66a0a2        	movi	a10, 102
400d2b5b:	adb125        	call8	4008066c <regi2c_ctrl_write_reg>
400d2b5e:	4c0c      	movi.n	a12, 4
400d2b60:	20bcc0        	or	a11, a12, a12
400d2b63:	9aa0d2        	movi	a13, 154
400d2b66:	66a0a2        	movi	a10, 102
400d2b69:	adb025        	call8	4008066c <regi2c_ctrl_write_reg>
400d2b6c:	0d0c      	movi.n	a13, 0
400d2b6e:	ac0c      	movi.n	a12, 10
400d2b70:	4b0c      	movi.n	a11, 4
400d2b72:	66a0a2        	movi	a10, 102
400d2b75:	adaf65        	call8	4008066c <regi2c_ctrl_write_reg>
400d2b78:	0d0c      	movi.n	a13, 0
400d2b7a:	cc0c      	movi.n	a12, 12
400d2b7c:	4b0c      	movi.n	a11, 4
400d2b7e:	66a0a2        	movi	a10, 102
400d2b81:	adaea5        	call8	4008066c <regi2c_ctrl_write_reg>
400d2b84:	006225        	call8	400d31a8 <rtc_clk_wait_for_slow_cycle>
400d2b87:	ffd9e5        	call8	400d2924 <rtc_clk_xtal_freq_get>
400d2b8a:	12b8      	l32i.n	a11, a2, 4
400d2b8c:	ffc165        	call8	400d27a4 <rtc_clk_bbpll_configure>
400d2b8f:	32a8      	l32i.n	a10, a2, 12
400d2b91:	ff92a5        	call8	400d24bc <rtc_clk_cpu_freq_to_pll_mhz>
400d2b94:	001806        	j	400d2bf8 <rtc_clk_cpu_freq_set_config+0x108>
400d2b97:	00          	.byte 00
400d2b98:	00          	.byte 00
400d2b99:	5b2366        	bnei	a3, 2, 400d2bf8 <rtc_clk_cpu_freq_set_config+0x108>
400d2b9c:	08a0a2        	movi	a10, 8
400d2b9f:	adaf65        	call8	40080694 <ets_update_cpu_frequency>
400d2ba2:	f56631        	l32r	a3, 400d013c <_image_irom_vaddr+0x11c> (3ff4807c <RTCCNTL+0x7c>)
400d2ba5:	f56621        	l32r	a2, 400d0140 <_image_irom_vaddr+0x120> (ffffc7ff <_rtc_bss_end+0xafffc7ff>)
400d2ba8:	0020c0        	memw
400d2bab:	002382        	l32i	a8, a3, 0
400d2bae:	108820        	and	a8, a8, a2
400d2bb1:	01a022        	movi	a2, 1
400d2bb4:	112230        	slli	a2, a2, 13
400d2bb7:	208820        	or	a8, a8, a2
400d2bba:	0020c0        	memw
400d2bbd:	0389      	s32i.n	a8, a3, 0
400d2bbf:	f57b31        	l32r	a3, 400d01ac <_image_irom_vaddr+0x18c> (3ff66000 <SYSCON>)
400d2bc2:	00ac82        	movi	a8, 0xfffffc00
400d2bc5:	0020c0        	memw
400d2bc8:	0328      	l32i.n	a2, a3, 0
400d2bca:	102280        	and	a2, a2, a8
400d2bcd:	0020c0        	memw
400d2bd0:	0329      	s32i.n	a2, a3, 0
400d2bd2:	f55c31        	l32r	a3, 400d0144 <_image_irom_vaddr+0x124> (3ff48070 <RTCCNTL+0x70>)
400d2bd5:	f55c21        	l32r	a2, 400d0148 <_image_irom_vaddr+0x128> (e7ffffff <_rtc_bss_end+0x97ffffff>)
400d2bd8:	0020c0        	memw
400d2bdb:	0388      	l32i.n	a8, a3, 0
400d2bdd:	108820        	and	a8, a8, a2
400d2be0:	120c      	movi.n	a2, 1
400d2be2:	012240        	slli	a2, a2, 28
400d2be5:	208820        	or	a8, a8, a2
400d2be8:	0020c0        	memw
400d2beb:	0389      	s32i.n	a8, a3, 0
400d2bed:	f55721        	l32r	a2, 400d014c <_image_irom_vaddr+0x12c> (3ff480b4 <RTCCNTL+0xb4>)
400d2bf0:	f57531        	l32r	a3, 400d01c4 <_image_irom_vaddr+0x1a4> (81b081b <CONFIG_FLASH_SIZE+0x7db081b>)
400d2bf3:	0020c0        	memw
400d2bf6:	0239      	s32i.n	a3, a2, 0
400d2bf8:	f01d      	retw.n
	...

400d2bfc <rtc_clk_apb_freq_get>:
400d2bfc:	004136        	entry	a1, 32
400d2bff:	f55321        	l32r	a2, 400d014c <_image_irom_vaddr+0x12c> (3ff480b4 <RTCCNTL+0xb4>)
400d2c02:	0020c0        	memw
400d2c05:	0288      	l32i.n	a8, a2, 0
400d2c07:	f57021        	l32r	a2, 400d01c8 <_image_irom_vaddr+0x1a8> (ffff000 <CONFIG_SYS_CLOCK_HW_CYCLES_PER_SEC+0x1b1d400>)
400d2c0a:	118840        	slli	a8, a8, 12
400d2c0d:	108820        	and	a8, a8, a2
400d2c10:	f56f21        	l32r	a2, 400d01cc <_image_irom_vaddr+0x1ac> (7a120 <CONFIG_ESP_HEAP_MEM_POOL_REGION_1_SIZE+0x6e120>)
400d2c13:	882a      	add.n	a8, a8, a2
400d2c15:	f56e21        	l32r	a2, 400d01d0 <_image_irom_vaddr+0x1b0> (431bde83 <_etext+0x30e928f>)
400d2c18:	a28820        	muluh	a8, a8, a2
400d2c1b:	f56821        	l32r	a2, 400d01bc <_image_irom_vaddr+0x19c> (f4240 <CONFIG_ESP_HEAP_MEM_POOL_REGION_1_SIZE+0xe8240>)
400d2c1e:	d58280        	extui	a8, a8, 18, 14
400d2c21:	822820        	mull	a2, a8, a2
400d2c24:	f01d      	retw.n
	...

400d2c28 <rtc_init>:
400d2c28:	004136        	entry	a1, 32
400d2c2b:	f54c91        	l32r	a9, 400d015c <_image_irom_vaddr+0x13c> (3ff48030 <RTCCNTL+0x30>)
400d2c2e:	f569a1        	l32r	a10, 400d01d4 <_image_irom_vaddr+0x1b4> (23ffffff <CONFIG_SYS_CLOCK_HW_CYCLES_PER_SEC+0x15b1e3ff>)
400d2c31:	0020c0        	memw
400d2c34:	0988      	l32i.n	a8, a9, 0
400d2c36:	f568b1        	l32r	a11, 400d01d8 <_image_irom_vaddr+0x1b8> (ffffff <CONFIG_FLASH_SIZE+0xbfffff>)
400d2c39:	1088a0        	and	a8, a8, a10
400d2c3c:	0020c0        	memw
400d2c3f:	0989      	s32i.n	a8, a9, 0
400d2c41:	f54c81        	l32r	a8, 400d0174 <_image_irom_vaddr+0x154> (3ff4801c <RTCCNTL+0x1c>)
400d2c44:	759020        	extui	a9, a2, 16, 8
400d2c47:	0020c0        	memw
400d2c4a:	08a8      	l32i.n	a10, a8, 0
400d2c4c:	019980        	slli	a9, a9, 24
400d2c4f:	10aab0        	and	a10, a10, a11
400d2c52:	2099a0        	or	a9, a9, a10
400d2c55:	0020c0        	memw
400d2c58:	0899      	s32i.n	a9, a8, 0
400d2c5a:	0020c0        	memw
400d2c5d:	08a8      	l32i.n	a10, a8, 0
400d2c5f:	f55fb1        	l32r	a11, 400d01dc <_image_irom_vaddr+0x1bc> (ff003fff <_rtc_bss_end+0xaf003fff>)
400d2c62:	749820        	extui	a9, a2, 8, 8
400d2c65:	10aab0        	and	a10, a10, a11
400d2c68:	119920        	slli	a9, a9, 14
400d2c6b:	2099a0        	or	a9, a9, a10
400d2c6e:	0020c0        	memw
400d2c71:	0899      	s32i.n	a9, a8, 0
400d2c73:	0020c0        	memw
400d2c76:	08a8      	l32i.n	a10, a8, 0
400d2c78:	f540b1        	l32r	a11, 400d0178 <_image_irom_vaddr+0x158> (ffffc03f <_rtc_bss_end+0xafffc03f>)
400d2c7b:	749020        	extui	a9, a2, 0, 8
400d2c7e:	10aab0        	and	a10, a10, a11
400d2c81:	1199a0        	slli	a9, a9, 6
400d2c84:	2099a0        	or	a9, a9, a10
400d2c87:	0020c0        	memw
400d2c8a:	0899      	s32i.n	a9, a8, 0
400d2c8c:	f55581        	l32r	a8, 400d01e0 <_image_irom_vaddr+0x1c0> (3ff48078 <RTCCNTL+0x78>)
400d2c8f:	3a0c      	movi.n	a10, 3
400d2c91:	0020c0        	memw
400d2c94:	0898      	l32i.n	a9, a8, 0
400d2c96:	01aa80        	slli	a10, a10, 24
400d2c99:	2099a0        	or	a9, a9, a10
400d2c9c:	0020c0        	memw
400d2c9f:	0899      	s32i.n	a9, a8, 0
400d2ca1:	0020c0        	memw
400d2ca4:	0898      	l32i.n	a9, a8, 0
400d2ca6:	3a0c      	movi.n	a10, 3
400d2ca8:	01aa30        	slli	a10, a10, 29
400d2cab:	2099a0        	or	a9, a9, a10
400d2cae:	f523a1        	l32r	a10, 400d013c <_image_irom_vaddr+0x11c> (3ff4807c <RTCCNTL+0x7c>)
400d2cb1:	0020c0        	memw
400d2cb4:	0899      	s32i.n	a9, a8, 0
400d2cb6:	0020c0        	memw
400d2cb9:	0a88      	l32i.n	a8, a10, 0
400d2cbb:	f54a91        	l32r	a9, 400d01e4 <_image_irom_vaddr+0x1c4> (f1ffffff <_rtc_bss_end+0xa1ffffff>)
400d2cbe:	108890        	and	a8, a8, a9
400d2cc1:	190c      	movi.n	a9, 1
400d2cc3:	019950        	slli	a9, a9, 27
400d2cc6:	208890        	or	a8, a8, a9
400d2cc9:	0020c0        	memw
400d2ccc:	0a89      	s32i.n	a8, a10, 0
400d2cce:	0020c0        	memw
400d2cd1:	0a88      	l32i.n	a8, a10, 0
400d2cd3:	f54591        	l32r	a9, 400d01e8 <_image_irom_vaddr+0x1c8> (fe3fffff <_rtc_bss_end+0xae3fffff>)
400d2cd6:	108890        	and	a8, a8, a9
400d2cd9:	190c      	movi.n	a9, 1
400d2cdb:	019980        	slli	a9, a9, 24
400d2cde:	208890        	or	a8, a8, a9
400d2ce1:	0020c0        	memw
400d2ce4:	0a89      	s32i.n	a8, a10, 0
400d2ce6:	028297        	bany	a2, a9, 400d2cec <rtc_init+0xc4>
400d2ce9:	0024c6        	j	400d2d80 <rtc_init+0x158>
400d2cec:	f54091        	l32r	a9, 400d01ec <_image_irom_vaddr+0x1cc> (3ff00044 <__device_handles_end+0xafeb84>)
400d2cef:	f540a1        	l32r	a10, 400d01f0 <_image_irom_vaddr+0x1d0> (fffff7ff <_rtc_bss_end+0xaffff7ff>)
400d2cf2:	0020c0        	memw
400d2cf5:	0988      	l32i.n	a8, a9, 0
400d2cf7:	ffaeb2        	movi	a11, 0xfffffeff
400d2cfa:	1088a0        	and	a8, a8, a10
400d2cfd:	0020c0        	memw
400d2d00:	0989      	s32i.n	a8, a9, 0
400d2d02:	f53c91        	l32r	a9, 400d01f4 <_image_irom_vaddr+0x1d4> (3ff0005c <__device_handles_end+0xafeb9c>)
400d2d05:	0020c0        	memw
400d2d08:	0988      	l32i.n	a8, a9, 0
400d2d0a:	1088a0        	and	a8, a8, a10
400d2d0d:	0020c0        	memw
400d2d10:	0989      	s32i.n	a8, a9, 0
400d2d12:	f53981        	l32r	a8, 400d01f8 <_image_irom_vaddr+0x1d8> (3ff00094 <__device_handles_end+0xafebd4>)
400d2d15:	03afa2        	movi	a10, -253
400d2d18:	0020c0        	memw
400d2d1b:	0898      	l32i.n	a9, a8, 0
400d2d1d:	1099a0        	and	a9, a9, a10
400d2d20:	0020c0        	memw
400d2d23:	0899      	s32i.n	a9, a8, 0
400d2d25:	0020c0        	memw
400d2d28:	0898      	l32i.n	a9, a8, 0
400d2d2a:	da7c      	movi.n	a10, -3
400d2d2c:	1099a0        	and	a9, a9, a10
400d2d2f:	0020c0        	memw
400d2d32:	0899      	s32i.n	a9, a8, 0
400d2d34:	0020c0        	memw
400d2d37:	0898      	l32i.n	a9, a8, 0
400d2d39:	ea7c      	movi.n	a10, -2
400d2d3b:	1099a0        	and	a9, a9, a10
400d2d3e:	0020c0        	memw
400d2d41:	0899      	s32i.n	a9, a8, 0
400d2d43:	f52e81        	l32r	a8, 400d01fc <_image_irom_vaddr+0x1dc> (3ff000a0 <__device_handles_end+0xafebe0>)
400d2d46:	0020c0        	memw
400d2d49:	0898      	l32i.n	a9, a8, 0
400d2d4b:	090c      	movi.n	a9, 0
400d2d4d:	0020c0        	memw
400d2d50:	0899      	s32i.n	a9, a8, 0
400d2d52:	f52b91        	l32r	a9, 400d0200 <_image_irom_vaddr+0x1e0> (3ff000a4 <__device_handles_end+0xafebe4>)
400d2d55:	0020c0        	memw
400d2d58:	0988      	l32i.n	a8, a9, 0
400d2d5a:	1088a0        	and	a8, a8, a10
400d2d5d:	0020c0        	memw
400d2d60:	0989      	s32i.n	a8, a9, 0
400d2d62:	f52881        	l32r	a8, 400d0204 <_image_irom_vaddr+0x1e4> (3ff000ac <__device_handles_end+0xafebec>)
400d2d65:	0020c0        	memw
400d2d68:	0898      	l32i.n	a9, a8, 0
400d2d6a:	1099b0        	and	a9, a9, a11
400d2d6d:	0020c0        	memw
400d2d70:	0899      	s32i.n	a9, a8, 0
400d2d72:	0020c0        	memw
400d2d75:	0898      	l32i.n	a9, a8, 0
400d2d77:	1099a0        	and	a9, a9, a10
400d2d7a:	0020c0        	memw
400d2d7d:	006892        	s32i	a9, a8, 0
400d2d80:	02f297        	bbsi	a2, 25, 400d2d86 <rtc_init+0x15e>
400d2d83:	007b46        	j	400d2f74 <rtc_init+0x34c>
400d2d86:	f4ef91        	l32r	a9, 400d0144 <_image_irom_vaddr+0x124> (3ff48070 <RTCCNTL+0x70>)
400d2d89:	f51fa1        	l32r	a10, 400d0208 <_image_irom_vaddr+0x1e8> (fbffffff <_rtc_bss_end+0xabffffff>)
400d2d8c:	0020c0        	memw
400d2d8f:	0988      	l32i.n	a8, a9, 0
400d2d91:	f521b1        	l32r	a11, 400d0218 <_image_irom_vaddr+0x1f8> (feffffff <_rtc_bss_end+0xaeffffff>)
400d2d94:	1088a0        	and	a8, a8, a10
400d2d97:	0020c0        	memw
400d2d9a:	0989      	s32i.n	a8, a9, 0
400d2d9c:	f4ee81        	l32r	a8, 400d0154 <_image_irom_vaddr+0x134> (3ff48000 <RTCCNTL>)
400d2d9f:	f51ba1        	l32r	a10, 400d020c <_image_irom_vaddr+0x1ec> (ffffdfff <_rtc_bss_end+0xafffdfff>)
400d2da2:	0020c0        	memw
400d2da5:	0898      	l32i.n	a9, a8, 0
400d2da7:	1099a0        	and	a9, a9, a10
400d2daa:	0020c0        	memw
400d2dad:	0899      	s32i.n	a9, a8, 0
400d2daf:	0020c0        	memw
400d2db2:	0898      	l32i.n	a9, a8, 0
400d2db4:	f517a1        	l32r	a10, 400d0210 <_image_irom_vaddr+0x1f0> (ffbfffff <_rtc_bss_end+0xafbfffff>)
400d2db7:	1099a0        	and	a9, a9, a10
400d2dba:	0020c0        	memw
400d2dbd:	0899      	s32i.n	a9, a8, 0
400d2dbf:	0020c0        	memw
400d2dc2:	0898      	l32i.n	a9, a8, 0
400d2dc4:	f4eaa1        	l32r	a10, 400d016c <_image_irom_vaddr+0x14c> (fff7ffff <_rtc_bss_end+0xaff7ffff>)
400d2dc7:	1099a0        	and	a9, a9, a10
400d2dca:	0020c0        	memw
400d2dcd:	0899      	s32i.n	a9, a8, 0
400d2dcf:	0020c0        	memw
400d2dd2:	0898      	l32i.n	a9, a8, 0
400d2dd4:	f510a1        	l32r	a10, 400d0214 <_image_irom_vaddr+0x1f4> (fffeffff <_rtc_bss_end+0xaffeffff>)
400d2dd7:	1099a0        	and	a9, a9, a10
400d2dda:	0020c0        	memw
400d2ddd:	0899      	s32i.n	a9, a8, 0
400d2ddf:	0020c0        	memw
400d2de2:	0898      	l32i.n	a9, a8, 0
400d2de4:	1a0c      	movi.n	a10, 1
400d2de6:	01aac0        	slli	a10, a10, 20
400d2de9:	2099a0        	or	a9, a9, a10
400d2dec:	0020c0        	memw
400d2def:	0899      	s32i.n	a9, a8, 0
400d2df1:	0020c0        	memw
400d2df4:	0898      	l32i.n	a9, a8, 0
400d2df6:	1a0c      	movi.n	a10, 1
400d2df8:	01aaf0        	slli	a10, a10, 17
400d2dfb:	2099a0        	or	a9, a9, a10
400d2dfe:	0020c0        	memw
400d2e01:	0899      	s32i.n	a9, a8, 0
400d2e03:	0020c0        	memw
400d2e06:	0898      	l32i.n	a9, a8, 0
400d2e08:	1a0c      	movi.n	a10, 1
400d2e0a:	11aa20        	slli	a10, a10, 14
400d2e0d:	2099a0        	or	a9, a9, a10
400d2e10:	0020c0        	memw
400d2e13:	0899      	s32i.n	a9, a8, 0
400d2e15:	f4d191        	l32r	a9, 400d015c <_image_irom_vaddr+0x13c> (3ff48030 <RTCCNTL+0x30>)
400d2e18:	0020c0        	memw
400d2e1b:	09a8      	l32i.n	a10, a9, 0
400d2e1d:	10aab0        	and	a10, a10, a11
400d2e20:	0020c0        	memw
400d2e23:	09a9      	s32i.n	a10, a9, 0
400d2e25:	0020c0        	memw
400d2e28:	09a8      	l32i.n	a10, a9, 0
400d2e2a:	1b0c      	movi.n	a11, 1
400d2e2c:	01bb90        	slli	a11, a11, 23
400d2e2f:	20aab0        	or	a10, a10, a11
400d2e32:	0020c0        	memw
400d2e35:	09a9      	s32i.n	a10, a9, 0
400d2e37:	0020c0        	memw
400d2e3a:	0898      	l32i.n	a9, a8, 0
400d2e3c:	f4eda1        	l32r	a10, 400d01f0 <_image_irom_vaddr+0x1d0> (fffff7ff <_rtc_bss_end+0xaffff7ff>)
400d2e3f:	1099a0        	and	a9, a9, a10
400d2e42:	0020c0        	memw
400d2e45:	0899      	s32i.n	a9, a8, 0
400d2e47:	0020c0        	memw
400d2e4a:	0898      	l32i.n	a9, a8, 0
400d2e4c:	ffada2        	movi	a10, 0xfffffdff
400d2e4f:	1099a0        	and	a9, a9, a10
400d2e52:	0020c0        	memw
400d2e55:	0899      	s32i.n	a9, a8, 0
400d2e57:	f4b981        	l32r	a8, 400d013c <_image_irom_vaddr+0x11c> (3ff4807c <RTCCNTL+0x7c>)
400d2e5a:	f495a1        	l32r	a10, 400d00b0 <_image_irom_vaddr+0x90> (7fffffff <_rtc_bss_end+0x2fffffff>)
400d2e5d:	0020c0        	memw
400d2e60:	0898      	l32i.n	a9, a8, 0
400d2e62:	1099a0        	and	a9, a9, a10
400d2e65:	0020c0        	memw
400d2e68:	0899      	s32i.n	a9, a8, 0
400d2e6a:	0020c0        	memw
400d2e6d:	0898      	l32i.n	a9, a8, 0
400d2e6f:	f4c5a1        	l32r	a10, 400d0184 <_image_irom_vaddr+0x164> (dfffffff <_rtc_bss_end+0x8fffffff>)
400d2e72:	1099a0        	and	a9, a9, a10
400d2e75:	0020c0        	memw
400d2e78:	0899      	s32i.n	a9, a8, 0
400d2e7a:	0f72a7        	bbci	a2, 26, 400d2e8d <rtc_init+0x265>
400d2e7d:	0020c0        	memw
400d2e80:	0828      	l32i.n	a2, a8, 0
400d2e82:	190c      	movi.n	a9, 1
400d2e84:	019940        	slli	a9, a9, 28
400d2e87:	202290        	or	a2, a2, a9
400d2e8a:	000286        	j	400d2e98 <rtc_init+0x270>
400d2e8d:	0020c0        	memw
400d2e90:	0828      	l32i.n	a2, a8, 0
400d2e92:	f49091        	l32r	a9, 400d00d4 <_image_irom_vaddr+0xb4> (efffffff <_rtc_bss_end+0x9fffffff>)
400d2e95:	102290        	and	a2, a2, a9
400d2e98:	0020c0        	memw
400d2e9b:	0829      	s32i.n	a2, a8, 0
400d2e9d:	f4df81        	l32r	a8, 400d021c <_image_irom_vaddr+0x1fc> (3ff48084 <RTCCNTL+0x84>)
400d2ea0:	f96c      	movi.n	a9, -17
400d2ea2:	0020c0        	memw
400d2ea5:	0828      	l32i.n	a2, a8, 0
400d2ea7:	f482a1        	l32r	a10, 400d00b0 <_image_irom_vaddr+0x90> (7fffffff <_rtc_bss_end+0x2fffffff>)
400d2eaa:	102290        	and	a2, a2, a9
400d2ead:	0020c0        	memw
400d2eb0:	0829      	s32i.n	a2, a8, 0
400d2eb2:	0020c0        	memw
400d2eb5:	0828      	l32i.n	a2, a8, 0
400d2eb7:	f4da91        	l32r	a9, 400d0220 <_image_irom_vaddr+0x200> (ffefffff <_rtc_bss_end+0xafefffff>)
400d2eba:	102290        	and	a2, a2, a9
400d2ebd:	0020c0        	memw
400d2ec0:	0829      	s32i.n	a2, a8, 0
400d2ec2:	0020c0        	memw
400d2ec5:	0828      	l32i.n	a2, a8, 0
400d2ec7:	f4d791        	l32r	a9, 400d0224 <_image_irom_vaddr+0x204> (fffbffff <_rtc_bss_end+0xaffbffff>)
400d2eca:	102290        	and	a2, a2, a9
400d2ecd:	0020c0        	memw
400d2ed0:	0829      	s32i.n	a2, a8, 0
400d2ed2:	0020c0        	memw
400d2ed5:	0828      	l32i.n	a2, a8, 0
400d2ed7:	f4d491        	l32r	a9, 400d0228 <_image_irom_vaddr+0x208> (fffeaabf <_rtc_bss_end+0xaffeaabf>)
400d2eda:	102290        	and	a2, a2, a9
400d2edd:	f4d391        	l32r	a9, 400d022c <_image_irom_vaddr+0x20c> (3ff48080 <RTCCNTL+0x80>)
400d2ee0:	0020c0        	memw
400d2ee3:	0829      	s32i.n	a2, a8, 0
400d2ee5:	0020c0        	memw
400d2ee8:	0928      	l32i.n	a2, a9, 0
400d2eea:	f4d181        	l32r	a8, 400d0230 <_image_irom_vaddr+0x210> (fffedfff <_rtc_bss_end+0xaffedfff>)
400d2eed:	102280        	and	a2, a2, a8
400d2ef0:	0020c0        	memw
400d2ef3:	0929      	s32i.n	a2, a9, 0
400d2ef5:	0020c0        	memw
400d2ef8:	0928      	l32i.n	a2, a9, 0
400d2efa:	f49c81        	l32r	a8, 400d016c <_image_irom_vaddr+0x14c> (fff7ffff <_rtc_bss_end+0xaff7ffff>)
400d2efd:	102280        	and	a2, a2, a8
400d2f00:	f4cd81        	l32r	a8, 400d0234 <_image_irom_vaddr+0x214> (3ff48088 <RTCCNTL+0x88>)
400d2f03:	0020c0        	memw
400d2f06:	0929      	s32i.n	a2, a9, 0
400d2f08:	0020c0        	memw
400d2f0b:	0828      	l32i.n	a2, a8, 0
400d2f0d:	1022a0        	and	a2, a2, a10
400d2f10:	0020c0        	memw
400d2f13:	0829      	s32i.n	a2, a8, 0
400d2f15:	0020c0        	memw
400d2f18:	0828      	l32i.n	a2, a8, 0
400d2f1a:	f49aa1        	l32r	a10, 400d0184 <_image_irom_vaddr+0x164> (dfffffff <_rtc_bss_end+0x8fffffff>)
400d2f1d:	1022a0        	and	a2, a2, a10
400d2f20:	0020c0        	memw
400d2f23:	0829      	s32i.n	a2, a8, 0
400d2f25:	0020c0        	memw
400d2f28:	0828      	l32i.n	a2, a8, 0
400d2f2a:	f4c3a1        	l32r	a10, 400d0238 <_image_irom_vaddr+0x218> (f555ffff <_rtc_bss_end+0xa555ffff>)
400d2f2d:	1022a0        	and	a2, a2, a10
400d2f30:	0020c0        	memw
400d2f33:	0829      	s32i.n	a2, a8, 0
400d2f35:	0020c0        	memw
400d2f38:	0928      	l32i.n	a2, a9, 0
400d2f3a:	aa7c      	movi.n	a10, -6
400d2f3c:	1022a0        	and	a2, a2, a10
400d2f3f:	0020c0        	memw
400d2f42:	0929      	s32i.n	a2, a9, 0
400d2f44:	0020c0        	memw
400d2f47:	0928      	l32i.n	a2, a9, 0
400d2f49:	dfafa2        	movi	a10, -33
400d2f4c:	1022a0        	and	a2, a2, a10
400d2f4f:	0020c0        	memw
400d2f52:	0929      	s32i.n	a2, a9, 0
400d2f54:	0020c0        	memw
400d2f57:	0828      	l32i.n	a2, a8, 0
400d2f59:	f4b891        	l32r	a9, 400d023c <_image_irom_vaddr+0x21c> (ffffbfff <_rtc_bss_end+0xafffbfff>)
400d2f5c:	102290        	and	a2, a2, a9
400d2f5f:	0020c0        	memw
400d2f62:	0829      	s32i.n	a2, a8, 0
400d2f64:	0020c0        	memw
400d2f67:	0828      	l32i.n	a2, a8, 0
400d2f69:	f4b591        	l32r	a9, 400d0240 <_image_irom_vaddr+0x220> (ffffefff <_rtc_bss_end+0xafffefff>)
400d2f6c:	102290        	and	a2, a2, a9
400d2f6f:	0020c0        	memw
400d2f72:	0829      	s32i.n	a2, a8, 0
400d2f74:	f4b091        	l32r	a9, 400d0234 <_image_irom_vaddr+0x214> (3ff48088 <RTCCNTL+0x88>)
400d2f77:	180c      	movi.n	a8, 1
400d2f79:	0020c0        	memw
400d2f7c:	0928      	l32i.n	a2, a9, 0
400d2f7e:	018840        	slli	a8, a8, 28
400d2f81:	202280        	or	a2, a2, a8
400d2f84:	0020c0        	memw
400d2f87:	0929      	s32i.n	a2, a9, 0
400d2f89:	f4a491        	l32r	a9, 400d021c <_image_irom_vaddr+0x1fc> (3ff48084 <RTCCNTL+0x84>)
400d2f8c:	180c      	movi.n	a8, 1
400d2f8e:	0020c0        	memw
400d2f91:	0928      	l32i.n	a2, a9, 0
400d2f93:	0188f0        	slli	a8, a8, 17
400d2f96:	202280        	or	a2, a2, a8
400d2f99:	0020c0        	memw
400d2f9c:	0929      	s32i.n	a2, a9, 0
400d2f9e:	f4a921        	l32r	a2, 400d0244 <_image_irom_vaddr+0x224> (3ff4803c <RTCCNTL+0x3c>)
400d2fa1:	080c      	movi.n	a8, 0
400d2fa3:	0020c0        	memw
400d2fa6:	0289      	s32i.n	a8, a2, 0
400d2fa8:	f4a821        	l32r	a2, 400d0248 <_image_irom_vaddr+0x228> (3ff48048 <RTCCNTL+0x48>)
400d2fab:	f87c      	movi.n	a8, -1
400d2fad:	0020c0        	memw
400d2fb0:	0289      	s32i.n	a8, a2, 0
400d2fb2:	f01d      	retw.n

400d2fb4 <rtc_clk_cal_internal>:
400d2fb4:	004136        	entry	a1, 32
400d2fb7:	f46351        	l32r	a5, 400d0144 <_image_irom_vaddr+0x124> (3ff48070 <RTCCNTL+0x70>)
400d2fba:	160c      	movi.n	a6, 1
400d2fbc:	0020c0        	memw
400d2fbf:	0548      	l32i.n	a4, a5, 0
400d2fc1:	044840        	extui	a4, a4, 8, 1
400d2fc4:	0d2266        	bnei	a2, 2, 400d2fd5 <rtc_clk_cal_internal+0x21>
400d2fc7:	0a1467        	beq	a4, a6, 400d2fd5 <rtc_clk_cal_internal+0x21>
400d2fca:	0020c0        	memw
400d2fcd:	0588      	l32i.n	a8, a5, 0
400d2fcf:	00a162        	movi	a6, 0x100
400d2fd2:	000286        	j	400d2fe0 <rtc_clk_cal_internal+0x2c>
400d2fd5:	0f1266        	bnei	a2, 1, 400d2fe8 <rtc_clk_cal_internal+0x34>
400d2fd8:	0020c0        	memw
400d2fdb:	0588      	l32i.n	a8, a5, 0
400d2fdd:	00a262        	movi	a6, 0x200
400d2fe0:	208860        	or	a8, a8, a6
400d2fe3:	0020c0        	memw
400d2fe6:	0589      	s32i.n	a8, a5, 0
400d2fe8:	f49b91        	l32r	a9, 400d0254 <_image_irom_vaddr+0x234> (3ff5f068 <SENS+0x16868>)
400d2feb:	f49b61        	l32r	a6, 400d0258 <_image_irom_vaddr+0x238> (ffff9fff <_rtc_bss_end+0xafff9fff>)
400d2fee:	0020c0        	memw
400d2ff1:	0958      	l32i.n	a5, a9, 0
400d2ff3:	3a0c      	movi.n	a10, 3
400d2ff5:	118230        	slli	a8, a2, 13
400d2ff8:	11aa30        	slli	a10, a10, 13
400d2ffb:	105560        	and	a5, a5, a6
400d2ffe:	1088a0        	and	a8, a8, a10
400d3001:	208850        	or	a8, a8, a5
400d3004:	0020c0        	memw
400d3007:	0989      	s32i.n	a8, a9, 0
400d3009:	0020c0        	memw
400d300c:	0958      	l32i.n	a5, a9, 0
400d300e:	f48c61        	l32r	a6, 400d0240 <_image_irom_vaddr+0x220> (ffffefff <_rtc_bss_end+0xafffefff>)
400d3011:	105560        	and	a5, a5, a6
400d3014:	f49261        	l32r	a6, 400d025c <_image_irom_vaddr+0x23c> (7fff0000 <_rtc_bss_end+0x2fff0000>)
400d3017:	0020c0        	memw
400d301a:	0959      	s32i.n	a5, a9, 0
400d301c:	115300        	slli	a5, a3, 16
400d301f:	0020c0        	memw
400d3022:	0988      	l32i.n	a8, a9, 0
400d3024:	105560        	and	a5, a5, a6
400d3027:	f48e61        	l32r	a6, 400d0260 <_image_irom_vaddr+0x240> (8000ffff <_rtc_bss_end+0x3000ffff>)
400d302a:	108860        	and	a8, a8, a6
400d302d:	205580        	or	a5, a5, a8
400d3030:	0020c0        	memw
400d3033:	0959      	s32i.n	a5, a9, 0
400d3035:	f44351        	l32r	a5, 400d0144 <_image_irom_vaddr+0x124> (3ff48070 <RTCCNTL+0x70>)
400d3038:	01a082        	movi	a8, 1
400d303b:	0020c0        	memw
400d303e:	002552        	l32i	a5, a5, 0
400d3041:	11c810        	slli	a12, a8, 15
400d3044:	202226        	beqi	a2, 2, 400d3068 <rtc_clk_cal_internal+0xb4>
400d3047:	00a062        	movi	a6, 0
400d304a:	938620        	movnez	a8, a6, a2
400d304d:	155e50        	extui	a5, a5, 30, 2
400d3050:	748080        	extui	a8, a8, 0, 8
400d3053:	021566        	bnei	a5, 1, 400d3059 <rtc_clk_cal_internal+0xa5>
400d3056:	0e9867        	bne	a8, a6, 400d3068 <rtc_clk_cal_internal+0xb4>
400d3059:	f47cc1        	l32r	a12, 400d024c <_image_irom_vaddr+0x22c> (81b3 <_image_irom_start+0x2853>)
400d305c:	081226        	beqi	a2, 1, 400d3068 <rtc_clk_cal_internal+0xb4>
400d305f:	022566        	bnei	a5, 2, 400d3065 <rtc_clk_cal_internal+0xb1>
400d3062:	002856        	bnez	a8, 400d3068 <rtc_clk_cal_internal+0xb4>
400d3065:	f47ac1        	l32r	a12, 400d0250 <_image_irom_vaddr+0x230> (249f0 <CONFIG_ESP_HEAP_MEM_POOL_REGION_1_SIZE+0x189f0>)
400d3068:	f455a1        	l32r	a10, 400d01bc <_image_irom_vaddr+0x19c> (f4240 <CONFIG_ESP_HEAP_MEM_POOL_REGION_1_SIZE+0xe8240>)
400d306b:	0d0c      	movi.n	a13, 0
400d306d:	a2b3a0        	muluh	a11, a3, a10
400d3070:	82a3a0        	mull	a10, a3, a10
400d3073:	f42c81        	l32r	a8, 400d0124 <_image_irom_vaddr+0x104> (4000cff8 <__udivdi3>)
400d3076:	0008e0        	callx8	a8
400d3079:	0a3d      	mov.n	a3, a10
400d307b:	0a6d      	mov.n	a6, a10
400d307d:	ff8a65        	call8	400d2924 <rtc_clk_xtal_freq_get>
400d3080:	0acc      	bnez.n	a10, 400d3084 <rtc_clk_cal_internal+0xd0>
400d3082:	8a2c      	movi.n	a10, 40
400d3084:	f47851        	l32r	a5, 400d0264 <_image_irom_vaddr+0x244> (1ffffff <CONFIG_FLASH_SIZE+0x1bfffff>)
400d3087:	c255a0        	quou	a5, a5, a10
400d308a:	223657        	bltu	a6, a5, 400d30b0 <rtc_clk_cal_internal+0xfc>
400d308d:	f42021        	l32r	a2, 400d0110 <_image_irom_vaddr+0xf0> (3ffb0008 <esp_log_default_level>)
400d3090:	0228      	l32i.n	a2, a2, 0
400d3092:	32cc      	bnez.n	a2, 400d3099 <rtc_clk_cal_internal+0xe5>
400d3094:	020c      	movi.n	a2, 0
400d3096:	002806        	j	400d313a <rtc_clk_cal_internal+0x186>
400d3099:	af86e5        	call8	40082908 <esp_log_early_timestamp>
400d309c:	0abd      	mov.n	a11, a10
400d309e:	f472c1        	l32r	a12, 400d0268 <_image_irom_vaddr+0x248> (3f400e79 <CSWTCH$47+0x11>)
400d30a1:	f472a1        	l32r	a10, 400d026c <_image_irom_vaddr+0x24c> (3f400e82 <CSWTCH$47+0x1a>)
400d30a4:	f41e81        	l32r	a8, 400d011c <_image_irom_vaddr+0xfc> (40007d54 <esp_rom_printf>)
400d30a7:	0008e0        	callx8	a8
400d30aa:	fff986        	j	400d3094 <rtc_clk_cal_internal+0xe0>
400d30ad:	00          	.byte 00
400d30ae:	00          	.byte 00
400d30af:	00          	.byte 00
400d30b0:	f46951        	l32r	a5, 400d0254 <_image_irom_vaddr+0x234> (3ff5f068 <SENS+0x16868>)
400d30b3:	f3ff91        	l32r	a9, 400d00b0 <_image_irom_vaddr+0x90> (7fffffff <_rtc_bss_end+0x2fffffff>)
400d30b6:	0020c0        	memw
400d30b9:	002582        	l32i	a8, a5, 0
400d30bc:	108890        	and	a8, a8, a9
400d30bf:	0020c0        	memw
400d30c2:	006582        	s32i	a8, a5, 0
400d30c5:	0020c0        	memw
400d30c8:	002582        	l32i	a8, a5, 0
400d30cb:	f97c      	movi.n	a9, -1
400d30cd:	019910        	slli	a9, a9, 31
400d30d0:	208890        	or	a8, a8, a9
400d30d3:	0020c0        	memw
400d30d6:	0589      	s32i.n	a8, a5, 0
400d30d8:	03ad      	mov.n	a10, a3
400d30da:	af3e25        	call8	400824bc <z_impl_k_busy_wait>
400d30dd:	0001c6        	j	400d30e8 <rtc_clk_cal_internal+0x134>
400d30e0:	330b      	addi.n	a3, a3, -1
400d30e2:	f42681        	l32r	a8, 400d017c <_image_irom_vaddr+0x15c> (40008534 <esp_rom_delay_us>)
400d30e5:	0008e0        	callx8	a8
400d30e8:	0020c0        	memw
400d30eb:	002582        	l32i	a8, a5, 0
400d30ee:	01a0a2        	movi	a10, 1
400d30f1:	048f80        	extui	a8, a8, 15, 1
400d30f4:	0818a7        	beq	a8, a10, 400d3100 <rtc_clk_cal_internal+0x14c>
400d30f7:	318f30        	srai	a8, a3, 31
400d30fa:	c08830        	sub	a8, a8, a3
400d30fd:	fdf896        	bltz	a8, 400d30e0 <rtc_clk_cal_internal+0x12c>
400d3100:	f41151        	l32r	a5, 400d0144 <_image_irom_vaddr+0x124> (3ff48070 <RTCCNTL+0x70>)
400d3103:	ffae92        	movi	a9, 0xfffffeff
400d3106:	0020c0        	memw
400d3109:	0588      	l32i.n	a8, a5, 0
400d310b:	114480        	slli	a4, a4, 8
400d310e:	108890        	and	a8, a8, a9
400d3111:	204840        	or	a4, a8, a4
400d3114:	0020c0        	memw
400d3117:	0549      	s32i.n	a4, a5, 0
400d3119:	0f1266        	bnei	a2, 1, 400d312c <rtc_clk_cal_internal+0x178>
400d311c:	0020c0        	memw
400d311f:	0528      	l32i.n	a2, a5, 0
400d3121:	ffad42        	movi	a4, 0xfffffdff
400d3124:	102240        	and	a2, a2, a4
400d3127:	0020c0        	memw
400d312a:	0529      	s32i.n	a2, a5, 0
400d312c:	f64316        	beqz	a3, 400d3094 <rtc_clk_cal_internal+0xe0>
400d312f:	f45021        	l32r	a2, 400d0270 <_image_irom_vaddr+0x250> (3ff5f06c <SENS+0x1686c>)
400d3132:	0020c0        	memw
400d3135:	0228      	l32i.n	a2, a2, 0
400d3137:	412720        	srli	a2, a2, 7
400d313a:	f01d      	retw.n

400d313c <rtc_clk_cal_ratio>:
400d313c:	004136        	entry	a1, 32
400d313f:	03bd      	mov.n	a11, a3
400d3141:	02ad      	mov.n	a10, a2
400d3143:	ffe725        	call8	400d2fb4 <rtc_clk_cal_internal>
400d3146:	0abd      	mov.n	a11, a10
400d3148:	03cd      	mov.n	a12, a3
400d314a:	0d0c      	movi.n	a13, 0
400d314c:	01aad0        	slli	a10, a10, 19
400d314f:	41bdb0        	srli	a11, a11, 13
400d3152:	f3f481        	l32r	a8, 400d0124 <_image_irom_vaddr+0x104> (4000cff8 <__udivdi3>)
400d3155:	0008e0        	callx8	a8
400d3158:	0a2d      	mov.n	a2, a10
400d315a:	f01d      	retw.n

400d315c <rtc_clk_cal>:
400d315c:	004136        	entry	a1, 32
400d315f:	ff7c65        	call8	400d2924 <rtc_clk_xtal_freq_get>
400d3162:	0a4d      	mov.n	a4, a10
400d3164:	03bd      	mov.n	a11, a3
400d3166:	02ad      	mov.n	a10, a2
400d3168:	ffe4a5        	call8	400d2fb4 <rtc_clk_cal_internal>
400d316b:	418da0        	srli	a8, a10, 13
400d316e:	01aad0        	slli	a10, a10, 19
400d3171:	9a0b      	addi.n	a9, a10, -1
400d3173:	82c430        	mull	a12, a4, a3
400d3176:	a2d430        	muluh	a13, a4, a3
400d3179:	130c      	movi.n	a3, 1
400d317b:	0139a7        	bltu	a9, a10, 400d3180 <rtc_clk_cal+0x24>
400d317e:	030c      	movi.n	a3, 0
400d3180:	01bd10        	slli	a11, a13, 31
400d3183:	41a1c0        	srli	a10, a12, 1
400d3186:	20aba0        	or	a10, a11, a10
400d3189:	880b      	addi.n	a8, a8, -1
400d318b:	a9aa      	add.n	a10, a9, a10
400d318d:	838a      	add.n	a8, a3, a8
400d318f:	1b0c      	movi.n	a11, 1
400d3191:	4131d0        	srli	a3, a13, 1
400d3194:	023a97        	bltu	a10, a9, 400d319a <rtc_clk_cal+0x3e>
400d3197:	00a0b2        	movi	a11, 0
400d319a:	883a      	add.n	a8, a8, a3
400d319c:	bb8a      	add.n	a11, a11, a8
400d319e:	f3e181        	l32r	a8, 400d0124 <_image_irom_vaddr+0x104> (4000cff8 <__udivdi3>)
400d31a1:	0008e0        	callx8	a8
400d31a4:	0a2d      	mov.n	a2, a10
400d31a6:	f01d      	retw.n

400d31a8 <rtc_clk_wait_for_slow_cycle>:
400d31a8:	004136        	entry	a1, 32
400d31ab:	f42a21        	l32r	a2, 400d0254 <_image_irom_vaddr+0x234> (3ff5f068 <SENS+0x16868>)
400d31ae:	f43191        	l32r	a9, 400d0274 <_image_irom_vaddr+0x254> (7fffefff <_rtc_bss_end+0x2fffefff>)
400d31b1:	0020c0        	memw
400d31b4:	0288      	l32i.n	a8, a2, 0
400d31b6:	108890        	and	a8, a8, a9
400d31b9:	0020c0        	memw
400d31bc:	0289      	s32i.n	a8, a2, 0
400d31be:	0020c0        	memw
400d31c1:	0288      	l32i.n	a8, a2, 0
400d31c3:	f42d91        	l32r	a9, 400d0278 <_image_irom_vaddr+0x258> (ffff7fff <_rtc_bss_end+0xafff7fff>)
400d31c6:	108890        	and	a8, a8, a9
400d31c9:	0020c0        	memw
400d31cc:	0289      	s32i.n	a8, a2, 0
400d31ce:	0020c0        	memw
400d31d1:	0288      	l32i.n	a8, a2, 0
400d31d3:	f42191        	l32r	a9, 400d0258 <_image_irom_vaddr+0x238> (ffff9fff <_rtc_bss_end+0xafff9fff>)
400d31d6:	108890        	and	a8, a8, a9
400d31d9:	0020c0        	memw
400d31dc:	0289      	s32i.n	a8, a2, 0
400d31de:	0020c0        	memw
400d31e1:	0288      	l32i.n	a8, a2, 0
400d31e3:	f41f91        	l32r	a9, 400d0260 <_image_irom_vaddr+0x240> (8000ffff <_rtc_bss_end+0x3000ffff>)
400d31e6:	108890        	and	a8, a8, a9
400d31e9:	0020c0        	memw
400d31ec:	0289      	s32i.n	a8, a2, 0
400d31ee:	0020c0        	memw
400d31f1:	0288      	l32i.n	a8, a2, 0
400d31f3:	f97c      	movi.n	a9, -1
400d31f5:	019910        	slli	a9, a9, 31
400d31f8:	208890        	or	a8, a8, a9
400d31fb:	0020c0        	memw
400d31fe:	0289      	s32i.n	a8, a2, 0
400d3200:	1a0c      	movi.n	a10, 1
400d3202:	f3de81        	l32r	a8, 400d017c <_image_irom_vaddr+0x15c> (40008534 <esp_rom_delay_us>)
400d3205:	0008e0        	callx8	a8
400d3208:	0020c0        	memw
400d320b:	0288      	l32i.n	a8, a2, 0
400d320d:	ef68f7        	bbci	a8, 15, 400d3200 <rtc_clk_wait_for_slow_cycle+0x58>
400d3210:	f01d      	retw.n
	...

400d3214 <rtc_clk_xtal_freq_estimate>:
400d3214:	004136        	entry	a1, 32
400d3217:	ff4c65        	call8	400d26dc <rtc_clk_8m_enabled>
400d321a:	ff4da5        	call8	400d26f4 <rtc_clk_8md256_enabled>
400d321d:	009a56        	bnez	a10, 400d322a <rtc_clk_xtal_freq_estimate+0x16>
400d3220:	1b0c      	movi.n	a11, 1
400d3222:	0bad      	mov.n	a10, a11
400d3224:	201110        	or	a1, a1, a1
400d3227:	ff4325        	call8	400d2658 <rtc_clk_8m_enable>
400d322a:	0aa0b2        	movi	a11, 10
400d322d:	01a0a2        	movi	a10, 1
400d3230:	fff0a5        	call8	400d313c <rtc_clk_cal_ratio>
400d3233:	f41221        	l32r	a2, 400d027c <_image_irom_vaddr+0x25c> (81b320 <CONFIG_FLASH_SIZE+0x41b320>)
400d3236:	f412c1        	l32r	a12, 400d0280 <_image_irom_vaddr+0x260> (f424000 <CONFIG_SYS_CLOCK_HW_CYCLES_PER_SEC+0xf42400>)
400d3239:	a2ba20        	muluh	a11, a10, a2
400d323c:	82aa20        	mull	a10, a10, a2
400d323f:	00a0d2        	movi	a13, 0
400d3242:	f3b881        	l32r	a8, 400d0124 <_image_irom_vaddr+0x104> (4000cff8 <__udivdi3>)
400d3245:	0008e0        	callx8	a8
400d3248:	112b30        	slli	a2, a11, 13
400d324b:	c5a3a0        	extui	a10, a10, 19, 13
400d324e:	2022a0        	or	a2, a2, a10
400d3251:	382c      	movi.n	a8, 35
400d3253:	1d3827        	bltu	a8, a2, 400d3274 <rtc_clk_xtal_freq_estimate+0x60>
400d3256:	182c      	movi.n	a8, 33
400d3258:	3c3827        	bltu	a8, a2, 400d3298 <rtc_clk_xtal_freq_estimate+0x84>
400d325b:	f81c      	movi.n	a8, 31
400d325d:	0bb827        	bgeu	a8, a2, 400d326c <rtc_clk_xtal_freq_estimate+0x58>
400d3260:	f3ac81        	l32r	a8, 400d0110 <_image_irom_vaddr+0xf0> (3ffb0008 <esp_log_default_level>)
400d3263:	0888      	l32i.n	a8, a8, 0
400d3265:	2928b6        	bltui	a8, 2, 400d3292 <rtc_clk_xtal_freq_estimate+0x7e>
400d3268:	0004c6        	j	400d327f <rtc_clk_xtal_freq_estimate+0x6b>
400d326b:	00          	.byte 00
400d326c:	481c      	movi.n	a8, 20
400d326e:	46b827        	bgeu	a8, a2, 400d32b8 <rtc_clk_xtal_freq_estimate+0xa4>
400d3271:	000746        	j	400d3292 <rtc_clk_xtal_freq_estimate+0x7e>
400d3274:	dcc282        	addi	a8, a2, -36
400d3277:	990c      	movi.n	a9, 9
400d3279:	5fb987        	bgeu	a9, a8, 400d32dc <rtc_clk_xtal_freq_estimate+0xc8>
400d327c:	000e06        	j	400d32b8 <rtc_clk_xtal_freq_estimate+0xa4>
400d327f:	af68a5        	call8	40082908 <esp_log_early_timestamp>
400d3282:	0abd      	mov.n	a11, a10
400d3284:	f400c1        	l32r	a12, 400d0284 <_image_irom_vaddr+0x264> (3f400ec0 <CSWTCH$47+0x58>)
400d3287:	f400a1        	l32r	a10, 400d0288 <_image_irom_vaddr+0x268> (3f400ecd <CSWTCH$47+0x65>)
400d328a:	02dd      	mov.n	a13, a2
400d328c:	f3a481        	l32r	a8, 400d011c <_image_irom_vaddr+0xfc> (40007d54 <esp_rom_printf>)
400d328f:	0008e0        	callx8	a8
400d3292:	a21c      	movi.n	a2, 26
400d3294:	001186        	j	400d32de <rtc_clk_xtal_freq_estimate+0xca>
400d3297:	00          	.byte 00
400d3298:	f39e81        	l32r	a8, 400d0110 <_image_irom_vaddr+0xf0> (3ffb0008 <esp_log_default_level>)
400d329b:	0888      	l32i.n	a8, a8, 0
400d329d:	3b28b6        	bltui	a8, 2, 400d32dc <rtc_clk_xtal_freq_estimate+0xc8>
400d32a0:	af6665        	call8	40082908 <esp_log_early_timestamp>
400d32a3:	0abd      	mov.n	a11, a10
400d32a5:	f3f7c1        	l32r	a12, 400d0284 <_image_irom_vaddr+0x264> (3f400ec0 <CSWTCH$47+0x58>)
400d32a8:	f3f9a1        	l32r	a10, 400d028c <_image_irom_vaddr+0x26c> (3f400f13 <CSWTCH$47+0xab>)
400d32ab:	20d220        	or	a13, a2, a2
400d32ae:	f39b81        	l32r	a8, 400d011c <_image_irom_vaddr+0xfc> (40007d54 <esp_rom_printf>)
400d32b1:	0008e0        	callx8	a8
400d32b4:	000906        	j	400d32dc <rtc_clk_xtal_freq_estimate+0xc8>
400d32b7:	00          	.byte 00
400d32b8:	f39681        	l32r	a8, 400d0110 <_image_irom_vaddr+0xf0> (3ffb0008 <esp_log_default_level>)
400d32bb:	0888      	l32i.n	a8, a8, 0
400d32bd:	0428f6        	bgeui	a8, 2, 400d32c5 <rtc_clk_xtal_freq_estimate+0xb1>
400d32c0:	020c      	movi.n	a2, 0
400d32c2:	000606        	j	400d32de <rtc_clk_xtal_freq_estimate+0xca>
400d32c5:	af6425        	call8	40082908 <esp_log_early_timestamp>
400d32c8:	0abd      	mov.n	a11, a10
400d32ca:	f3eec1        	l32r	a12, 400d0284 <_image_irom_vaddr+0x264> (3f400ec0 <CSWTCH$47+0x58>)
400d32cd:	f3f0a1        	l32r	a10, 400d0290 <_image_irom_vaddr+0x270> (3f400f59 <CSWTCH$47+0xf1>)
400d32d0:	02dd      	mov.n	a13, a2
400d32d2:	f39281        	l32r	a8, 400d011c <_image_irom_vaddr+0xfc> (40007d54 <esp_rom_printf>)
400d32d5:	0008e0        	callx8	a8
400d32d8:	fff906        	j	400d32c0 <rtc_clk_xtal_freq_estimate+0xac>
400d32db:	00          	.byte 00
400d32dc:	822c      	movi.n	a2, 40
400d32de:	f01d      	retw.n

400d32e0 <rtc_clk_init>:
400d32e0:	00a136        	entry	a1, 80
400d32e3:	096132        	s32i	a3, a1, 36
400d32e6:	f39731        	l32r	a3, 400d0144 <_image_irom_vaddr+0x124> (3ff48070 <RTCCNTL+0x70>)
400d32e9:	086122        	s32i	a2, a1, 32
400d32ec:	0020c0        	memw
400d32ef:	0023b2        	l32i	a11, a3, 0
400d32f2:	942820        	extui	a2, a2, 8, 10
400d32f5:	15bbb0        	extui	a11, a11, 27, 2
400d32f8:	041b66        	bnei	a11, 1, 400d3300 <rtc_clk_init+0x20>
400d32fb:	8a2c      	movi.n	a10, 40
400d32fd:	ff77e5        	call8	400d2a7c <rtc_clk_cpu_freq_to_xtal>
400d3300:	f38f81        	l32r	a8, 400d013c <_image_irom_vaddr+0x11c> (3ff4807c <RTCCNTL+0x7c>)
400d3303:	230132        	l8ui	a3, a1, 35
400d3306:	0020c0        	memw
400d3309:	002842        	l32i	a4, a8, 0
400d330c:	f3e291        	l32r	a9, 400d0294 <_image_irom_vaddr+0x274> (ffc03fff <_rtc_bss_end+0xafc03fff>)
400d330f:	113320        	slli	a3, a3, 14
400d3312:	104490        	and	a4, a4, a9
400d3315:	203340        	or	a3, a3, a4
400d3318:	f38b41        	l32r	a4, 400d0144 <_image_irom_vaddr+0x124> (3ff48070 <RTCCNTL+0x70>)
400d331b:	0020c0        	memw
400d331e:	006832        	s32i	a3, a8, 0
400d3321:	0020c0        	memw
400d3324:	002482        	l32i	a8, a4, 0
400d3327:	240132        	l8ui	a3, a1, 36
400d332a:	f3db91        	l32r	a9, 400d0298 <_image_irom_vaddr+0x278> (fe01ffff <_rtc_bss_end+0xae01ffff>)
400d332d:	0133f0        	slli	a3, a3, 17
400d3330:	108890        	and	a8, a8, a9
400d3333:	203380        	or	a3, a3, a8
400d3336:	0020c0        	memw
400d3339:	0439      	s32i.n	a3, a4, 0
400d333b:	8138      	l32i.n	a3, a1, 32
400d333d:	0020c0        	memw
400d3340:	0488      	l32i.n	a8, a4, 0
400d3342:	f3d691        	l32r	a9, 400d029c <_image_irom_vaddr+0x27c> (ffff8fff <_rtc_bss_end+0xafff8fff>)
400d3345:	253530        	extui	a3, a3, 21, 3
400d3348:	108890        	and	a8, a8, a9
400d334b:	113340        	slli	a3, a3, 12
400d334e:	203380        	or	a3, a3, a8
400d3351:	0020c0        	memw
400d3354:	0439      	s32i.n	a3, a4, 0
400d3356:	f3d231        	l32r	a3, 400d02a0 <_image_irom_vaddr+0x280> (6000e044 <_rtc_bss_end+0x1000e044>)
400d3359:	ffa382        	movi	a8, 0x3ff
400d335c:	0020c0        	memw
400d335f:	0348      	l32i.n	a4, a3, 0
400d3361:	118880        	slli	a8, a8, 8
400d3364:	204480        	or	a4, a4, a8
400d3367:	0020c0        	memw
400d336a:	0349      	s32i.n	a4, a3, 0
400d336c:	0020c0        	memw
400d336f:	0348      	l32i.n	a4, a3, 0
400d3371:	f3cc81        	l32r	a8, 400d02a4 <_image_irom_vaddr+0x284> (fffdbfff <_rtc_bss_end+0xaffdbfff>)
400d3374:	104480        	and	a4, a4, a8
400d3377:	0020c0        	memw
400d337a:	0349      	s32i.n	a4, a3, 0
400d337c:	f38a31        	l32r	a3, 400d01a4 <_image_irom_vaddr+0x184> (3ff480b0 <RTCCNTL+0xb0>)
400d337f:	200142        	l8ui	a4, a1, 32
400d3382:	0020c0        	memw
400d3385:	0338      	l32i.n	a3, a3, 0
400d3387:	041456        	bnez	a4, 400d33cc <rtc_clk_init+0xec>
400d338a:	f48030        	extui	a8, a3, 0, 16
400d338d:	f54030        	extui	a4, a3, 16, 16
400d3390:	109847        	bne	a8, a4, 400d33a4 <rtc_clk_init+0xc4>
400d3393:	330b      	addi.n	a3, a3, -1
400d3395:	d47c      	movi.n	a4, -3
400d3397:	093437        	bltu	a4, a3, 400d33a4 <rtc_clk_init+0xc4>
400d339a:	ff58a5        	call8	400d2924 <rtc_clk_xtal_freq_get>
400d339d:	0a3d      	mov.n	a3, a10
400d339f:	001ac6        	j	400d340e <rtc_clk_init+0x12e>
400d33a2:	00          	.byte 00
400d33a3:	00          	.byte 00
400d33a4:	ffe6e5        	call8	400d3214 <rtc_clk_xtal_freq_estimate>
400d33a7:	203aa0        	or	a3, a10, a10
400d33aa:	060a56        	bnez	a10, 400d340e <rtc_clk_init+0x12e>
400d33ad:	f35831        	l32r	a3, 400d0110 <_image_irom_vaddr+0xf0> (3ffb0008 <esp_log_default_level>)
400d33b0:	002332        	l32i	a3, a3, 0
400d33b3:	5523b6        	bltui	a3, 2, 400d340c <rtc_clk_init+0x12c>
400d33b6:	af5525        	call8	40082908 <esp_log_early_timestamp>
400d33b9:	20baa0        	or	a11, a10, a10
400d33bc:	f3b2c1        	l32r	a12, 400d0284 <_image_irom_vaddr+0x264> (3f400ec0 <CSWTCH$47+0x58>)
400d33bf:	f3baa1        	l32r	a10, 400d02a8 <_image_irom_vaddr+0x288> (3f400f82 <CSWTCH$47+0x11a>)
400d33c2:	f35681        	l32r	a8, 400d011c <_image_irom_vaddr+0xfc> (40007d54 <esp_rom_printf>)
400d33c5:	0008e0        	callx8	a8
400d33c8:	001006        	j	400d340c <rtc_clk_init+0x12c>
400d33cb:	00          	.byte 00
400d33cc:	f49030        	extui	a9, a3, 0, 16
400d33cf:	f58030        	extui	a8, a3, 16, 16
400d33d2:	0b9987        	bne	a9, a8, 400d33e1 <rtc_clk_init+0x101>
400d33d5:	330b      	addi.n	a3, a3, -1
400d33d7:	d87c      	movi.n	a8, -3
400d33d9:	043837        	bltu	a8, a3, 400d33e1 <rtc_clk_init+0x101>
400d33dc:	043d      	mov.n	a3, a4
400d33de:	000b06        	j	400d340e <rtc_clk_init+0x12e>
400d33e1:	ffe325        	call8	400d3214 <rtc_clk_xtal_freq_estimate>
400d33e4:	203aa0        	or	a3, a10, a10
400d33e7:	2314a7        	beq	a4, a10, 400d340e <rtc_clk_init+0x12e>
400d33ea:	f34981        	l32r	a8, 400d0110 <_image_irom_vaddr+0xf0> (3ffb0008 <esp_log_default_level>)
400d33ed:	002882        	l32i	a8, a8, 0
400d33f0:	e828b6        	bltui	a8, 2, 400d33dc <rtc_clk_init+0xfc>
400d33f3:	af5165        	call8	40082908 <esp_log_early_timestamp>
400d33f6:	0abd      	mov.n	a11, a10
400d33f8:	f3a3c1        	l32r	a12, 400d0284 <_image_irom_vaddr+0x264> (3f400ec0 <CSWTCH$47+0x58>)
400d33fb:	f3aca1        	l32r	a10, 400d02ac <_image_irom_vaddr+0x28c> (3f400fbc <CSWTCH$47+0x154>)
400d33fe:	03ed      	mov.n	a14, a3
400d3400:	04dd      	mov.n	a13, a4
400d3402:	f34681        	l32r	a8, 400d011c <_image_irom_vaddr+0xfc> (40007d54 <esp_rom_printf>)
400d3405:	0008e0        	callx8	a8
400d3408:	fff406        	j	400d33dc <rtc_clk_init+0xfc>
400d340b:	00          	.byte 00
400d340c:	a31c      	movi.n	a3, 26
400d340e:	0a0c      	movi.n	a10, 0
400d3410:	f3ab81        	l32r	a8, 400d02bc <_image_irom_vaddr+0x29c> (40009278 <esp_rom_uart_tx_wait_idle>)
400d3413:	0008e0        	callx8	a8
400d3416:	03ad      	mov.n	a10, a3
400d3418:	ff61a5        	call8	400d2a34 <rtc_clk_xtal_freq_update>
400d341b:	f368a1        	l32r	a10, 400d01bc <_image_irom_vaddr+0x19c> (f4240 <CONFIG_ESP_HEAP_MEM_POOL_REGION_1_SIZE+0xe8240>)
400d341e:	82a3a0        	mull	a10, a3, a10
400d3421:	ff63e5        	call8	400d2a60 <rtc_clk_apb_freq_update>
400d3424:	10c1a2        	addi	a10, a1, 16
400d3427:	ff57e5        	call8	400d29a4 <rtc_clk_cpu_freq_get_config>
400d342a:	01bd      	mov.n	a11, a1
400d342c:	02ad      	mov.n	a10, a2
400d342e:	072142        	l32i	a4, a1, 28
400d3431:	ff51a5        	call8	400d294c <rtc_clk_cpu_freq_mhz_to_config>
400d3434:	eadc      	bnez.n	a10, 400d3456 <rtc_clk_init+0x176>
400d3436:	f33681        	l32r	a8, 400d0110 <_image_irom_vaddr+0xf0> (3ffb0008 <esp_log_default_level>)
400d3439:	002882        	l32i	a8, a8, 0
400d343c:	010816        	beqz	a8, 400d3450 <rtc_clk_init+0x170>
400d343f:	af4ca5        	call8	40082908 <esp_log_early_timestamp>
400d3442:	0abd      	mov.n	a11, a10
400d3444:	f390c1        	l32r	a12, 400d0284 <_image_irom_vaddr+0x264> (3f400ec0 <CSWTCH$47+0x58>)
400d3447:	f39aa1        	l32r	a10, 400d02b0 <_image_irom_vaddr+0x290> (3f401012 <CSWTCH$47+0x1aa>)
400d344a:	f33481        	l32r	a8, 400d011c <_image_irom_vaddr+0xfc> (40007d54 <esp_rom_printf>)
400d344d:	0008e0        	callx8	a8
400d3450:	201110        	or	a1, a1, a1
400d3453:	003b25        	call8	400d3804 <abort>
400d3456:	20a110        	or	a10, a1, a1
400d3459:	ff6965        	call8	400d2af0 <rtc_clk_cpu_freq_set_config>
400d345c:	f35781        	l32r	a8, 400d01b8 <_image_irom_vaddr+0x198> (3ff66004 <SYSCON+0x4>)
400d345f:	ffc332        	addi	a3, a3, -1
400d3462:	0020c0        	memw
400d3465:	0839      	s32i.n	a3, a8, 0
400d3467:	f39331        	l32r	a3, 400d02b4 <_image_irom_vaddr+0x294> (3ff66008 <SYSCON+0x8>)
400d346a:	f84c      	movi.n	a8, 79
400d346c:	0020c0        	memw
400d346f:	0389      	s32i.n	a8, a3, 0
400d3471:	03eaa0        	rsr.ccount	a10
400d3474:	a2b2a0        	muluh	a11, a2, a10
400d3477:	82a2a0        	mull	a10, a2, a10
400d347a:	04cd      	mov.n	a12, a4
400d347c:	0d0c      	movi.n	a13, 0
400d347e:	f32981        	l32r	a8, 400d0124 <_image_irom_vaddr+0x104> (4000cff8 <__udivdi3>)
400d3481:	0008e0        	callx8	a8
400d3484:	13eaa0        	wsr.ccount	a10
400d3487:	f38c41        	l32r	a4, 400d02b8 <_image_irom_vaddr+0x298> (fffc00ff <_rtc_bss_end+0xaffc00ff>)
400d348a:	113280        	slli	a3, a2, 8
400d348d:	8128      	l32i.n	a2, a1, 32
400d348f:	102240        	and	a2, a2, a4
400d3492:	202230        	or	a2, a2, a3
400d3495:	330c      	movi.n	a3, 3
400d3497:	0133d0        	slli	a3, a3, 19
400d349a:	140c      	movi.n	a4, 1
400d349c:	8129      	s32i.n	a2, a1, 32
400d349e:	103230        	and	a3, a2, a3
400d34a1:	0144d0        	slli	a4, a4, 19
400d34a4:	059347        	bne	a3, a4, 400d34ad <rtc_clk_init+0x1cd>
400d34a7:	01a0a2        	movi	a10, 1
400d34aa:	ff1725        	call8	400d261c <rtc_clk_32k_enable>
400d34ad:	137227        	bbci	a2, 18, 400d34c4 <rtc_clk_init+0x1e4>
400d34b0:	ffaf22        	movi	a2, -1
400d34b3:	0122c0        	slli	a2, a2, 20
400d34b6:	332a      	add.n	a3, a3, a2
400d34b8:	01a0a2        	movi	a10, 1
400d34bb:	00a0b2        	movi	a11, 0
400d34be:	83ba30        	moveqz	a11, a10, a3
400d34c1:	ff1965        	call8	400d2658 <rtc_clk_8m_enable>
400d34c4:	81a8      	l32i.n	a10, a1, 32
400d34c6:	05a2a0        	extui	a10, a10, 18, 1
400d34c9:	ff29a5        	call8	400d2764 <rtc_clk_fast_freq_set>
400d34cc:	81a8      	l32i.n	a10, a1, 32
400d34ce:	15a3a0        	extui	a10, a10, 19, 2
400d34d1:	ff23a5        	call8	400d270c <rtc_clk_slow_freq_set>
400d34d4:	f01d      	retw.n
	...

400d34d8 <esp_timer_early_init>:
400d34d8:	004136        	entry	a1, 32
400d34db:	0000a5        	call8	400d34e4 <esp_timer_impl_early_init>
400d34de:	020c      	movi.n	a2, 0
400d34e0:	f01d      	retw.n
	...

400d34e4 <esp_timer_impl_early_init>:
400d34e4:	004136        	entry	a1, 32
400d34e7:	8a0c      	movi.n	a10, 8
400d34e9:	0016a5        	call8	400d3654 <periph_module_enable>
400d34ec:	f37581        	l32r	a8, 400d02c0 <_image_irom_vaddr+0x2a0> (3ff5f070 <SENS+0x16870>)
400d34ef:	020c      	movi.n	a2, 0
400d34f1:	f37491        	l32r	a9, 400d02c4 <_image_irom_vaddr+0x2a4> (3ff5f08c <SENS+0x1688c>)
400d34f4:	0020c0        	memw
400d34f7:	0829      	s32i.n	a2, a8, 0
400d34f9:	0020c0        	memw
400d34fc:	0929      	s32i.n	a2, a9, 0
400d34fe:	f37291        	l32r	a9, 400d02c8 <_image_irom_vaddr+0x2a8> (3ff5f090 <SENS+0x16890>)
400d3501:	f372a1        	l32r	a10, 400d02cc <_image_irom_vaddr+0x2ac> (3ff5f084 <SENS+0x16884>)
400d3504:	0020c0        	memw
400d3507:	0929      	s32i.n	a2, a9, 0
400d3509:	f97c      	movi.n	a9, -1
400d350b:	0020c0        	memw
400d350e:	0a99      	s32i.n	a9, a10, 0
400d3510:	f370a1        	l32r	a10, 400d02d0 <_image_irom_vaddr+0x2b0> (3ff5f088 <SENS+0x16888>)
400d3513:	8b0c      	movi.n	a11, 8
400d3515:	0020c0        	memw
400d3518:	0a99      	s32i.n	a9, a10, 0
400d351a:	f36e91        	l32r	a9, 400d02d4 <_image_irom_vaddr+0x2b4> (3ff5f094 <SENS+0x16894>)
400d351d:	1a0c      	movi.n	a10, 1
400d351f:	0020c0        	memw
400d3522:	09a9      	s32i.n	a10, a9, 0
400d3524:	f36da1        	l32r	a10, 400d02d8 <_image_irom_vaddr+0x2b8> (3ff5f0a4 <SENS+0x168a4>)
400d3527:	0020c0        	memw
400d352a:	0a98      	l32i.n	a9, a10, 0
400d352c:	2099b0        	or	a9, a9, a11
400d352f:	0020c0        	memw
400d3532:	0a99      	s32i.n	a9, a10, 0
400d3534:	0020c0        	memw
400d3537:	0898      	l32i.n	a9, a8, 0
400d3539:	f368a1        	l32r	a10, 400d02dc <_image_irom_vaddr+0x2bc> (e0001fff <_rtc_bss_end+0x90001fff>)
400d353c:	1099a0        	and	a9, a9, a10
400d353f:	5a0c      	movi.n	a10, 5
400d3541:	11aa00        	slli	a10, a10, 16
400d3544:	2099a0        	or	a9, a9, a10
400d3547:	0020c0        	memw
400d354a:	0899      	s32i.n	a9, a8, 0
400d354c:	0020c0        	memw
400d354f:	0898      	l32i.n	a9, a8, 0
400d3551:	f363a1        	l32r	a10, 400d02e0 <_image_irom_vaddr+0x2c0> (c0000800 <_rtc_bss_end+0x70000800>)
400d3554:	2099a0        	or	a9, a9, a10
400d3557:	0020c0        	memw
400d355a:	0899      	s32i.n	a9, a8, 0
400d355c:	f01d      	retw.n
	...

400d3560 <periph_ll_get_rst_en_mask>:
400d3560:	004136        	entry	a1, 32
400d3563:	082c      	movi.n	a8, 32
400d3565:	02b827        	bgeu	a8, a2, 400d356b <periph_ll_get_rst_en_mask+0xb>
400d3568:	002b86        	j	400d361a <periph_ll_get_rst_en_mask+0xba>
400d356b:	f35e81        	l32r	a8, 400d02e4 <_image_irom_vaddr+0x2c4> (3f4006e0 <rtc_io_num_map+0xa0>)
400d356e:	a02280        	addx4	a2, a2, a8
400d3571:	0228      	l32i.n	a2, a2, 0
400d3573:	0002a0        	jx	a2
400d3576:	120c      	movi.n	a2, 1
400d3578:	112250        	slli	a2, a2, 11
400d357b:	002886        	j	400d3621 <periph_ll_get_rst_en_mask+0xc1>
400d357e:	022c      	movi.n	a2, 32
400d3580:	002746        	j	400d3621 <periph_ll_get_rst_en_mask+0xc1>
400d3583:	420c      	movi.n	a2, 4
400d3585:	002606        	j	400d3621 <periph_ll_get_rst_en_mask+0xc1>
400d3588:	120c      	movi.n	a2, 1
400d358a:	012290        	slli	a2, a2, 23
400d358d:	002406        	j	400d3621 <periph_ll_get_rst_en_mask+0xc1>
400d3590:	80a022        	movi	a2, 128
400d3593:	002286        	j	400d3621 <periph_ll_get_rst_en_mask+0xc1>
400d3596:	120c      	movi.n	a2, 1
400d3598:	0122e0        	slli	a2, a2, 18
400d359b:	002086        	j	400d3621 <periph_ll_get_rst_en_mask+0xc1>
400d359e:	021c      	movi.n	a2, 16
400d35a0:	001f46        	j	400d3621 <periph_ll_get_rst_en_mask+0xc1>
400d35a3:	120c      	movi.n	a2, 1
400d35a5:	0122b0        	slli	a2, a2, 21
400d35a8:	001d46        	j	400d3621 <periph_ll_get_rst_en_mask+0xc1>
400d35ab:	120c      	movi.n	a2, 1
400d35ad:	112230        	slli	a2, a2, 13
400d35b0:	001b46        	j	400d3621 <periph_ll_get_rst_en_mask+0xc1>
400d35b3:	120c      	movi.n	a2, 1
400d35b5:	112210        	slli	a2, a2, 15
400d35b8:	001946        	j	400d3621 <periph_ll_get_rst_en_mask+0xc1>
400d35bb:	120c      	movi.n	a2, 1
400d35bd:	0122f0        	slli	a2, a2, 17
400d35c0:	001746        	j	400d3621 <periph_ll_get_rst_en_mask+0xc1>
400d35c3:	120c      	movi.n	a2, 1
400d35c5:	0122c0        	slli	a2, a2, 20
400d35c8:	001546        	j	400d3621 <periph_ll_get_rst_en_mask+0xc1>
400d35cb:	00a122        	movi	a2, 0x100
400d35ce:	0013c6        	j	400d3621 <periph_ll_get_rst_en_mask+0xc1>
400d35d1:	120c      	movi.n	a2, 1
400d35d3:	112240        	slli	a2, a2, 12
400d35d6:	0011c6        	j	400d3621 <periph_ll_get_rst_en_mask+0xc1>
400d35d9:	00a222        	movi	a2, 0x200
400d35dc:	001046        	j	400d3621 <periph_ll_get_rst_en_mask+0xc1>
400d35df:	00a422        	movi	a2, 0x400
400d35e2:	000ec6        	j	400d3621 <periph_ll_get_rst_en_mask+0xc1>
400d35e5:	024c      	movi.n	a2, 64
400d35e7:	000d86        	j	400d3621 <periph_ll_get_rst_en_mask+0xc1>
400d35ea:	120c      	movi.n	a2, 1
400d35ec:	112200        	slli	a2, a2, 16
400d35ef:	000b86        	j	400d3621 <periph_ll_get_rst_en_mask+0xc1>
400d35f2:	120c      	movi.n	a2, 1
400d35f4:	0122a0        	slli	a2, a2, 22
400d35f7:	000986        	j	400d3621 <periph_ll_get_rst_en_mask+0xc1>
400d35fa:	120c      	movi.n	a2, 1
400d35fc:	0122d0        	slli	a2, a2, 19
400d35ff:	000786        	j	400d3621 <periph_ll_get_rst_en_mask+0xc1>
400d3602:	120c      	movi.n	a2, 1
400d3604:	981c      	movi.n	a8, 25
400d3606:	0000c6        	j	400d360d <periph_ll_get_rst_en_mask+0xad>
400d3609:	220c      	movi.n	a2, 2
400d360b:	a80c      	movi.n	a8, 10
400d360d:	932830        	movnez	a2, a8, a3
400d3610:	000346        	j	400d3621 <periph_ll_get_rst_en_mask+0xc1>
400d3613:	420c      	movi.n	a2, 4
400d3615:	481c      	movi.n	a8, 20
400d3617:	fffc86        	j	400d360d <periph_ll_get_rst_en_mask+0xad>
400d361a:	020c      	movi.n	a2, 0
400d361c:	000046        	j	400d3621 <periph_ll_get_rst_en_mask+0xc1>
400d361f:	220c      	movi.n	a2, 2
400d3621:	f01d      	retw.n
	...

400d3624 <periph_ll_get_rst_en_reg>:
400d3624:	004136        	entry	a1, 32
400d3627:	028d      	mov.n	a8, a2
400d3629:	d21c      	movi.n	a2, 29
400d362b:	163287        	bltu	a2, a8, 400d3645 <periph_ll_get_rst_en_reg+0x21>
400d362e:	691c      	movi.n	a9, 22
400d3630:	f32f21        	l32r	a2, 400d02ec <_image_irom_vaddr+0x2cc> (3ff000d0 <__device_handles_end+0xafec10>)
400d3633:	1a3987        	bltu	a9, a8, 400d3651 <periph_ll_get_rst_en_reg+0x2d>
400d3636:	ecc882        	addi	a8, a8, -20
400d3639:	f32d21        	l32r	a2, 400d02f0 <_image_irom_vaddr+0x2d0> (3ff000c4 <__device_handles_end+0xafec04>)
400d363c:	1128f6        	bgeui	a8, 2, 400d3651 <periph_ll_get_rst_en_reg+0x2d>
400d363f:	f32b21        	l32r	a2, 400d02ec <_image_irom_vaddr+0x2cc> (3ff000d0 <__device_handles_end+0xafec10>)
400d3642:	0002c6        	j	400d3651 <periph_ll_get_rst_en_reg+0x2d>
400d3645:	e2c882        	addi	a8, a8, -30
400d3648:	f32a21        	l32r	a2, 400d02f0 <_image_irom_vaddr+0x2d0> (3ff000c4 <__device_handles_end+0xafec04>)
400d364b:	0238f6        	bgeui	a8, 3, 400d3651 <periph_ll_get_rst_en_reg+0x2d>
400d364e:	f32621        	l32r	a2, 400d02e8 <_image_irom_vaddr+0x2c8> (3ff00020 <__device_handles_end+0xafeb60>)
400d3651:	f01d      	retw.n
	...

400d3654 <periph_module_enable>:
400d3654:	004136        	entry	a1, 32
400d3657:	006350        	rsil	a5, 3
400d365a:	f32931        	l32r	a3, 400d0300 <_image_irom_vaddr+0x2e0> (3ffb1dd0 <periph_spinlock>)
400d365d:	0359      	s32i.n	a5, a3, 0
400d365f:	f32931        	l32r	a3, 400d0304 <_image_irom_vaddr+0x2e4> (3ffb20de <ref_counts>)
400d3662:	432a      	add.n	a4, a3, a2
400d3664:	000442        	l8ui	a4, a4, 0
400d3667:	069456        	bnez	a4, 400d36d4 <periph_module_enable+0x80>
400d366a:	d61c      	movi.n	a6, 29
400d366c:	103627        	bltu	a6, a2, 400d3680 <periph_module_enable+0x2c>
400d366f:	661c      	movi.n	a6, 22
400d3671:	243627        	bltu	a6, a2, 400d3699 <periph_module_enable+0x45>
400d3674:	ecc262        	addi	a6, a2, -20
400d3677:	f31f81        	l32r	a8, 400d02f4 <_image_irom_vaddr+0x2d4> (3ff000c0 <__device_handles_end+0xafec00>)
400d367a:	1e26f6        	bgeui	a6, 2, 400d369c <periph_module_enable+0x48>
400d367d:	000606        	j	400d3699 <periph_module_enable+0x45>
400d3680:	e2c262        	addi	a6, a2, -30
400d3683:	f31d81        	l32r	a8, 400d02f8 <_image_irom_vaddr+0x2d8> (3ff0001c <__device_handles_end+0xafeb5c>)
400d3686:	1236b6        	bltui	a6, 3, 400d369c <periph_module_enable+0x48>
400d3689:	f31a81        	l32r	a8, 400d02f4 <_image_irom_vaddr+0x2d4> (3ff000c0 <__device_handles_end+0xafec00>)
400d368c:	046d      	mov.n	a6, a4
400d368e:	0020c0        	memw
400d3691:	0898      	l32i.n	a9, a8, 0
400d3693:	000506        	j	400d36ab <periph_module_enable+0x57>
400d3696:	00          	.byte 00
400d3697:	00          	.byte 00
400d3698:	00          	.byte 00
400d3699:	f31881        	l32r	a8, 400d02fc <_image_irom_vaddr+0x2dc> (3ff000cc <__device_handles_end+0xafec0c>)
400d369c:	f31ba1        	l32r	a10, 400d0308 <_image_irom_vaddr+0x2e8> (3f400764 <CSWTCH$6>)
400d369f:	0020c0        	memw
400d36a2:	002892        	l32i	a9, a8, 0
400d36a5:	a0a2a0        	addx4	a10, a2, a10
400d36a8:	002a62        	l32i	a6, a10, 0
400d36ab:	209960        	or	a9, a9, a6
400d36ae:	0020c0        	memw
400d36b1:	0899      	s32i.n	a9, a8, 0
400d36b3:	02ad      	mov.n	a10, a2
400d36b5:	fff6e5        	call8	400d3624 <periph_ll_get_rst_en_reg>
400d36b8:	0020c0        	memw
400d36bb:	0a78      	l32i.n	a7, a10, 0
400d36bd:	0a6d      	mov.n	a6, a10
400d36bf:	1b0c      	movi.n	a11, 1
400d36c1:	02ad      	mov.n	a10, a2
400d36c3:	ffe9e5        	call8	400d3560 <periph_ll_get_rst_en_mask>
400d36c6:	f87c      	movi.n	a8, -1
400d36c8:	30a8a0        	xor	a10, a8, a10
400d36cb:	10aa70        	and	a10, a10, a7
400d36ce:	0020c0        	memw
400d36d1:	0066a2        	s32i	a10, a6, 0
400d36d4:	332a      	add.n	a3, a3, a2
400d36d6:	441b      	addi.n	a4, a4, 1
400d36d8:	004342        	s8i	a4, a3, 0
400d36db:	13e650        	wsr.ps	a5
400d36de:	002010        	rsync
400d36e1:	f01d      	retw.n
	...

400d36e4 <periph_module_disable>:
400d36e4:	004136        	entry	a1, 32
400d36e7:	006330        	rsil	a3, 3
400d36ea:	f30681        	l32r	a8, 400d0304 <_image_irom_vaddr+0x2e4> (3ffb20de <ref_counts>)
400d36ed:	f30441        	l32r	a4, 400d0300 <_image_irom_vaddr+0x2e0> (3ffb1dd0 <periph_spinlock>)
400d36f0:	882a      	add.n	a8, a8, a2
400d36f2:	000892        	l8ui	a9, a8, 0
400d36f5:	0439      	s32i.n	a3, a4, 0
400d36f7:	990b      	addi.n	a9, a9, -1
400d36f9:	749090        	extui	a9, a9, 0, 8
400d36fc:	004892        	s8i	a9, a8, 0
400d36ff:	061956        	bnez	a9, 400d3764 <periph_module_disable+0x80>
400d3702:	d41c      	movi.n	a4, 29
400d3704:	103427        	bltu	a4, a2, 400d3718 <periph_module_disable+0x34>
400d3707:	641c      	movi.n	a4, 22
400d3709:	1f3427        	bltu	a4, a2, 400d372c <periph_module_disable+0x48>
400d370c:	ecc242        	addi	a4, a2, -20
400d370f:	f2f981        	l32r	a8, 400d02f4 <_image_irom_vaddr+0x2d4> (3ff000c0 <__device_handles_end+0xafec00>)
400d3712:	1924f6        	bgeui	a4, 2, 400d372f <periph_module_disable+0x4b>
400d3715:	0004c6        	j	400d372c <periph_module_disable+0x48>
400d3718:	e2c242        	addi	a4, a2, -30
400d371b:	f2f781        	l32r	a8, 400d02f8 <_image_irom_vaddr+0x2d8> (3ff0001c <__device_handles_end+0xafeb5c>)
400d371e:	0d34b6        	bltui	a4, 3, 400d372f <periph_module_disable+0x4b>
400d3721:	f2f481        	l32r	a8, 400d02f4 <_image_irom_vaddr+0x2d4> (3ff000c0 <__device_handles_end+0xafec00>)
400d3724:	0020c0        	memw
400d3727:	08b8      	l32i.n	a11, a8, 0
400d3729:	0003c6        	j	400d373c <periph_module_disable+0x58>
400d372c:	f2f481        	l32r	a8, 400d02fc <_image_irom_vaddr+0x2dc> (3ff000cc <__device_handles_end+0xafec0c>)
400d372f:	f2f641        	l32r	a4, 400d0308 <_image_irom_vaddr+0x2e8> (3f400764 <CSWTCH$6>)
400d3732:	0020c0        	memw
400d3735:	08b8      	l32i.n	a11, a8, 0
400d3737:	a04240        	addx4	a4, a2, a4
400d373a:	0498      	l32i.n	a9, a4, 0
400d373c:	fa7c      	movi.n	a10, -1
400d373e:	309a90        	xor	a9, a10, a9
400d3741:	1099b0        	and	a9, a9, a11
400d3744:	0020c0        	memw
400d3747:	0899      	s32i.n	a9, a8, 0
400d3749:	02ad      	mov.n	a10, a2
400d374b:	ffeda5        	call8	400d3624 <periph_ll_get_rst_en_reg>
400d374e:	0020c0        	memw
400d3751:	0a48      	l32i.n	a4, a10, 0
400d3753:	0a5d      	mov.n	a5, a10
400d3755:	0b0c      	movi.n	a11, 0
400d3757:	02ad      	mov.n	a10, a2
400d3759:	ffe065        	call8	400d3560 <periph_ll_get_rst_en_mask>
400d375c:	20a4a0        	or	a10, a4, a10
400d375f:	0020c0        	memw
400d3762:	05a9      	s32i.n	a10, a5, 0
400d3764:	13e630        	wsr.ps	a3
400d3767:	002010        	rsync
400d376a:	f01d      	retw.n

400d376c <interrupt_controller_hal_desc_type>:
400d376c:	004136        	entry	a1, 32
400d376f:	0003e5        	call8	400d37ac <interrupt_controller_hal_desc_table>
400d3772:	1122c0        	slli	a2, a2, 4
400d3775:	802a20        	add	a2, a10, a2
400d3778:	012222        	l32i	a2, a2, 4
400d377b:	000090        	retw
	...

400d3780 <interrupt_controller_hal_desc_level>:
400d3780:	004136        	entry	a1, 32
400d3783:	0002a5        	call8	400d37ac <interrupt_controller_hal_desc_table>
400d3786:	1122c0        	slli	a2, a2, 4
400d3789:	802a20        	add	a2, a10, a2
400d378c:	002222        	l32i	a2, a2, 0
400d378f:	000090        	retw
	...

400d3794 <interrupt_controller_hal_desc_flags>:
400d3794:	004136        	entry	a1, 32
400d3797:	000165        	call8	400d37ac <interrupt_controller_hal_desc_table>
400d379a:	1122c0        	slli	a2, a2, 4
400d379d:	802a20        	add	a2, a10, a2
400d37a0:	a03320        	addx4	a3, a3, a2
400d37a3:	022322        	l32i	a2, a3, 8
400d37a6:	000090        	retw
400d37a9:	000000        	ill

400d37ac <interrupt_controller_hal_desc_table>:
400d37ac:	004136        	entry	a1, 32
400d37af:	f2d721        	l32r	a2, 400d030c <_image_irom_vaddr+0x2ec> (3f4007e8 <interrupt_descriptor_table>)
400d37b2:	f01d      	retw.n

400d37b4 <z_esp_aligned_alloc$constprop$0>:
400d37b4:	004136        	entry	a1, 32
400d37b7:	c24b      	addi.n	a12, a2, 4
400d37b9:	04bc27        	bgeu	a12, a2, 400d37c1 <z_esp_aligned_alloc$constprop$0+0xd>
400d37bc:	020c      	movi.n	a2, 0
400d37be:	000546        	j	400d37d7 <z_esp_aligned_alloc$constprop$0+0x23>
400d37c1:	f2d321        	l32r	a2, 400d0310 <_image_irom_vaddr+0x2f0> (3ffb0790 <_internal_heap_1>)
400d37c4:	0e0c      	movi.n	a14, 0
400d37c6:	0efd      	mov.n	a15, a14
400d37c8:	4b0c      	movi.n	a11, 4
400d37ca:	20a220        	or	a10, a2, a2
400d37cd:	ade0e5        	call8	400815dc <k_heap_aligned_alloc>
400d37d0:	fe8a16        	beqz	a10, 400d37bc <z_esp_aligned_alloc$constprop$0+0x8>
400d37d3:	0a29      	s32i.n	a2, a10, 0
400d37d5:	2a4b      	addi.n	a2, a10, 4
400d37d7:	f01d      	retw.n
400d37d9:	000000        	ill

400d37dc <__wrap_k_malloc>:
400d37dc:	004136        	entry	a1, 32
400d37df:	20a220        	or	a10, a2, a2
400d37e2:	aef1a5        	call8	400826fc <k_malloc>
400d37e5:	005a56        	bnez	a10, 400d37ee <__wrap_k_malloc+0x12>
400d37e8:	20a220        	or	a10, a2, a2
400d37eb:	fffca5        	call8	400d37b4 <z_esp_aligned_alloc$constprop$0>
400d37ee:	0a2d      	mov.n	a2, a10
400d37f0:	f01d      	retw.n
	...

400d37f4 <arch_irq_connect_dynamic>:
400d37f4:	004136        	entry	a1, 32
400d37f7:	f2c781        	l32r	a8, 400d0314 <_image_irom_vaddr+0x2f4> (3ffb064c <_sw_isr_table>)
400d37fa:	b08280        	addx8	a8, a2, a8
400d37fd:	0859      	s32i.n	a5, a8, 0
400d37ff:	1849      	s32i.n	a4, a8, 4
400d3801:	f01d      	retw.n
	...

400d3804 <abort>:
400d3804:	004136        	entry	a1, 32
400d3807:	f2c4a1        	l32r	a10, 400d0318 <_image_irom_vaddr+0x2f8> (3f40105e <CSWTCH$47+0x1f6>)
400d380a:	b013a5        	call8	40083944 <printk>
400d380d:	04a0a2        	movi	a10, 4
400d3810:	ad1da5        	call8	400809ec <xtensa_arch_except>
400d3813:	000090        	retw
	...

400d3818 <z_impl_zephyr_fputc>:
400d3818:	004136        	entry	a1, 32
400d381b:	fec332        	addi	a3, a3, -2
400d381e:	02ad      	mov.n	a10, a2
400d3820:	f27c      	movi.n	a2, -1
400d3822:	0a23f6        	bgeui	a3, 2, 400d3830 <z_impl_zephyr_fputc+0x18>
400d3825:	f2bd81        	l32r	a8, 400d031c <_image_irom_vaddr+0x2fc> (3ffb000c <_stdout_hook>)
400d3828:	002882        	l32i	a8, a8, 0
400d382b:	0008e0        	callx8	a8
400d382e:	0a2d      	mov.n	a2, a10
400d3830:	f01d      	retw.n
	...

400d3834 <fputc>:
400d3834:	004136        	entry	a1, 32
400d3837:	20a220        	or	a10, a2, a2
400d383a:	20b330        	or	a11, a3, a3
400d383d:	fffda5        	call8	400d3818 <z_impl_zephyr_fputc>
400d3840:	202aa0        	or	a2, a10, a10
400d3843:	f01d      	retw.n
400d3845:	000000        	ill

400d3848 <printf>:
400d3848:	00e136        	entry	a1, 112
400d384b:	00a082        	movi	a8, 0
400d384e:	f2b4a1        	l32r	a10, 400d0320 <_image_irom_vaddr+0x300> (400d3834 <fputc>)
400d3851:	30c1e2        	addi	a14, a1, 48
400d3854:	50c1d2        	addi	a13, a1, 80
400d3857:	04a0f2        	movi	a15, 4
400d385a:	20c220        	or	a12, a2, a2
400d385d:	d139      	s32i.n	a3, a1, 52
400d385f:	e149      	s32i.n	a4, a1, 56
400d3861:	f159      	s32i.n	a5, a1, 60
400d3863:	106162        	s32i	a6, a1, 64
400d3866:	116172        	s32i	a7, a1, 68
400d3869:	0189      	s32i.n	a8, a1, 0
400d386b:	2b0c      	movi.n	a11, 2
400d386d:	81e9      	s32i.n	a14, a1, 32
400d386f:	71d9      	s32i.n	a13, a1, 28
400d3871:	91f9      	s32i.n	a15, a1, 36
400d3873:	41d9      	s32i.n	a13, a1, 16
400d3875:	51e9      	s32i.n	a14, a1, 20
400d3877:	61f9      	s32i.n	a15, a1, 24
400d3879:	af7165        	call8	40082f90 <z_cbvprintf_impl>
400d387c:	0a2d      	mov.n	a2, a10
400d387e:	f01d      	retw.n

400d3880 <esp_intr_lock>:
400d3880:	004136        	entry	a1, 32
400d3883:	006390        	rsil	a9, 3
400d3886:	f2a781        	l32r	a8, 400d0324 <_image_irom_vaddr+0x304> (3ffb1ee4 <esp_intc_csec>)
400d3889:	0899      	s32i.n	a9, a8, 0
400d388b:	f01d      	retw.n
400d388d:	000000        	ill

400d3890 <esp_intr_unlock>:
400d3890:	004136        	entry	a1, 32
400d3893:	f2a481        	l32r	a8, 400d0324 <_image_irom_vaddr+0x304> (3ffb1ee4 <esp_intc_csec>)
400d3896:	0888      	l32i.n	a8, a8, 0
400d3898:	13e680        	wsr.ps	a8
400d389b:	002010        	rsync
400d389e:	f01d      	retw.n

400d38a0 <find_desc_for_int>:
400d38a0:	004136        	entry	a1, 32
400d38a3:	f2a181        	l32r	a8, 400d0328 <_image_irom_vaddr+0x308> (3ffb1de0 <vector_desc_head>)
400d38a6:	0888      	l32i.n	a8, a8, 0
400d38a8:	000406        	j	400d38bc <find_desc_for_int+0x1c>
400d38ab:	00          	.byte 00
400d38ac:	0898      	l32i.n	a9, a8, 0
400d38ae:	05a090        	extui	a10, a9, 16, 1
400d38b1:	059a37        	bne	a10, a3, 400d38ba <find_desc_for_int+0x1a>
400d38b4:	459190        	extui	a9, a9, 17, 5
400d38b7:	041927        	beq	a9, a2, 400d38bf <find_desc_for_int+0x1f>
400d38ba:	2888      	l32i.n	a8, a8, 8
400d38bc:	fec856        	bnez	a8, 400d38ac <find_desc_for_int+0xc>
400d38bf:	082d      	mov.n	a2, a8
400d38c1:	f01d      	retw.n
	...

400d38c4 <default_intr_handler>:
400d38c4:	004136        	entry	a1, 32
400d38c7:	02bd      	mov.n	a11, a2
400d38c9:	03ebc0        	rsr.prid	a12
400d38cc:	04cdc0        	extui	a12, a12, 13, 1
400d38cf:	f297a1        	l32r	a10, 400d032c <_image_irom_vaddr+0x30c> (3f401067 <CSWTCH$47+0x1ff>)
400d38d2:	b00725        	call8	40083944 <printk>
400d38d5:	f01d      	retw.n
	...

400d38d8 <is_vect_desc_usable>:
400d38d8:	004136        	entry	a1, 32
400d38db:	002262        	l32i	a6, a2, 0
400d38de:	04bd      	mov.n	a11, a4
400d38e0:	456160        	extui	a6, a6, 17, 5
400d38e3:	06ad      	mov.n	a10, a6
400d38e5:	027d      	mov.n	a7, a2
400d38e7:	ffeae5        	call8	400d3794 <interrupt_controller_hal_desc_flags>
400d38ea:	020c      	movi.n	a2, 0
400d38ec:	029d      	mov.n	a9, a2
400d38ee:	761a26        	beqi	a10, 1, 400d3968 <is_vect_desc_usable+0x90>
400d38f1:	180c      	movi.n	a8, 1
400d38f3:	02bd      	mov.n	a11, a2
400d38f5:	fecaa2        	addi	a10, a10, -2
400d38f8:	558a      	add.n	a5, a5, a8
400d38fa:	83b8a0        	moveqz	a11, a8, a10
400d38fd:	938250        	movnez	a8, a2, a5
400d3900:	102b80        	and	a2, a11, a8
400d3903:	5f9297        	bne	a2, a9, 400d3966 <is_vect_desc_usable+0x8e>
400d3906:	20a660        	or	a10, a6, a6
400d3909:	ffe765        	call8	400d3780 <interrupt_controller_hal_desc_level>
400d390c:	5853a7        	bbc	a3, a10, 400d3968 <is_vect_desc_usable+0x90>
400d390f:	06ad      	mov.n	a10, a6
400d3911:	ffe5a5        	call8	400d376c <interrupt_controller_hal_desc_type>
400d3914:	056397        	bbci	a3, 9, 400d391d <is_vect_desc_usable+0x45>
400d3917:	5acc      	bnez.n	a10, 400d3920 <is_vect_desc_usable+0x48>
400d3919:	0012c6        	j	400d3968 <is_vect_desc_usable+0x90>
400d391c:	00          	.byte 00
400d391d:	471a26        	beqi	a10, 1, 400d3968 <is_vect_desc_usable+0x90>
400d3920:	001792        	l16ui	a9, a7, 0
400d3923:	980c      	movi.n	a8, 9
400d3925:	237980        	sext	a7, a9, 15
400d3928:	108780        	and	a8, a7, a8
400d392b:	238880        	sext	a8, a8, 15
400d392e:	68fc      	bnez.n	a8, 400d3968 <is_vect_desc_usable+0x90>
400d3930:	450c      	movi.n	a5, 4
400d3932:	107750        	and	a7, a7, a5
400d3935:	237780        	sext	a7, a7, 15
400d3938:	279c      	beqz.n	a7, 400d394e <is_vect_desc_usable+0x76>
400d393a:	2a6387        	bbci	a3, 8, 400d3968 <is_vect_desc_usable+0x90>
400d393d:	043a30        	extui	a3, a3, 10, 1
400d3940:	049190        	extui	a9, a9, 1, 1
400d3943:	c03390        	sub	a3, a3, a9
400d3946:	120c      	movi.n	a2, 1
400d3948:	932830        	movnez	a2, a8, a3
400d394b:	000646        	j	400d3968 <is_vect_desc_usable+0x90>
400d394e:	f27821        	l32r	a2, 400d0330 <_image_irom_vaddr+0x310> (3ffb1de4 <intr_alloc_table>)
400d3951:	664a      	add.n	a6, a6, a4
400d3953:	b06620        	addx8	a6, a6, a2
400d3956:	0638      	l32i.n	a3, a6, 0
400d3958:	f27721        	l32r	a2, 400d0334 <_image_irom_vaddr+0x314> (400d38c4 <default_intr_handler>)
400d395b:	c03320        	sub	a3, a3, a2
400d395e:	120c      	movi.n	a2, 1
400d3960:	932730        	movnez	a2, a7, a3
400d3963:	000046        	j	400d3968 <is_vect_desc_usable+0x90>
400d3966:	092d      	mov.n	a2, a9
400d3968:	f01d      	retw.n
	...

400d396c <get_desc_for_int>:
400d396c:	004136        	entry	a1, 32
400d396f:	20b330        	or	a11, a3, a3
400d3972:	20a220        	or	a10, a2, a2
400d3975:	fff2a5        	call8	400d38a0 <find_desc_for_int>
400d3978:	0a5d      	mov.n	a5, a10
400d397a:	0a4d      	mov.n	a4, a10
400d397c:	075a56        	bnez	a10, 400d39f5 <get_desc_for_int+0x89>
400d397f:	ca0c      	movi.n	a10, 12
400d3981:	ffe5a5        	call8	400d37dc <__wrap_k_malloc>
400d3984:	0a4d      	mov.n	a4, a10
400d3986:	06ba16        	beqz	a10, 400d39f5 <get_desc_for_int+0x89>
400d3989:	cc0c      	movi.n	a12, 12
400d398b:	05bd      	mov.n	a11, a5
400d398d:	b02865        	call8	40083c14 <memset>
400d3990:	0488      	l32i.n	a8, a4, 0
400d3992:	f269a1        	l32r	a10, 400d0338 <_image_irom_vaddr+0x318> (ffc1ffff <_rtc_bss_end+0xafc1ffff>)
400d3995:	449020        	extui	a9, a2, 0, 5
400d3998:	0129f0        	slli	a2, a9, 17
400d399b:	1088a0        	and	a8, a8, a10
400d399e:	208820        	or	a8, a8, a2
400d39a1:	f21c21        	l32r	a2, 400d0214 <_image_irom_vaddr+0x1f4> (fffeffff <_rtc_bss_end+0xaffeffff>)
400d39a4:	04a030        	extui	a10, a3, 0, 1
400d39a7:	113a00        	slli	a3, a10, 16
400d39aa:	108820        	and	a8, a8, a2
400d39ad:	208830        	or	a8, a8, a3
400d39b0:	f25eb1        	l32r	a11, 400d0328 <_image_irom_vaddr+0x308> (3ffb1de0 <vector_desc_head>)
400d39b3:	0489      	s32i.n	a8, a4, 0
400d39b5:	0bc8      	l32i.n	a12, a11, 0
400d39b7:	0c8d      	mov.n	a8, a12
400d39b9:	000646        	j	400d39d6 <get_desc_for_int+0x6a>
400d39bc:	0828      	l32i.n	a2, a8, 0
400d39be:	053020        	extui	a3, a2, 16, 1
400d39c1:	143a37        	bltu	a10, a3, 400d39d9 <get_desc_for_int+0x6d>
400d39c4:	0438      	l32i.n	a3, a4, 0
400d39c6:	303230        	xor	a3, a2, a3
400d39c9:	05f307        	bbsi	a3, 16, 400d39d2 <get_desc_for_int+0x66>
400d39cc:	452120        	extui	a2, a2, 17, 5
400d39cf:	06b297        	bgeu	a2, a9, 400d39d9 <get_desc_for_int+0x6d>
400d39d2:	085d      	mov.n	a5, a8
400d39d4:	2888      	l32i.n	a8, a8, 8
400d39d6:	fe2856        	bnez	a8, 400d39bc <get_desc_for_int+0x50>
400d39d9:	120c      	movi.n	a2, 1
400d39db:	030c      	movi.n	a3, 0
400d39dd:	833250        	moveqz	a3, a2, a5
400d39e0:	749030        	extui	a9, a3, 0, 8
400d39e3:	33cc      	bnez.n	a3, 400d39ea <get_desc_for_int+0x7e>
400d39e5:	9329c0        	movnez	a2, a9, a12
400d39e8:	528c      	beqz.n	a2, 400d39f1 <get_desc_for_int+0x85>
400d39ea:	2489      	s32i.n	a8, a4, 8
400d39ec:	0b49      	s32i.n	a4, a11, 0
400d39ee:	0000c6        	j	400d39f5 <get_desc_for_int+0x89>
400d39f1:	2549      	s32i.n	a4, a5, 8
400d39f3:	2489      	s32i.n	a8, a4, 8
400d39f5:	042d      	mov.n	a2, a4
400d39f7:	f01d      	retw.n
400d39f9:	000000        	ill

400d39fc <set_interrupt_handler>:
400d39fc:	004136        	entry	a1, 32
400d39ff:	01a052        	movi	a5, 1
400d3a02:	401200        	ssl	a2
400d3a05:	a15500        	sll	a5, a5
400d3a08:	20a550        	or	a10, a5, a5
400d3a0b:	0102a5        	call8	400d4a34 <z_xt_ints_off>
400d3a0e:	f24881        	l32r	a8, 400d0330 <_image_irom_vaddr+0x310> (3ffb1de4 <intr_alloc_table>)
400d3a11:	0e0c      	movi.n	a14, 0
400d3a13:	b08280        	addx8	a8, a2, a8
400d3a16:	04dd      	mov.n	a13, a4
400d3a18:	03cd      	mov.n	a12, a3
400d3a1a:	02bd      	mov.n	a11, a2
400d3a1c:	02ad      	mov.n	a10, a2
400d3a1e:	0839      	s32i.n	a3, a8, 0
400d3a20:	ffdd25        	call8	400d37f4 <arch_irq_connect_dynamic>
400d3a23:	05ad      	mov.n	a10, a5
400d3a25:	00ffa5        	call8	400d4a20 <z_xt_ints_on>
400d3a28:	f01d      	retw.n
	...

400d3a2c <esp_intr_initialize>:
400d3a2c:	004136        	entry	a1, 32
400d3a2f:	f24081        	l32r	a8, 400d0330 <_image_irom_vaddr+0x310> (3ffb1de4 <intr_alloc_table>)
400d3a32:	f240b1        	l32r	a11, 400d0334 <_image_irom_vaddr+0x314> (400d38c4 <default_intr_handler>)
400d3a35:	0a0c      	movi.n	a10, 0
400d3a37:	092c      	movi.n	a9, 32
400d3a39:	078976        	loop	a9, 400d3a44 <esp_intr_initialize+0x18>
400d3a3c:	18a9      	s32i.n	a10, a8, 4
400d3a3e:	08b9      	s32i.n	a11, a8, 0
400d3a40:	aa1b      	addi.n	a10, a10, 1
400d3a42:	888b      	addi.n	a8, a8, 8
400d3a44:	f01d      	retw.n
	...

400d3a48 <esp_intr_alloc_intrstatus>:
400d3a48:	00c136        	entry	a1, 96
400d3a4b:	9159      	s32i.n	a5, a1, 36
400d3a4d:	00a352        	movi	a5, 0x300
400d3a50:	8149      	s32i.n	a4, a1, 32
400d3a52:	5169      	s32i.n	a6, a1, 20
400d3a54:	a179      	s32i.n	a7, a1, 40
400d3a56:	106350        	and	a6, a3, a5
400d3a59:	a46c      	movi.n	a4, -22
400d3a5b:	029657        	bne	a6, a5, 400d3a61 <esp_intr_alloc_intrstatus+0x19>
400d3a5e:	00d4c6        	j	400d3db5 <esp_intr_alloc_intrstatus+0x36d>
400d3a61:	f0a042        	movi	a4, 240
400d3a64:	104340        	and	a4, a3, a4
400d3a67:	149c      	beqz.n	a4, 400d3a7c <esp_intr_alloc_intrstatus+0x34>
400d3a69:	5158      	l32i.n	a5, a1, 20
400d3a6b:	a46c      	movi.n	a4, -22
400d3a6d:	344556        	bnez	a5, 400d3db5 <esp_intr_alloc_intrstatus+0x36d>
400d3a70:	00a152        	movi	a5, 0x100
400d3a73:	105350        	and	a5, a3, a5
400d3a76:	33b556        	bnez	a5, 400d3db5 <esp_intr_alloc_intrstatus+0x36d>
400d3a79:	000506        	j	400d3a91 <esp_intr_alloc_intrstatus+0x49>
400d3a7c:	00a152        	movi	a5, 0x100
400d3a7f:	105350        	and	a5, a3, a5
400d3a82:	b58c      	beqz.n	a5, 400d3a91 <esp_intr_alloc_intrstatus+0x49>
400d3a84:	5188      	l32i.n	a8, a1, 20
400d3a86:	160c      	movi.n	a6, 1
400d3a88:	834680        	moveqz	a4, a6, a8
400d3a8b:	2fa456        	bnez	a4, 400d3d89 <esp_intr_alloc_intrstatus+0x341>
400d3a8e:	2f7296        	bltz	a2, 400d3d89 <esp_intr_alloc_intrstatus+0x341>
400d3a91:	8148      	l32i.n	a4, a1, 32
400d3a93:	548c      	beqz.n	a4, 400d3a9c <esp_intr_alloc_intrstatus+0x54>
400d3a95:	9188      	l32i.n	a8, a1, 36
400d3a97:	a46c      	movi.n	a4, -22
400d3a99:	318816        	beqz	a8, 400d3db5 <esp_intr_alloc_intrstatus+0x36d>
400d3a9c:	1163a7        	bbci	a3, 10, 400d3ab1 <esp_intr_alloc_intrstatus+0x69>
400d3a9f:	5148      	l32i.n	a4, a1, 20
400d3aa1:	f22661        	l32r	a6, 400d033c <_image_irom_vaddr+0x31c> (bff3e000 <_rtc_bss_end+0x6ff3e000>)
400d3aa4:	f22771        	l32r	a7, 400d0340 <_image_irom_vaddr+0x320> (ff3dfff <CONFIG_SYS_CLOCK_HW_CYCLES_PER_SEC+0x1a5c3ff>)
400d3aa7:	646a      	add.n	a6, a4, a6
400d3aa9:	a46c      	movi.n	a4, -22
400d3aab:	023767        	bltu	a7, a6, 400d3ab1 <esp_intr_alloc_intrstatus+0x69>
400d3aae:	00c0c6        	j	400d3db5 <esp_intr_alloc_intrstatus+0x36d>
400d3ab1:	fea042        	movi	a4, 254
400d3ab4:	088347        	bany	a3, a4, 400d3ac0 <esp_intr_alloc_intrstatus+0x78>
400d3ab7:	240c      	movi.n	a4, 2
400d3ab9:	05cc      	bnez.n	a5, 400d3abd <esp_intr_alloc_intrstatus+0x75>
400d3abb:	e40c      	movi.n	a4, 14
400d3abd:	203340        	or	a3, a3, a4
400d3ac0:	06c252        	addi	a5, a2, 6
400d3ac3:	f47c      	movi.n	a4, -1
400d3ac5:	0a65f6        	bgeui	a5, 6, 400d3ad3 <esp_intr_alloc_intrstatus+0x8b>
400d3ac8:	f21f41        	l32r	a4, 400d0344 <_image_irom_vaddr+0x324> (3f40108a <CSWTCH$269>)
400d3acb:	445a      	add.n	a4, a4, a5
400d3acd:	000442        	l8ui	a4, a4, 0
400d3ad0:	234400        	sext	a4, a4, 7
400d3ad3:	8a0c      	movi.n	a10, 8
400d3ad5:	ffd065        	call8	400d37dc <__wrap_k_malloc>
400d3ad8:	41a9      	s32i.n	a10, a1, 16
400d3ada:	2a6a16        	beqz	a10, 400d3d84 <esp_intr_alloc_intrstatus+0x33c>
400d3add:	ffda25        	call8	400d3880 <esp_intr_lock>
400d3ae0:	03eb50        	rsr.prid	a5
400d3ae3:	045d50        	extui	a5, a5, 13, 1
400d3ae6:	cc0c      	movi.n	a12, 12
400d3ae8:	00a0b2        	movi	a11, 0
400d3aeb:	20a110        	or	a10, a1, a1
400d3aee:	b01265        	call8	40083c14 <memset>
400d3af1:	fea072        	movi	a7, 254
400d3af4:	6139      	s32i.n	a3, a1, 24
400d3af6:	068377        	bany	a3, a7, 400d3b00 <esp_intr_alloc_intrstatus+0xb8>
400d3af9:	e70c      	movi.n	a7, 14
400d3afb:	206370        	or	a6, a3, a7
400d3afe:	6169      	s32i.n	a6, a1, 24
400d3b00:	f20a71        	l32r	a7, 400d0328 <_image_irom_vaddr+0x308> (3ffb1de0 <vector_desc_head>)
400d3b03:	4a0c      	movi.n	a10, 4
400d3b05:	0788      	l32i.n	a8, a7, 0
400d3b07:	001046        	j	400d3b4c <esp_intr_alloc_intrstatus+0x104>
400d3b0a:	00          	.byte 00
400d3b0b:	00          	.byte 00
400d3b0c:	001892        	l16ui	a9, a8, 0
400d3b0f:	0878      	l32i.n	a7, a8, 0
400d3b11:	1099a0        	and	a9, a9, a10
400d3b14:	239980        	sext	a9, a9, 15
400d3b17:	19dc      	bnez.n	a9, 400d3b2c <esp_intr_alloc_intrstatus+0xe4>
400d3b19:	1197e0        	slli	a9, a7, 2
400d3b1c:	319890        	srai	a9, a9, 24
400d3b1f:	279297        	bne	a2, a9, 400d3b4a <esp_intr_alloc_intrstatus+0x102>
400d3b22:	059070        	extui	a9, a7, 16, 1
400d3b25:	219597        	bne	a5, a9, 400d3b4a <esp_intr_alloc_intrstatus+0x102>
400d3b28:	00a006        	j	400d3dac <esp_intr_alloc_intrstatus+0x364>
400d3b2b:	00          	.byte 00
400d3b2c:	059070        	extui	a9, a7, 16, 1
400d3b2f:	179597        	bne	a5, a9, 400d3b4a <esp_intr_alloc_intrstatus+0x102>
400d3b32:	18b8      	l32i.n	a11, a8, 4
400d3b34:	0003c6        	j	400d3b47 <esp_intr_alloc_intrstatus+0xff>
400d3b37:	0b98      	l32i.n	a9, a11, 0
400d3b39:	019990        	slli	a9, a9, 23
400d3b3c:	319890        	srai	a9, a9, 24
400d3b3f:	029297        	bne	a2, a9, 400d3b45 <esp_intr_alloc_intrstatus+0xfd>
400d3b42:	009986        	j	400d3dac <esp_intr_alloc_intrstatus+0x364>
400d3b45:	5bb8      	l32i.n	a11, a11, 20
400d3b47:	fecb56        	bnez	a11, 400d3b37 <esp_intr_alloc_intrstatus+0xef>
400d3b4a:	2888      	l32i.n	a8, a8, 8
400d3b4c:	fbc856        	bnez	a8, 400d3b0c <esp_intr_alloc_intrstatus+0xc4>
400d3b4f:	008ec6        	j	400d3d8e <esp_intr_alloc_intrstatus+0x346>
400d3b52:	00          	.byte 00
400d3b53:	00          	.byte 00
400d3b54:	457170        	extui	a7, a7, 17, 5
400d3b57:	021477        	beq	a4, a7, 400d3b5d <esp_intr_alloc_intrstatus+0x115>
400d3b5a:	003986        	j	400d3c44 <esp_intr_alloc_intrstatus+0x1fc>
400d3b5d:	0621b2        	l32i	a11, a1, 24
400d3b60:	20a880        	or	a10, a8, a8
400d3b63:	0c6182        	s32i	a8, a1, 48
400d3b66:	04dd      	mov.n	a13, a4
400d3b68:	05cd      	mov.n	a12, a5
400d3b6a:	ffd6e5        	call8	400d38d8 <is_vect_desc_usable>
400d3b6d:	c188      	l32i.n	a8, a1, 48
400d3b6f:	0d1a16        	beqz	a10, 400d3c44 <esp_intr_alloc_intrstatus+0x1fc>
400d3b72:	0848      	l32i.n	a4, a8, 0
400d3b74:	000d46        	j	400d3bad <esp_intr_alloc_intrstatus+0x165>
400d3b77:	00          	.byte 00
400d3b78:	05bd      	mov.n	a11, a5
400d3b7a:	04ad      	mov.n	a10, a4
400d3b7c:	ffd225        	call8	400d38a0 <find_desc_for_int>
400d3b7f:	0a7d      	mov.n	a7, a10
400d3b81:	5adc      	bnez.n	a10, 400d3b9a <esp_intr_alloc_intrstatus+0x152>
400d3b83:	0178      	l32i.n	a7, a1, 0
400d3b85:	f1ec91        	l32r	a9, 400d0338 <_image_irom_vaddr+0x318> (ffc1ffff <_rtc_bss_end+0xafc1ffff>)
400d3b88:	448040        	extui	a8, a4, 0, 5
400d3b8b:	0188f0        	slli	a8, a8, 17
400d3b8e:	107790        	and	a7, a7, a9
400d3b91:	207780        	or	a7, a7, a8
400d3b94:	006172        	s32i	a7, a1, 0
400d3b97:	207110        	or	a7, a1, a1
400d3b9a:	0621b2        	l32i	a11, a1, 24
400d3b9d:	20d440        	or	a13, a4, a4
400d3ba0:	20c550        	or	a12, a5, a5
400d3ba3:	07ad      	mov.n	a10, a7
400d3ba5:	ffd325        	call8	400d38d8 <is_vect_desc_usable>
400d3ba8:	098a16        	beqz	a10, 400d3c44 <esp_intr_alloc_intrstatus+0x1fc>
400d3bab:	0748      	l32i.n	a4, a7, 0
400d3bad:	454140        	extui	a4, a4, 17, 5
400d3bb0:	002806        	j	400d3c54 <esp_intr_alloc_intrstatus+0x20c>
400d3bb3:	00          	.byte 00
400d3bb4:	05bd      	mov.n	a11, a5
400d3bb6:	06ad      	mov.n	a10, a6
400d3bb8:	ffce65        	call8	400d38a0 <find_desc_for_int>
400d3bbb:	0a9d      	mov.n	a9, a10
400d3bbd:	3adc      	bnez.n	a10, 400d3bd4 <esp_intr_alloc_intrstatus+0x18c>
400d3bbf:	0198      	l32i.n	a9, a1, 0
400d3bc1:	f1dd81        	l32r	a8, 400d0338 <_image_irom_vaddr+0x318> (ffc1ffff <_rtc_bss_end+0xafc1ffff>)
400d3bc4:	44a060        	extui	a10, a6, 0, 5
400d3bc7:	01aaf0        	slli	a10, a10, 17
400d3bca:	109980        	and	a9, a9, a8
400d3bcd:	2099a0        	or	a9, a9, a10
400d3bd0:	0199      	s32i.n	a9, a1, 0
400d3bd2:	019d      	mov.n	a9, a1
400d3bd4:	0621b2        	l32i	a11, a1, 24
400d3bd7:	20a990        	or	a10, a9, a9
400d3bda:	0c6192        	s32i	a9, a1, 48
400d3bdd:	fd7c      	movi.n	a13, -1
400d3bdf:	05cd      	mov.n	a12, a5
400d3be1:	ffcf65        	call8	400d38d8 <is_vect_desc_usable>
400d3be4:	c198      	l32i.n	a9, a1, 48
400d3be6:	04fa16        	beqz	a10, 400d3c39 <esp_intr_alloc_intrstatus+0x1f1>
400d3be9:	b188      	l32i.n	a8, a1, 44
400d3beb:	58bc      	beqz.n	a8, 400d3c24 <esp_intr_alloc_intrstatus+0x1dc>
400d3bed:	0019a2        	l16ui	a10, a9, 0
400d3bf0:	480c      	movi.n	a8, 4
400d3bf2:	10aa80        	and	a10, a10, a8
400d3bf5:	23aa80        	sext	a10, a10, 15
400d3bf8:	5aac      	beqz.n	a10, 400d3c21 <esp_intr_alloc_intrstatus+0x1d9>
400d3bfa:	19a8      	l32i.n	a10, a9, 4
400d3bfc:	090c      	movi.n	a9, 0
400d3bfe:	000146        	j	400d3c07 <esp_intr_alloc_intrstatus+0x1bf>
400d3c01:	052aa2        	l32i	a10, a10, 20
400d3c04:	01c992        	addi	a9, a9, 1
400d3c07:	ff6a56        	bnez	a10, 400d3c01 <esp_intr_alloc_intrstatus+0x1b9>
400d3c0a:	0c6192        	s32i	a9, a1, 48
400d3c0d:	06ad      	mov.n	a10, a6
400d3c0f:	ffb725        	call8	400d3780 <interrupt_controller_hal_desc_level>
400d3c12:	c198      	l32i.n	a9, a1, 48
400d3c14:	7188      	l32i.n	a8, a1, 28
400d3c16:	182987        	blt	a9, a8, 400d3c32 <esp_intr_alloc_intrstatus+0x1ea>
400d3c19:	1caa77        	bge	a10, a7, 400d3c39 <esp_intr_alloc_intrstatus+0x1f1>
400d3c1c:	000486        	j	400d3c32 <esp_intr_alloc_intrstatus+0x1ea>
400d3c1f:	00          	.byte 00
400d3c20:	00          	.byte 00
400d3c21:	140466        	bnei	a4, -1, 400d3c39 <esp_intr_alloc_intrstatus+0x1f1>
400d3c24:	06ad      	mov.n	a10, a6
400d3c26:	ffb5a5        	call8	400d3780 <interrupt_controller_hal_desc_level>
400d3c29:	0caa77        	bge	a10, a7, 400d3c39 <esp_intr_alloc_intrstatus+0x1f1>
400d3c2c:	000106        	j	400d3c34 <esp_intr_alloc_intrstatus+0x1ec>
400d3c2f:	00          	.byte 00
400d3c30:	00          	.byte 00
400d3c31:	00          	.byte 00
400d3c32:	7199      	s32i.n	a9, a1, 28
400d3c34:	0a7d      	mov.n	a7, a10
400d3c36:	204660        	or	a4, a6, a6
400d3c39:	661b      	addi.n	a6, a6, 1
400d3c3b:	02c626        	beqi	a6, 32, 400d3c41 <esp_intr_alloc_intrstatus+0x1f9>
400d3c3e:	ffdc86        	j	400d3bb4 <esp_intr_alloc_intrstatus+0x16c>
400d3c41:	0f0466        	bnei	a4, -1, 400d3c54 <esp_intr_alloc_intrstatus+0x20c>
400d3c44:	ffc4a5        	call8	400d3890 <esp_intr_unlock>
400d3c47:	0421a2        	l32i	a10, a1, 16
400d3c4a:	edaf42        	movi	a4, -19
400d3c4d:	aea865        	call8	400826d4 <k_free>
400d3c50:	005846        	j	400d3db5 <esp_intr_alloc_intrstatus+0x36d>
400d3c53:	00          	.byte 00
400d3c54:	20b550        	or	a11, a5, a5
400d3c57:	20a440        	or	a10, a4, a4
400d3c5a:	ffd125        	call8	400d396c <get_desc_for_int>
400d3c5d:	206aa0        	or	a6, a10, a10
400d3c60:	1acc      	bnez.n	a10, 400d3c65 <esp_intr_alloc_intrstatus+0x21d>
400d3c62:	000306        	j	400d3c72 <esp_intr_alloc_intrstatus+0x22a>
400d3c65:	5f6387        	bbci	a3, 8, 400d3cc8 <esp_intr_alloc_intrstatus+0x280>
400d3c68:	18a0a2        	movi	a10, 24
400d3c6b:	ffb725        	call8	400d37dc <__wrap_k_malloc>
400d3c6e:	0a7d      	mov.n	a7, a10
400d3c70:	aacc      	bnez.n	a10, 400d3c7e <esp_intr_alloc_intrstatus+0x236>
400d3c72:	ffc1e5        	call8	400d3890 <esp_intr_unlock>
400d3c75:	41a8      	l32i.n	a10, a1, 16
400d3c77:	aea5e5        	call8	400826d4 <k_free>
400d3c7a:	004186        	j	400d3d84 <esp_intr_alloc_intrstatus+0x33c>
400d3c7d:	00          	.byte 00
400d3c7e:	8c1c      	movi.n	a12, 24
400d3c80:	0b0c      	movi.n	a11, 0
400d3c82:	aff925        	call8	40083c14 <memset>
400d3c85:	8188      	l32i.n	a8, a1, 32
400d3c87:	0017a2        	l16ui	a10, a7, 0
400d3c8a:	1789      	s32i.n	a8, a7, 4
400d3c8c:	9188      	l32i.n	a8, a1, 36
400d3c8e:	00aeb2        	movi	a11, 0xfffffe00
400d3c91:	2789      	s32i.n	a8, a7, 8
400d3c93:	5188      	l32i.n	a8, a1, 20
400d3c95:	10aab0        	and	a10, a10, a11
400d3c98:	3789      	s32i.n	a8, a7, 12
400d3c9a:	a188      	l32i.n	a8, a1, 40
400d3c9c:	f1abb1        	l32r	a11, 400d0348 <_image_irom_vaddr+0x328> (40080700 <shared_intr_isr>)
400d3c9f:	4789      	s32i.n	a8, a7, 16
400d3ca1:	1698      	l32i.n	a9, a6, 4
400d3ca3:	06cd      	mov.n	a12, a6
400d3ca5:	5799      	s32i.n	a9, a7, 20
400d3ca7:	749020        	extui	a9, a2, 0, 8
400d3caa:	999a      	add.n	a9, a9, a9
400d3cac:	2099a0        	or	a9, a9, a10
400d3caf:	005792        	s16i	a9, a7, 0
400d3cb2:	1679      	s32i.n	a7, a6, 4
400d3cb4:	001672        	l16ui	a7, a6, 0
400d3cb7:	490c      	movi.n	a9, 4
400d3cb9:	207790        	or	a7, a7, a9
400d3cbc:	005672        	s16i	a7, a6, 0
400d3cbf:	04ad      	mov.n	a10, a4
400d3cc1:	ffd3a5        	call8	400d39fc <set_interrupt_handler>
400d3cc4:	000e46        	j	400d3d01 <esp_intr_alloc_intrstatus+0x2b9>
400d3cc7:	00          	.byte 00
400d3cc8:	08a072        	movi	a7, 8
400d3ccb:	052182        	l32i	a8, a1, 20
400d3cce:	005a72        	s16i	a7, a10, 0
400d3cd1:	008816        	beqz	a8, 400d3cdd <esp_intr_alloc_intrstatus+0x295>
400d3cd4:	a1c8      	l32i.n	a12, a1, 40
400d3cd6:	08bd      	mov.n	a11, a8
400d3cd8:	04ad      	mov.n	a10, a4
400d3cda:	ffd225        	call8	400d39fc <set_interrupt_handler>
400d3cdd:	0d6397        	bbci	a3, 9, 400d3cee <esp_intr_alloc_intrstatus+0x2a6>
400d3ce0:	1a0c      	movi.n	a10, 1
400d3ce2:	401400        	ssl	a4
400d3ce5:	a1aa00        	sll	a10, a10
400d3ce8:	f19b81        	l32r	a8, 400d0354 <_image_irom_vaddr+0x334> (4000c1ec <xthal_set_intclear>)
400d3ceb:	0008e0        	callx8	a8
400d3cee:	0678      	l32i.n	a7, a6, 0
400d3cf0:	f197a1        	l32r	a10, 400d034c <_image_irom_vaddr+0x32c> (c03fffff <_rtc_bss_end+0x703fffff>)
400d3cf3:	749020        	extui	a9, a2, 0, 8
400d3cf6:	0199a0        	slli	a9, a9, 22
400d3cf9:	1077a0        	and	a7, a7, a10
400d3cfc:	207790        	or	a7, a7, a9
400d3cff:	0679      	s32i.n	a7, a6, 0
400d3d01:	f193a1        	l32r	a10, 400d0350 <_image_irom_vaddr+0x330> (3ffb1ddc <non_iram_int_mask>)
400d3d04:	1b0c      	movi.n	a11, 1
400d3d06:	a075a0        	addx4	a7, a5, a10
400d3d09:	009692        	l16si	a9, a6, 0
400d3d0c:	0778      	l32i.n	a7, a7, 0
400d3d0e:	401400        	ssl	a4
400d3d11:	a1bb00        	sll	a11, a11
400d3d14:	11c5e0        	slli	a12, a5, 2
400d3d17:	0f63a7        	bbci	a3, 10, 400d3d2a <esp_intr_alloc_intrstatus+0x2e2>
400d3d1a:	2d0c      	movi.n	a13, 2
400d3d1c:	2099d0        	or	a9, a9, a13
400d3d1f:	fd7c      	movi.n	a13, -1
400d3d21:	30bdb0        	xor	a11, a13, a11
400d3d24:	107b70        	and	a7, a11, a7
400d3d27:	0001c6        	j	400d3d32 <esp_intr_alloc_intrstatus+0x2ea>
400d3d2a:	dd7c      	movi.n	a13, -3
400d3d2c:	1099d0        	and	a9, a9, a13
400d3d2f:	207b70        	or	a7, a11, a7
400d3d32:	aaca      	add.n	a10, a10, a12
400d3d34:	005692        	s16i	a9, a6, 0
400d3d37:	0a79      	s32i.n	a7, a10, 0
400d3d39:	00b296        	bltz	a2, 400d3d48 <esp_intr_alloc_intrstatus+0x300>
400d3d3c:	04cd      	mov.n	a12, a4
400d3d3e:	02bd      	mov.n	a11, a2
400d3d40:	05ad      	mov.n	a10, a5
400d3d42:	f18581        	l32r	a8, 400d0358 <_image_irom_vaddr+0x338> (4000681c <intr_matrix_set>)
400d3d45:	0008e0        	callx8	a8
400d3d48:	042122        	l32i	a2, a1, 16
400d3d4b:	042152        	l32i	a5, a1, 16
400d3d4e:	0269      	s32i.n	a6, a2, 0
400d3d50:	1628      	l32i.n	a2, a6, 4
400d3d52:	1a0c      	movi.n	a10, 1
400d3d54:	016522        	s32i	a2, a5, 4
400d3d57:	401400        	ssl	a4
400d3d5a:	a1aa00        	sll	a10, a10
400d3d5d:	00cc25        	call8	400d4a20 <z_xt_ints_on>
400d3d60:	0463b7        	bbci	a3, 11, 400d3d68 <esp_intr_alloc_intrstatus+0x320>
400d3d63:	41a8      	l32i.n	a10, a1, 16
400d3d65:	ac9ce5        	call8	40080734 <esp_intr_disable>
400d3d68:	ffb265        	call8	400d3890 <esp_intr_unlock>
400d3d6b:	182162        	l32i	a6, a1, 96
400d3d6e:	00a616        	beqz	a6, 400d3d7c <esp_intr_alloc_intrstatus+0x334>
400d3d71:	042182        	l32i	a8, a1, 16
400d3d74:	0689      	s32i.n	a8, a6, 0
400d3d76:	00a042        	movi	a4, 0
400d3d79:	000e06        	j	400d3db5 <esp_intr_alloc_intrstatus+0x36d>
400d3d7c:	41a8      	l32i.n	a10, a1, 16
400d3d7e:	ae9565        	call8	400826d4 <k_free>
400d3d81:	fffc46        	j	400d3d76 <esp_intr_alloc_intrstatus+0x32e>
400d3d84:	447c      	movi.n	a4, -12
400d3d86:	000ac6        	j	400d3db5 <esp_intr_alloc_intrstatus+0x36d>
400d3d89:	a46c      	movi.n	a4, -22
400d3d8b:	000986        	j	400d3db5 <esp_intr_alloc_intrstatus+0x36d>
400d3d8e:	020426        	beqi	a4, -1, 400d3d94 <esp_intr_alloc_intrstatus+0x34c>
400d3d91:	ff78c6        	j	400d3b78 <esp_intr_alloc_intrstatus+0x130>
400d3d94:	f0c761        	l32r	a6, 400d00b0 <_image_irom_vaddr+0x90> (7fffffff <_rtc_bss_end+0x2fffffff>)
400d3d97:	00a192        	movi	a9, 0x100
400d3d9a:	7169      	s32i.n	a6, a1, 28
400d3d9c:	086d      	mov.n	a6, a8
400d3d9e:	6188      	l32i.n	a8, a1, 24
400d3da0:	970c      	movi.n	a7, 9
400d3da2:	109890        	and	a9, a8, a9
400d3da5:	b199      	s32i.n	a9, a1, 44
400d3da7:	ff8246        	j	400d3bb4 <esp_intr_alloc_intrstatus+0x16c>
400d3daa:	00          	.byte 00
400d3dab:	00          	.byte 00
400d3dac:	020426        	beqi	a4, -1, 400d3db2 <esp_intr_alloc_intrstatus+0x36a>
400d3daf:	ff6846        	j	400d3b54 <esp_intr_alloc_intrstatus+0x10c>
400d3db2:	ff69c6        	j	400d3b5d <esp_intr_alloc_intrstatus+0x115>
400d3db5:	042d      	mov.n	a2, a4
400d3db7:	f01d      	retw.n
400d3db9:	000000        	ill

400d3dbc <esp_intr_alloc>:
400d3dbc:	006136        	entry	a1, 48
400d3dbf:	0d0c      	movi.n	a13, 0
400d3dc1:	0169      	s32i.n	a6, a1, 0
400d3dc3:	05fd      	mov.n	a15, a5
400d3dc5:	04ed      	mov.n	a14, a4
400d3dc7:	0dcd      	mov.n	a12, a13
400d3dc9:	03bd      	mov.n	a11, a3
400d3dcb:	02ad      	mov.n	a10, a2
400d3dcd:	ffc7a5        	call8	400d3a48 <esp_intr_alloc_intrstatus>
400d3dd0:	0a2d      	mov.n	a2, a10
400d3dd2:	f01d      	retw.n

400d3dd4 <z_log_msg_static_create$constprop$0>:
400d3dd4:	004136        	entry	a1, 32
400d3dd7:	20a220        	or	a10, a2, a2
400d3dda:	20b330        	or	a11, a3, a3
400d3ddd:	20c440        	or	a12, a4, a4
400d3de0:	0d0c      	movi.n	a13, 0
400d3de2:	afbe65        	call8	400839c8 <z_impl_z_log_msg_static_create>
400d3de5:	f01d      	retw.n
	...

400d3de8 <adc_esp32_init>:
400d3de8:	008136        	entry	a1, 64
400d3deb:	4228      	l32i.n	a2, a2, 16
400d3ded:	cc0c      	movi.n	a12, 12
400d3def:	28c292        	addi	a9, a2, 40
400d3df2:	02ad      	mov.n	a10, a2
400d3df4:	098d      	mov.n	a8, a9
400d3df6:	0aa0b2        	movi	a11, 10
400d3df9:	048b76        	loop	a11, 400d3e01 <adc_esp32_init+0x19>
400d3dfc:	0049c2        	s8i	a12, a9, 0
400d3dff:	991b      	addi.n	a9, a9, 1
400d3e01:	c08820        	sub	a8, a8, a2
400d3e04:	fcc882        	addi	a8, a8, -4
400d3e07:	418280        	srli	a8, a8, 2
400d3e0a:	090c      	movi.n	a9, 0
400d3e0c:	881b      	addi.n	a8, a8, 1
400d3e0e:	038876        	loop	a8, 400d3e15 <adc_esp32_init+0x2d>
400d3e11:	0a99      	s32i.n	a9, a10, 0
400d3e13:	aa4b      	addi.n	a10, a10, 4
400d3e15:	4ca482        	movi	a8, 0x44c
400d3e18:	ce5282        	s16i	a8, a2, 0x19c
400d3e1b:	0a0c      	movi.n	a10, 0
400d3e1d:	fe52e5        	call8	400d234c <esp_adc_cal_check_efuse>
400d3e20:	06a182        	movi	a8, 0x106
400d3e23:	0d1a87        	beq	a10, a8, 400d3e34 <adc_esp32_init+0x4c>
400d3e26:	0aa182        	movi	a8, 0x10a
400d3e29:	0f1a87        	beq	a10, a8, 400d3e3c <adc_esp32_init+0x54>
400d3e2c:	180c      	movi.n	a8, 1
400d3e2e:	aaec      	bnez.n	a10, 400d3e5c <adc_esp32_init+0x74>
400d3e30:	000f06        	j	400d3e70 <adc_esp32_init+0x88>
400d3e33:	00          	.byte 00
400d3e34:	f14a81        	l32r	a8, 400d035c <_image_irom_vaddr+0x33c> (3f40109b <CSWTCH$269+0x11>)
400d3e37:	000106        	j	400d3e3f <adc_esp32_init+0x57>
400d3e3a:	00          	.byte 00
400d3e3b:	00          	.byte 00
400d3e3c:	f14a81        	l32r	a8, 400d0364 <_image_irom_vaddr+0x344> (3f4010c6 <CSWTCH$269+0x3c>)
400d3e3f:	056182        	s32i	a8, a1, 20
400d3e42:	21a0b2        	movi	a11, 33
400d3e45:	02a082        	movi	a8, 2
400d3e48:	4189      	s32i.n	a8, a1, 16
400d3e4a:	10c1c2        	addi	a12, a1, 16
400d3e4d:	11bb90        	slli	a11, a11, 7
400d3e50:	f144a1        	l32r	a10, 400d0360 <_image_irom_vaddr+0x340> (3ffb07f8 <log_const_adc_esp32>)
400d3e53:	fff825        	call8	400d3dd4 <z_log_msg_static_create$constprop$0>
400d3e56:	080c      	movi.n	a8, 0
400d3e58:	000506        	j	400d3e70 <adc_esp32_init+0x88>
400d3e5b:	00          	.byte 00
400d3e5c:	f14381        	l32r	a8, 400d0368 <_image_irom_vaddr+0x348> (3f4010f3 <CSWTCH$269+0x69>)
400d3e5f:	1b4c      	movi.n	a11, 65
400d3e61:	5189      	s32i.n	a8, a1, 20
400d3e63:	280c      	movi.n	a8, 2
400d3e65:	4189      	s32i.n	a8, a1, 16
400d3e67:	10c1c2        	addi	a12, a1, 16
400d3e6a:	11bba0        	slli	a11, a11, 6
400d3e6d:	fff7c6        	j	400d3e50 <adc_esp32_init+0x68>
400d3e70:	01d222        	addmi	a2, a2, 0x100
400d3e73:	a84282        	s8i	a8, a2, 168
400d3e76:	020c      	movi.n	a2, 0
400d3e78:	f01d      	retw.n
	...

400d3e7c <adc_esp32_channel_setup>:
400d3e7c:	008136        	entry	a1, 64
400d3e7f:	1248      	l32i.n	a4, a2, 4
400d3e81:	2398      	l32i.n	a9, a3, 8
400d3e83:	040482        	l8ui	a8, a4, 4
400d3e86:	459090        	extui	a9, a9, 16, 5
400d3e89:	4228      	l32i.n	a2, a2, 16
400d3e8b:	017d      	mov.n	a7, a1
400d3e8d:	133987        	bltu	a9, a8, 400d3ea4 <adc_esp32_channel_setup+0x28>
400d3e90:	e0c132        	addi	a3, a1, -32
400d3e93:	012d      	mov.n	a2, a1
400d3e95:	001310        	movsp	a1, a3
400d3e98:	01cd      	mov.n	a12, a1
400d3e9a:	f13431        	l32r	a3, 400d036c <_image_irom_vaddr+0x34c> (3f4010ff <CSWTCH$269+0x75>)
400d3e9d:	6c99      	s32i.n	a9, a12, 24
400d3e9f:	5c39      	s32i.n	a3, a12, 20
400d3ea1:	000606        	j	400d3ebd <adc_esp32_channel_setup+0x41>
400d3ea4:	012382        	l32i	a8, a3, 4
400d3ea7:	2e4826        	beqi	a8, 4, 400d3ed9 <adc_esp32_channel_setup+0x5d>
400d3eaa:	e0c132        	addi	a3, a1, -32
400d3ead:	202110        	or	a2, a1, a1
400d3eb0:	001310        	movsp	a1, a3
400d3eb3:	20c110        	or	a12, a1, a1
400d3eb6:	f12e31        	l32r	a3, 400d0370 <_image_irom_vaddr+0x350> (3f40111b <CSWTCH$269+0x91>)
400d3eb9:	5c39      	s32i.n	a3, a12, 20
400d3ebb:	6c89      	s32i.n	a8, a12, 24
400d3ebd:	f128a1        	l32r	a10, 400d0360 <_image_irom_vaddr+0x340> (3ffb07f8 <log_const_adc_esp32>)
400d3ec0:	330c      	movi.n	a3, 3
400d3ec2:	61a0b2        	movi	a11, 97
400d3ec5:	4c39      	s32i.n	a3, a12, 16
400d3ec7:	11bba0        	slli	a11, a11, 6
400d3eca:	10ccc2        	addi	a12, a12, 16
400d3ecd:	fff065        	call8	400d3dd4 <z_log_msg_static_create$constprop$0>
400d3ed0:	001210        	movsp	a1, a2
400d3ed3:	7aaf22        	movi	a2, -134
400d3ed6:	003cc6        	j	400d3fcd <adc_esp32_channel_setup+0x151>
400d3ed9:	041382        	l16ui	a8, a3, 8
400d3edc:	089c      	beqz.n	a8, 400d3ef0 <adc_esp32_channel_setup+0x74>
400d3ede:	e0c132        	addi	a3, a1, -32
400d3ee1:	012d      	mov.n	a2, a1
400d3ee3:	001310        	movsp	a1, a3
400d3ee6:	01cd      	mov.n	a12, a1
400d3ee8:	f12331        	l32r	a3, 400d0374 <_image_irom_vaddr+0x354> (3f40113e <CSWTCH$269+0xb4>)
400d3eeb:	fff286        	j	400d3eb9 <adc_esp32_channel_setup+0x3d>
400d3eee:	00          	.byte 00
400d3eef:	00          	.byte 00
400d3ef0:	0a0382        	l8ui	a8, a3, 10
400d3ef3:	20a0a2        	movi	a10, 32
400d3ef6:	1088a0        	and	a8, a8, a10
400d3ef9:	01b816        	beqz	a8, 400d3f18 <adc_esp32_channel_setup+0x9c>
400d3efc:	f11f21        	l32r	a2, 400d0378 <_image_irom_vaddr+0x358> (3f401160 <CSWTCH$269+0xd6>)
400d3eff:	f118a1        	l32r	a10, 400d0360 <_image_irom_vaddr+0x340> (3ffb07f8 <log_const_adc_esp32>)
400d3f02:	056722        	s32i	a2, a7, 20
400d3f05:	1b4c      	movi.n	a11, 65
400d3f07:	220c      	movi.n	a2, 2
400d3f09:	4729      	s32i.n	a2, a7, 16
400d3f0b:	10c7c2        	addi	a12, a7, 16
400d3f0e:	11bba0        	slli	a11, a11, 6
400d3f11:	ffec25        	call8	400d3dd4 <z_log_msg_static_create$constprop$0>
400d3f14:	ffeec6        	j	400d3ed3 <adc_esp32_channel_setup+0x57>
400d3f17:	00          	.byte 00
400d3f18:	03a8      	l32i.n	a10, a3, 0
400d3f1a:	247a26        	beqi	a10, 7, 400d3f42 <adc_esp32_channel_setup+0xc6>
400d3f1d:	0a8af6        	bgeui	a10, 8, 400d3f2b <adc_esp32_channel_setup+0xaf>
400d3f20:	262a26        	beqi	a10, 2, 400d3f4a <adc_esp32_channel_setup+0xce>
400d3f23:	280c      	movi.n	a8, 2
400d3f25:	245a26        	beqi	a10, 5, 400d3f4d <adc_esp32_channel_setup+0xd1>
400d3f28:	000086        	j	400d3f2e <adc_esp32_channel_setup+0xb2>
400d3f2b:	1e8a26        	beqi	a10, 8, 400d3f4d <adc_esp32_channel_setup+0xd1>
400d3f2e:	e0c132        	addi	a3, a1, -32
400d3f31:	012d      	mov.n	a2, a1
400d3f33:	001310        	movsp	a1, a3
400d3f36:	01cd      	mov.n	a12, a1
400d3f38:	f11131        	l32r	a3, 400d037c <_image_irom_vaddr+0x35c> (3f401188 <CSWTCH$269+0xfe>)
400d3f3b:	6ca9      	s32i.n	a10, a12, 24
400d3f3d:	5c39      	s32i.n	a3, a12, 20
400d3f3f:	ffde86        	j	400d3ebd <adc_esp32_channel_setup+0x41>
400d3f42:	180c      	movi.n	a8, 1
400d3f44:	000146        	j	400d3f4d <adc_esp32_channel_setup+0xd1>
400d3f47:	00          	.byte 00
400d3f48:	00          	.byte 00
400d3f49:	00          	.byte 00
400d3f4a:	03a082        	movi	a8, 3
400d3f4d:	a09920        	addx4	a9, a9, a2
400d3f50:	006982        	s32i	a8, a9, 0
400d3f53:	002482        	l32i	a8, a4, 0
400d3f56:	0c1866        	bnei	a8, 1, 400d3f66 <adc_esp32_channel_setup+0xea>
400d3f59:	23a8      	l32i.n	a10, a3, 8
400d3f5b:	45a0a0        	extui	a10, a10, 16, 5
400d3f5e:	a08a20        	addx4	a8, a10, a2
400d3f61:	08b8      	l32i.n	a11, a8, 0
400d3f63:	fdb225        	call8	400d1a84 <adc1_config_channel_atten>
400d3f66:	0488      	l32i.n	a8, a4, 0
400d3f68:	0c2866        	bnei	a8, 2, 400d3f78 <adc_esp32_channel_setup+0xfc>
400d3f6b:	23a8      	l32i.n	a10, a3, 8
400d3f6d:	45a0a0        	extui	a10, a10, 16, 5
400d3f70:	a08a20        	addx4	a8, a10, a2
400d3f73:	08b8      	l32i.n	a11, a8, 0
400d3f75:	fddbe5        	call8	400d1d34 <adc2_config_channel_atten>
400d3f78:	01d282        	addmi	a8, a2, 0x100
400d3f7b:	a80882        	l8ui	a8, a8, 168
400d3f7e:	38cc      	bnez.n	a8, 400d3f85 <adc_esp32_channel_setup+0x109>
400d3f80:	020c      	movi.n	a2, 0
400d3f82:	0011c6        	j	400d3fcd <adc_esp32_channel_setup+0x151>
400d3f85:	23e8      	l32i.n	a14, a3, 8
400d3f87:	04a8      	l32i.n	a10, a4, 0
400d3f89:	45e0e0        	extui	a14, a14, 16, 5
400d3f8c:	a03e20        	addx4	a3, a14, a2
400d3f8f:	03b8      	l32i.n	a11, a3, 0
400d3f91:	32ea      	add.n	a3, a2, a14
400d3f93:	280332        	l8ui	a3, a3, 40
400d3f96:	c40c      	movi.n	a4, 12
400d3f98:	3c0c      	movi.n	a12, 3
400d3f9a:	023437        	bltu	a4, a3, 400d3fa0 <adc_esp32_channel_setup+0x124>
400d3f9d:	f7c3c2        	addi	a12, a3, -9
400d3fa0:	b0eee0        	addx8	a14, a14, a14
400d3fa3:	a0ee20        	addx4	a14, a14, a2
400d3fa6:	ce12d2        	l16ui	a13, a2, 0x19c
400d3fa9:	34cee2        	addi	a14, a14, 52
400d3fac:	fe3d65        	call8	400d2384 <esp_adc_cal_characterize>
400d3faf:	cd4ab6        	bltui	a10, 4, 400d3f80 <adc_esp32_channel_setup+0x104>
400d3fb2:	f0f321        	l32r	a2, 400d0380 <_image_irom_vaddr+0x360> (3f4011a4 <CSWTCH$269+0x11a>)
400d3fb5:	f0eaa1        	l32r	a10, 400d0360 <_image_irom_vaddr+0x340> (3ffb07f8 <log_const_adc_esp32>)
400d3fb8:	056722        	s32i	a2, a7, 20
400d3fbb:	41a0b2        	movi	a11, 65
400d3fbe:	220c      	movi.n	a2, 2
400d3fc0:	4729      	s32i.n	a2, a7, 16
400d3fc2:	10c7c2        	addi	a12, a7, 16
400d3fc5:	11bba0        	slli	a11, a11, 6
400d3fc8:	b27c      	movi.n	a2, -5
400d3fca:	ffe0a5        	call8	400d3dd4 <z_log_msg_static_create$constprop$0>
400d3fcd:	f01d      	retw.n
	...

400d3fd0 <adc_esp32_read>:
400d3fd0:	00a136        	entry	a1, 80
400d3fd3:	012352        	l32i	a5, a3, 4
400d3fd6:	032392        	l32i	a9, a3, 12
400d3fd9:	604050        	neg	a4, a5
400d3fdc:	104450        	and	a4, a4, a5
400d3fdf:	40f440        	nsau	a4, a4
400d3fe2:	604040        	neg	a4, a4
400d3fe5:	1fc442        	addi	a4, a4, 31
400d3fe8:	012282        	l32i	a8, a2, 4
400d3feb:	4268      	l32i.n	a6, a2, 16
400d3fed:	017d      	mov.n	a7, a1
400d3fef:	744040        	extui	a4, a4, 0, 8
400d3ff2:	2b29f6        	bgeui	a9, 2, 400d4021 <adc_esp32_read+0x51>
400d3ff5:	e0c132        	addi	a3, a1, -32
400d3ff8:	012d      	mov.n	a2, a1
400d3ffa:	001310        	movsp	a1, a3
400d3ffd:	01cd      	mov.n	a12, a1
400d3fff:	f0e131        	l32r	a3, 400d0384 <_image_irom_vaddr+0x364> (3f4011c7 <CSWTCH$269+0x13d>)
400d4002:	f0d7a1        	l32r	a10, 400d0360 <_image_irom_vaddr+0x340> (3ffb07f8 <log_const_adc_esp32>)
400d4005:	5c39      	s32i.n	a3, a12, 20
400d4007:	61a0b2        	movi	a11, 97
400d400a:	330c      	movi.n	a3, 3
400d400c:	6c99      	s32i.n	a9, a12, 24
400d400e:	4c39      	s32i.n	a3, a12, 16
400d4010:	11bba0        	slli	a11, a11, 6
400d4013:	10ccc2        	addi	a12, a12, 16
400d4016:	ffdbe5        	call8	400d3dd4 <z_log_msg_static_create$constprop$0>
400d4019:	001210        	movsp	a1, a2
400d401c:	427c      	movi.n	a2, -12
400d401e:	005506        	j	400d4176 <adc_esp32_read+0x1a6>
400d4021:	190c      	movi.n	a9, 1
400d4023:	401400        	ssl	a4
400d4026:	a19900        	sll	a9, a9
400d4029:	08b957        	bgeu	a9, a5, 400d4035 <adc_esp32_read+0x65>
400d402c:	f0d721        	l32r	a2, 400d0388 <_image_irom_vaddr+0x368> (3f4011ea <CSWTCH$269+0x160>)
400d402f:	0011c6        	j	400d407a <adc_esp32_read+0xaa>
400d4032:	00          	.byte 00
400d4033:	00          	.byte 00
400d4034:	00          	.byte 00
400d4035:	100392        	l8ui	a9, a3, 16
400d4038:	f7c9b2        	addi	a11, a9, -9
400d403b:	7450b0        	extui	a5, a11, 0, 8
400d403e:	2f45b6        	bltui	a5, 4, 400d4071 <adc_esp32_read+0xa1>
400d4041:	e0c152        	addi	a5, a1, -32
400d4044:	202110        	or	a2, a1, a1
400d4047:	001510        	movsp	a1, a5
400d404a:	20c110        	or	a12, a1, a1
400d404d:	f0cf31        	l32r	a3, 400d038c <_image_irom_vaddr+0x36c> (3f40120f <CSWTCH$269+0x185>)
400d4050:	f0c4a1        	l32r	a10, 400d0360 <_image_irom_vaddr+0x340> (3ffb07f8 <log_const_adc_esp32>)
400d4053:	056c32        	s32i	a3, a12, 20
400d4056:	61a0b2        	movi	a11, 97
400d4059:	330c      	movi.n	a3, 3
400d405b:	6c99      	s32i.n	a9, a12, 24
400d405d:	4c39      	s32i.n	a3, a12, 16
400d405f:	11bba0        	slli	a11, a11, 6
400d4062:	10ccc2        	addi	a12, a12, 16
400d4065:	ffd6e5        	call8	400d3dd4 <z_log_msg_static_create$constprop$0>
400d4068:	001210        	movsp	a1, a2
400d406b:	7aaf22        	movi	a2, -134
400d406e:	004106        	j	400d4176 <adc_esp32_read+0x1a6>
400d4071:	120352        	l8ui	a5, a3, 18
400d4074:	01e516        	beqz	a5, 400d4096 <adc_esp32_read+0xc6>
400d4077:	f0c621        	l32r	a2, 400d0390 <_image_irom_vaddr+0x370> (3f40122b <CSWTCH$269+0x1a1>)
400d407a:	056722        	s32i	a2, a7, 20
400d407d:	f0b8a1        	l32r	a10, 400d0360 <_image_irom_vaddr+0x340> (3ffb07f8 <log_const_adc_esp32>)
400d4080:	02a022        	movi	a2, 2
400d4083:	1b4c      	movi.n	a11, 65
400d4085:	4729      	s32i.n	a2, a7, 16
400d4087:	10c7c2        	addi	a12, a7, 16
400d408a:	11bba0        	slli	a11, a11, 6
400d408d:	ffd465        	call8	400d3dd4 <z_log_msg_static_create$constprop$0>
400d4090:	fff5c6        	j	400d406b <adc_esp32_read+0x9b>
400d4093:	00          	.byte 00
400d4094:	00          	.byte 00
400d4095:	00          	.byte 00
400d4096:	805640        	add	a5, a6, a4
400d4099:	284592        	s8i	a9, a5, 40
400d409c:	0028a2        	l32i	a10, a8, 0
400d409f:	8789      	s32i.n	a8, a7, 32
400d40a1:	fd8e65        	call8	400d1988 <adc_set_data_width>
400d40a4:	8788      	l32i.n	a8, a7, 32
400d40a6:	0898      	l32i.n	a9, a8, 0
400d40a8:	081966        	bnei	a9, 1, 400d40b4 <adc_esp32_read+0xe4>
400d40ab:	04ad      	mov.n	a10, a4
400d40ad:	fdbd65        	call8	400d1c84 <adc1_get_raw>
400d40b0:	8788      	l32i.n	a8, a7, 32
400d40b2:	07a9      	s32i.n	a10, a7, 0
400d40b4:	002882        	l32i	a8, a8, 0
400d40b7:	452866        	bnei	a8, 2, 400d4100 <adc_esp32_read+0x130>
400d40ba:	20c770        	or	a12, a7, a7
400d40bd:	3b0c      	movi.n	a11, 3
400d40bf:	04ad      	mov.n	a10, a4
400d40c1:	fddd65        	call8	400d1e98 <adc2_get_raw>
400d40c4:	8abc      	beqz.n	a10, 400d4100 <adc_esp32_read+0x130>
400d40c6:	d0c152        	addi	a5, a1, -48
400d40c9:	0238      	l32i.n	a3, a2, 0
400d40cb:	012d      	mov.n	a2, a1
400d40cd:	001510        	movsp	a1, a5
400d40d0:	01cd      	mov.n	a12, a1
400d40d2:	6c39      	s32i.n	a3, a12, 24
400d40d4:	00a232        	movi	a3, 0x200
400d40d7:	105c32        	s16i	a3, a12, 32
400d40da:	f0ae51        	l32r	a5, 400d0394 <_image_irom_vaddr+0x374> (3f401248 <CSWTCH$269+0x1be>)
400d40dd:	efd831        	l32r	a3, 400d0040 <_image_irom_vaddr+0x20> (1000004 <CONFIG_FLASH_SIZE+0xc00004>)
400d40e0:	f0a0a1        	l32r	a10, 400d0360 <_image_irom_vaddr+0x340> (3ffb07f8 <log_const_adc_esp32>)
400d40e3:	91a0b2        	movi	a11, 145
400d40e6:	5c59      	s32i.n	a5, a12, 20
400d40e8:	7c49      	s32i.n	a4, a12, 28
400d40ea:	4c39      	s32i.n	a3, a12, 16
400d40ec:	11bba0        	slli	a11, a11, 6
400d40ef:	10ccc2        	addi	a12, a12, 16
400d40f2:	ffce25        	call8	400d3dd4 <z_log_msg_static_create$constprop$0>
400d40f5:	001210        	movsp	a1, a2
400d40f8:	8caf22        	movi	a2, -116
400d40fb:	001dc6        	j	400d4176 <adc_esp32_read+0x1a6>
400d40fe:	00          	.byte 00
400d40ff:	00          	.byte 00
400d4100:	01d622        	addmi	a2, a6, 0x100
400d4103:	a80222        	l8ui	a2, a2, 168
400d4106:	07a8      	l32i.n	a10, a7, 0
400d4108:	060216        	beqz	a2, 400d416c <adc_esp32_read+0x19c>
400d410b:	280582        	l8ui	a8, a5, 40
400d410e:	c90c      	movi.n	a9, 12
400d4110:	320c      	movi.n	a2, 3
400d4112:	023987        	bltu	a9, a8, 400d4118 <adc_esp32_read+0x148>
400d4115:	f7c822        	addi	a2, a8, -9
400d4118:	b0b440        	addx8	a11, a4, a4
400d411b:	a08b60        	addx4	a8, a11, a6
400d411e:	0f6822        	s32i	a2, a8, 60
400d4121:	34c8b2        	addi	a11, a8, 52
400d4124:	a04460        	addx4	a4, a4, a6
400d4127:	fe2a65        	call8	400d23cc <esp_adc_cal_raw_to_voltage>
400d412a:	002422        	l32i	a2, a4, 0
400d412d:	0f3266        	bnei	a2, 3, 400d4140 <adc_esp32_read+0x170>
400d4130:	fba422        	movi	a2, 0x4fb
400d4133:	802220        	add	a2, a2, a2
400d4136:	632a20        	minu	a2, a10, a2
400d4139:	41a220        	srli	a10, a2, 2
400d413c:	0006c6        	j	400d415b <adc_esp32_read+0x18b>
400d413f:	00          	.byte 00
400d4140:	051226        	beqi	a2, 1, 400d4149 <adc_esp32_read+0x179>
400d4143:	112226        	beqi	a2, 2, 400d4158 <adc_esp32_read+0x188>
400d4146:	000446        	j	400d415b <adc_esp32_read+0x18b>
400d4149:	f09321        	l32r	a2, 400d0398 <_image_irom_vaddr+0x378> (cccccccd <_rtc_bss_end+0x7ccccccd>)
400d414c:	11aae0        	slli	a10, a10, 2
400d414f:	a2aa20        	muluh	a10, a10, a2
400d4152:	41a2a0        	srli	a10, a10, 2
400d4155:	000086        	j	400d415b <adc_esp32_read+0x18b>
400d4158:	41a1a0        	srli	a10, a10, 1
400d415b:	ce1642        	l16ui	a4, a6, 0x19c
400d415e:	a48c      	beqz.n	a4, 400d416c <adc_esp32_read+0x19c>
400d4160:	280522        	l8ui	a2, a5, 40
400d4163:	401200        	ssl	a2
400d4166:	a12a00        	sll	a2, a10
400d4169:	c2a240        	quou	a10, a2, a4
400d416c:	2328      	l32i.n	a2, a3, 8
400d416e:	686622        	s32i	a2, a6, 0x1a0
400d4171:	0052a2        	s16i	a10, a2, 0
400d4174:	020c      	movi.n	a2, 0
400d4176:	f01d      	retw.n

400d4178 <clock_control_esp32_get_status>:
400d4178:	004136        	entry	a1, 32
400d417b:	d21c      	movi.n	a2, 29
400d417d:	173237        	bltu	a2, a3, 400d4198 <clock_control_esp32_get_status+0x20>
400d4180:	681c      	movi.n	a8, 22
400d4182:	f05e21        	l32r	a2, 400d02fc <_image_irom_vaddr+0x2dc> (3ff000cc <__device_handles_end+0xafec0c>)
400d4185:	273837        	bltu	a8, a3, 400d41b0 <clock_control_esp32_get_status+0x38>
400d4188:	ecc382        	addi	a8, a3, -20
400d418b:	f05a21        	l32r	a2, 400d02f4 <_image_irom_vaddr+0x2d4> (3ff000c0 <__device_handles_end+0xafec00>)
400d418e:	1e28f6        	bgeui	a8, 2, 400d41b0 <clock_control_esp32_get_status+0x38>
400d4191:	f05a21        	l32r	a2, 400d02fc <_image_irom_vaddr+0x2dc> (3ff000cc <__device_handles_end+0xafec0c>)
400d4194:	000606        	j	400d41b0 <clock_control_esp32_get_status+0x38>
400d4197:	00          	.byte 00
400d4198:	e2c382        	addi	a8, a3, -30
400d419b:	f05721        	l32r	a2, 400d02f8 <_image_irom_vaddr+0x2d8> (3ff0001c <__device_handles_end+0xafeb5c>)
400d419e:	0e38b6        	bltui	a8, 3, 400d41b0 <clock_control_esp32_get_status+0x38>
400d41a1:	f05421        	l32r	a2, 400d02f4 <_image_irom_vaddr+0x2d4> (3ff000c0 <__device_handles_end+0xafec00>)
400d41a4:	0020c0        	memw
400d41a7:	0228      	l32i.n	a2, a2, 0
400d41a9:	120c      	movi.n	a2, 1
400d41ab:	000606        	j	400d41c7 <clock_control_esp32_get_status+0x4f>
400d41ae:	00          	.byte 00
400d41af:	00          	.byte 00
400d41b0:	f07b81        	l32r	a8, 400d039c <_image_irom_vaddr+0x37c> (3f4009fc <CSWTCH$7>)
400d41b3:	0020c0        	memw
400d41b6:	0228      	l32i.n	a2, a2, 0
400d41b8:	a03380        	addx4	a3, a3, a8
400d41bb:	0338      	l32i.n	a3, a3, 0
400d41bd:	280c      	movi.n	a8, 2
400d41bf:	103230        	and	a3, a2, a3
400d41c2:	120c      	movi.n	a2, 1
400d41c4:	932830        	movnez	a2, a8, a3
400d41c7:	f01d      	retw.n
400d41c9:	000000        	ill

400d41cc <clock_control_esp32_get_rate>:
400d41cc:	006136        	entry	a1, 48
400d41cf:	01ad      	mov.n	a10, a1
400d41d1:	fe7d25        	call8	400d29a4 <rtc_clk_cpu_freq_get_config>
400d41d4:	3188      	l32i.n	a8, a1, 12
400d41d6:	020c      	movi.n	a2, 0
400d41d8:	0489      	s32i.n	a8, a4, 0
400d41da:	f01d      	retw.n

400d41dc <clock_control_esp32_off>:
400d41dc:	004136        	entry	a1, 32
400d41df:	03ad      	mov.n	a10, a3
400d41e1:	ff5025        	call8	400d36e4 <periph_module_disable>
400d41e4:	020c      	movi.n	a2, 0
400d41e6:	f01d      	retw.n

400d41e8 <clock_control_esp32_on>:
400d41e8:	004136        	entry	a1, 32
400d41eb:	03ad      	mov.n	a10, a3
400d41ed:	ff4665        	call8	400d3654 <periph_module_enable>
400d41f0:	020c      	movi.n	a2, 0
400d41f2:	f01d      	retw.n

400d41f4 <clock_control_esp32_init>:
400d41f4:	008136        	entry	a1, 64
400d41f7:	012232        	l32i	a3, a2, 4
400d41fa:	fea025        	call8	400d2bfc <rtc_clk_apb_freq_get>
400d41fd:	f06a21        	l32r	a2, 400d03a8 <_image_irom_vaddr+0x388> (4c4b3ff <CONFIG_FLASH_SIZE+0x484b3ff>)
400d4200:	6132a7        	bltu	a2, a10, 400d4265 <clock_control_esp32_init+0x71>
400d4203:	f06a21        	l32r	a2, 400d03ac <_image_irom_vaddr+0x38c> (3f400044 <__rodata_region_start+0x4>)
400d4206:	0248      	l32i.n	a4, a2, 0
400d4208:	1228      	l32i.n	a2, a2, 4
400d420a:	0149      	s32i.n	a4, a1, 0
400d420c:	1129      	s32i.n	a2, a1, 4
400d420e:	2348      	l32i.n	a4, a3, 8
400d4210:	f06821        	l32r	a2, 400d03b0 <_image_irom_vaddr+0x390> (3f401292 <xtal_freq>)
400d4213:	224a      	add.n	a2, a2, a4
400d4215:	000222        	l8ui	a2, a2, 0
400d4218:	004122        	s8i	a2, a1, 0
400d421b:	1348      	l32i.n	a4, a3, 4
400d421d:	fe5365        	call8	400d2754 <rtc_clk_slow_freq_get>
400d4220:	0a2d      	mov.n	a2, a10
400d4222:	fe5725        	call8	400d2794 <rtc_clk_fast_freq_get>
400d4225:	180c      	movi.n	a8, 1
400d4227:	0188e0        	slli	a8, a8, 18
400d422a:	01aae0        	slli	a10, a10, 18
400d422d:	10aa80        	and	a10, a10, a8
400d4230:	ffa382        	movi	a8, 0x3ff
400d4233:	118880        	slli	a8, a8, 8
400d4236:	114480        	slli	a4, a4, 8
400d4239:	104480        	and	a4, a4, a8
400d423c:	20aa40        	or	a10, a10, a4
400d423f:	340c      	movi.n	a4, 3
400d4241:	0144d0        	slli	a4, a4, 19
400d4244:	0122d0        	slli	a2, a2, 19
400d4247:	102240        	and	a2, a2, a4
400d424a:	20aa20        	or	a10, a10, a2
400d424d:	f05941        	l32r	a4, 400d03b4 <_image_irom_vaddr+0x394> (ffe000ff <_rtc_bss_end+0xafe000ff>)
400d4250:	0128      	l32i.n	a2, a1, 0
400d4252:	11b8      	l32i.n	a11, a1, 4
400d4254:	102240        	and	a2, a2, a4
400d4257:	20aa20        	or	a10, a10, a2
400d425a:	0061a2        	s32i	a10, a1, 0
400d425d:	ff0825        	call8	400d32e0 <rtc_clk_init>
400d4260:	000346        	j	400d4271 <clock_control_esp32_init+0x7d>
400d4263:	00          	.byte 00
400d4264:	00          	.byte 00
400d4265:	00a0a2        	movi	a10, 0
400d4268:	f05881        	l32r	a8, 400d03c8 <_image_irom_vaddr+0x3a8> (400081d4 <esp_rom_get_reset_reason>)
400d426b:	0008e0        	callx8	a8
400d426e:	91aa66        	bnei	a10, 12, 400d4203 <clock_control_esp32_init+0xf>
400d4271:	01a0a2        	movi	a10, 1
400d4274:	fe4ee5        	call8	400d2764 <rtc_clk_fast_freq_set>
400d4277:	10c1a2        	addi	a10, a1, 16
400d427a:	fe72a5        	call8	400d29a4 <rtc_clk_cpu_freq_get_config>
400d427d:	1348      	l32i.n	a4, a3, 4
400d427f:	01bd      	mov.n	a11, a1
400d4281:	04ad      	mov.n	a10, a4
400d4283:	7158      	l32i.n	a5, a1, 28
400d4285:	fe6c65        	call8	400d294c <rtc_clk_cpu_freq_mhz_to_config>
400d4288:	7aaf22        	movi	a2, -134
400d428b:	103a16        	beqz	a10, 400d4392 <clock_control_esp32_init+0x19e>
400d428e:	0a0c      	movi.n	a10, 0
400d4290:	f00b81        	l32r	a8, 400d02bc <_image_irom_vaddr+0x29c> (40009278 <esp_rom_uart_tx_wait_idle>)
400d4293:	0008e0        	callx8	a8
400d4296:	3328      	l32i.n	a2, a3, 12
400d4298:	002296        	bltz	a2, 400d429e <clock_control_esp32_init+0xaa>
400d429b:	026122        	s32i	a2, a1, 8
400d429e:	0328      	l32i.n	a2, a3, 0
400d42a0:	001296        	bltz	a2, 400d42a5 <clock_control_esp32_init+0xb1>
400d42a3:	0129      	s32i.n	a2, a1, 0
400d42a5:	01ad      	mov.n	a10, a1
400d42a7:	fe84a5        	call8	400d2af0 <rtc_clk_cpu_freq_set_config>
400d42aa:	03eaa0        	rsr.ccount	a10
400d42ad:	a2ba40        	muluh	a11, a10, a4
400d42b0:	82aa40        	mull	a10, a10, a4
400d42b3:	05cd      	mov.n	a12, a5
400d42b5:	0d0c      	movi.n	a13, 0
400d42b7:	ef9b81        	l32r	a8, 400d0124 <_image_irom_vaddr+0x104> (4000cff8 <__udivdi3>)
400d42ba:	0008e0        	callx8	a8
400d42bd:	13eaa0        	wsr.ccount	a10
400d42c0:	0a0c      	movi.n	a10, 0
400d42c2:	f04281        	l32r	a8, 400d03cc <_image_irom_vaddr+0x3ac> (400081d4 <esp_rom_get_reset_reason>)
400d42c5:	0008e0        	callx8	a8
400d42c8:	f5caa2        	addi	a10, a10, -11
400d42cb:	253af6        	bgeui	a10, 3, 400d42f4 <clock_control_esp32_init+0x100>
400d42ce:	f00921        	l32r	a2, 400d02f4 <_image_irom_vaddr+0x2d4> (3ff000c0 <__device_handles_end+0xafec00>)
400d42d1:	f47c      	movi.n	a4, -1
400d42d3:	0020c0        	memw
400d42d6:	0288      	l32i.n	a8, a2, 0
400d42d8:	f00821        	l32r	a2, 400d02f8 <_image_irom_vaddr+0x2d8> (3ff0001c <__device_handles_end+0xafeb5c>)
400d42db:	308480        	xor	a8, a4, a8
400d42de:	0020c0        	memw
400d42e1:	0298      	l32i.n	a9, a2, 0
400d42e3:	f00621        	l32r	a2, 400d02fc <_image_irom_vaddr+0x2dc> (3ff000cc <__device_handles_end+0xafec0c>)
400d42e6:	309490        	xor	a9, a4, a9
400d42e9:	0020c0        	memw
400d42ec:	0228      	l32i.n	a2, a2, 0
400d42ee:	304420        	xor	a4, a4, a2
400d42f1:	000206        	j	400d42fd <clock_control_esp32_init+0x109>
400d42f4:	f02b41        	l32r	a4, 400d03a0 <_image_irom_vaddr+0x380> (37c36 <CONFIG_ESP_HEAP_MEM_POOL_REGION_1_SIZE+0x2bc36>)
400d42f7:	f02b81        	l32r	a8, 400d03a4 <_image_irom_vaddr+0x384> (61a8c08 <CONFIG_FLASH_SIZE+0x5da8c08>)
400d42fa:	0fa092        	movi	a9, 15
400d42fd:	f02e21        	l32r	a2, 400d03b8 <_image_irom_vaddr+0x398> (fffeffbd <_rtc_bss_end+0xaffeffbd>)
400d4300:	f030a1        	l32r	a10, 400d03c0 <_image_irom_vaddr+0x3a0> (3ff4f0ac <SENS+0x68ac>)
400d4303:	108820        	and	a8, a8, a2
400d4306:	f02d21        	l32r	a2, 400d03bc <_image_irom_vaddr+0x39c> (641394 <CONFIG_FLASH_SIZE+0x241394>)
400d4309:	0020c0        	memw
400d430c:	002a32        	l32i	a3, a10, 0
400d430f:	208820        	or	a8, a8, a2
400d4312:	01a022        	movi	a2, 1
400d4315:	0122b0        	slli	a2, a2, 21
400d4318:	203320        	or	a3, a3, a2
400d431b:	0020c0        	memw
400d431e:	0a39      	s32i.n	a3, a10, 0
400d4320:	f029a1        	l32r	a10, 400d03c4 <_image_irom_vaddr+0x3a4> (3ff6d0ac <SYSCON+0x70ac>)
400d4323:	0020c0        	memw
400d4326:	0a38      	l32i.n	a3, a10, 0
400d4328:	202320        	or	a2, a3, a2
400d432b:	0020c0        	memw
400d432e:	0a29      	s32i.n	a2, a10, 0
400d4330:	eff1a1        	l32r	a10, 400d02f4 <_image_irom_vaddr+0x2d4> (3ff000c0 <__device_handles_end+0xafec00>)
400d4333:	f37c      	movi.n	a3, -1
400d4335:	0020c0        	memw
400d4338:	0a58      	l32i.n	a5, a10, 0
400d433a:	302380        	xor	a2, a3, a8
400d433d:	102250        	and	a2, a2, a5
400d4340:	0020c0        	memw
400d4343:	0a29      	s32i.n	a2, a10, 0
400d4345:	efeaa1        	l32r	a10, 400d02f0 <_image_irom_vaddr+0x2d0> (3ff000c4 <__device_handles_end+0xafec04>)
400d4348:	0020c0        	memw
400d434b:	0a28      	l32i.n	a2, a10, 0
400d434d:	202820        	or	a2, a8, a2
400d4350:	efea81        	l32r	a8, 400d02f8 <_image_irom_vaddr+0x2d8> (3ff0001c <__device_handles_end+0xafeb5c>)
400d4353:	0020c0        	memw
400d4356:	0a29      	s32i.n	a2, a10, 0
400d4358:	0020c0        	memw
400d435b:	0858      	l32i.n	a5, a8, 0
400d435d:	302390        	xor	a2, a3, a9
400d4360:	102250        	and	a2, a2, a5
400d4363:	0020c0        	memw
400d4366:	0829      	s32i.n	a2, a8, 0
400d4368:	efe021        	l32r	a2, 400d02e8 <_image_irom_vaddr+0x2c8> (3ff00020 <__device_handles_end+0xafeb60>)
400d436b:	308340        	xor	a8, a3, a4
400d436e:	0020c0        	memw
400d4371:	0258      	l32i.n	a5, a2, 0
400d4373:	8a1c      	movi.n	a10, 24
400d4375:	209950        	or	a9, a9, a5
400d4378:	0020c0        	memw
400d437b:	0299      	s32i.n	a9, a2, 0
400d437d:	efdf21        	l32r	a2, 400d02fc <_image_irom_vaddr+0x2dc> (3ff000cc <__device_handles_end+0xafec0c>)
400d4380:	0020c0        	memw
400d4383:	0258      	l32i.n	a5, a2, 0
400d4385:	108850        	and	a8, a8, a5
400d4388:	0020c0        	memw
400d438b:	0289      	s32i.n	a8, a2, 0
400d438d:	ff2c65        	call8	400d3654 <periph_module_enable>
400d4390:	020c      	movi.n	a2, 0
400d4392:	f01d      	retw.n

400d4394 <rtcio_ll_set_drive_capability>:
400d4394:	004136        	entry	a1, 32
400d4397:	ef5181        	l32r	a8, 400d00dc <_image_irom_vaddr+0xbc> (3f400250 <rtc_io_desc>)
400d439a:	f02220        	subx8	a2, a2, a2
400d439d:	b02280        	addx8	a2, a2, a8
400d43a0:	b298      	l32i.n	a9, a2, 44
400d43a2:	69ac      	beqz.n	a9, 400d43cc <rtcio_ll_set_drive_capability+0x38>
400d43a4:	02a8      	l32i.n	a10, a2, 0
400d43a6:	c228      	l32i.n	a2, a2, 48
400d43a8:	0020c0        	memw
400d43ab:	0ab8      	l32i.n	a11, a10, 0
400d43ad:	401200        	ssl	a2
400d43b0:	a1c900        	sll	a12, a9
400d43b3:	f87c      	movi.n	a8, -1
400d43b5:	3088c0        	xor	a8, a8, a12
400d43b8:	109930        	and	a9, a9, a3
400d43bb:	1088b0        	and	a8, a8, a11
400d43be:	401200        	ssl	a2
400d43c1:	a19900        	sll	a9, a9
400d43c4:	208890        	or	a8, a8, a9
400d43c7:	0020c0        	memw
400d43ca:	0a89      	s32i.n	a8, a10, 0
400d43cc:	f01d      	retw.n
	...

400d43d0 <gpio_esp32_pin_interrupt_configure>:
400d43d0:	006136        	entry	a1, 48
400d43d3:	190c      	movi.n	a9, 1
400d43d5:	0199b0        	slli	a9, a9, 21
400d43d8:	743030        	extui	a3, a3, 0, 8
400d43db:	180c      	movi.n	a8, 1
400d43dd:	391497        	beq	a4, a9, 400d441a <gpio_esp32_pin_interrupt_configure+0x4a>
400d43e0:	0198a0        	slli	a9, a8, 22
400d43e3:	159497        	bne	a4, a9, 400d43fc <gpio_esp32_pin_interrupt_configure+0x2c>
400d43e6:	014870        	slli	a4, a8, 25
400d43e9:	331547        	beq	a5, a4, 400d4420 <gpio_esp32_pin_interrupt_configure+0x50>
400d43ec:	018860        	slli	a8, a8, 26
400d43ef:	a96c      	movi.n	a9, -22
400d43f1:	021587        	beq	a5, a8, 400d43f7 <gpio_esp32_pin_interrupt_configure+0x27>
400d43f4:	003a06        	j	400d44e0 <gpio_esp32_pin_interrupt_configure+0x110>
400d43f7:	000a86        	j	400d4425 <gpio_esp32_pin_interrupt_configure+0x55>
400d43fa:	00          	.byte 00
400d43fb:	00          	.byte 00
400d43fc:	014860        	slli	a4, a8, 26
400d43ff:	291547        	beq	a5, a4, 400d442c <gpio_esp32_pin_interrupt_configure+0x5c>
400d4402:	390c      	movi.n	a9, 3
400d4404:	019970        	slli	a9, a9, 25
400d4407:	1f1597        	beq	a5, a9, 400d442a <gpio_esp32_pin_interrupt_configure+0x5a>
400d440a:	018870        	slli	a8, a8, 25
400d440d:	a96c      	movi.n	a9, -22
400d440f:	021587        	beq	a5, a8, 400d4415 <gpio_esp32_pin_interrupt_configure+0x45>
400d4412:	003286        	j	400d44e0 <gpio_esp32_pin_interrupt_configure+0x110>
400d4415:	280c      	movi.n	a8, 2
400d4417:	000446        	j	400d442c <gpio_esp32_pin_interrupt_configure+0x5c>
400d441a:	080c      	movi.n	a8, 0
400d441c:	000306        	j	400d442c <gpio_esp32_pin_interrupt_configure+0x5c>
400d441f:	00          	.byte 00
400d4420:	480c      	movi.n	a8, 4
400d4422:	000186        	j	400d442c <gpio_esp32_pin_interrupt_configure+0x5c>
400d4425:	580c      	movi.n	a8, 5
400d4427:	000046        	j	400d442c <gpio_esp32_pin_interrupt_configure+0x5c>
400d442a:	380c      	movi.n	a8, 3
400d442c:	12c8      	l32i.n	a12, a2, 4
400d442e:	3c58      	l32i.n	a5, a12, 12
400d4430:	0063b0        	rsil	a11, 3
400d4433:	3c48      	l32i.n	a4, a12, 12
400d4435:	190c      	movi.n	a9, 1
400d4437:	1ca8      	l32i.n	a10, a12, 4
400d4439:	401300        	ssl	a3
400d443c:	a19900        	sll	a9, a9
400d443f:	94cc      	bnez.n	a4, 400d444c <gpio_esp32_pin_interrupt_configure+0x7c>
400d4441:	0020c0        	memw
400d4444:	136a92        	s32i	a9, a10, 76
400d4447:	000806        	j	400d446b <gpio_esp32_pin_interrupt_configure+0x9b>
400d444a:	00          	.byte 00
400d444b:	00          	.byte 00
400d444c:	0020c0        	memw
400d444f:	162a42        	l32i	a4, a10, 88
400d4452:	749090        	extui	a9, a9, 0, 8
400d4455:	0020c0        	memw
400d4458:	0149      	s32i.n	a4, a1, 0
400d445a:	0020c0        	memw
400d445d:	004192        	s8i	a9, a1, 0
400d4460:	0020c0        	memw
400d4463:	0148      	l32i.n	a4, a1, 0
400d4465:	0020c0        	memw
400d4468:	166a42        	s32i	a4, a10, 88
400d446b:	f41c      	movi.n	a4, 31
400d446d:	1cd8      	l32i.n	a13, a12, 4
400d446f:	1e0c      	movi.n	a14, 1
400d4471:	01b437        	bgeu	a4, a3, 400d4476 <gpio_esp32_pin_interrupt_configure+0xa6>
400d4474:	0e0c      	movi.n	a14, 0
400d4476:	550b      	addi.n	a5, a5, -1
400d4478:	1a0c      	movi.n	a10, 1
400d447a:	090c      	movi.n	a9, 0
400d447c:	839a50        	moveqz	a9, a10, a5
400d447f:	1099e0        	and	a9, a9, a14
400d4482:	1199b0        	slli	a9, a9, 5
400d4485:	993a      	add.n	a9, a9, a3
400d4487:	20c992        	addi	a9, a9, 32
400d448a:	1149e0        	slli	a4, a9, 2
400d448d:	a099d0        	addx4	a9, a9, a13
400d4490:	0020c0        	memw
400d4493:	2938      	l32i.n	a3, a9, 8
400d4495:	7fac52        	movi	a5, 0xfffffc7f
400d4498:	118890        	slli	a8, a8, 7
400d449b:	103350        	and	a3, a3, a5
400d449e:	203380        	or	a3, a3, a8
400d44a1:	0020c0        	memw
400d44a4:	2939      	s32i.n	a3, a9, 8
400d44a6:	1c88      	l32i.n	a8, a12, 4
400d44a8:	03f530        	rsr.misc1	a3
400d44ab:	100332        	l8ui	a3, a3, 16
400d44ae:	efc851        	l32r	a5, 400d03d0 <_image_irom_vaddr+0x3b0> (fffc1fff <_rtc_bss_end+0xaffc1fff>)
400d44b1:	884a      	add.n	a8, a8, a4
400d44b3:	e3cc      	bnez.n	a3, 400d44c5 <gpio_esp32_pin_interrupt_configure+0xf5>
400d44b5:	0020c0        	memw
400d44b8:	2838      	l32i.n	a3, a8, 8
400d44ba:	11aa10        	slli	a10, a10, 15
400d44bd:	103350        	and	a3, a3, a5
400d44c0:	000306        	j	400d44d0 <gpio_esp32_pin_interrupt_configure+0x100>
400d44c3:	00          	.byte 00
400d44c4:	00          	.byte 00
400d44c5:	0020c0        	memw
400d44c8:	2838      	l32i.n	a3, a8, 8
400d44ca:	11aa30        	slli	a10, a10, 13
400d44cd:	103350        	and	a3, a3, a5
400d44d0:	20a3a0        	or	a10, a3, a10
400d44d3:	0020c0        	memw
400d44d6:	28a9      	s32i.n	a10, a8, 8
400d44d8:	13e6b0        	wsr.ps	a11
400d44db:	002010        	rsync
400d44de:	090c      	movi.n	a9, 0
400d44e0:	092d      	mov.n	a2, a9
400d44e2:	f01d      	retw.n

400d44e4 <gpio_esp32_init>:
400d44e4:	004136        	entry	a1, 32
400d44e7:	efbb31        	l32r	a3, 400d03d4 <_image_irom_vaddr+0x3b4> (3ffb2101 <isr_connected$0>)
400d44ea:	02dd      	mov.n	a13, a2
400d44ec:	0003b2        	l8ui	a11, a3, 0
400d44ef:	ebcc      	bnez.n	a11, 400d4501 <gpio_esp32_init+0x1d>
400d44f1:	efb9c1        	l32r	a12, 400d03d8 <_image_irom_vaddr+0x3b8> (400807e0 <gpio_esp32_isr>)
400d44f4:	0bed      	mov.n	a14, a11
400d44f6:	16a0a2        	movi	a10, 22
400d44f9:	ff8c25        	call8	400d3dbc <esp_intr_alloc>
400d44fc:	180c      	movi.n	a8, 1
400d44fe:	004382        	s8i	a8, a3, 0
400d4501:	020c      	movi.n	a2, 0
400d4503:	f01d      	retw.n
400d4505:	000000        	ill

400d4508 <gpio_esp32_config>:
400d4508:	00a136        	entry	a1, 80
400d450b:	74b030        	extui	a11, a3, 0, 8
400d450e:	1238      	l32i.n	a3, a2, 4
400d4510:	070c      	movi.n	a7, 0
400d4512:	3368      	l32i.n	a6, a3, 12
400d4514:	150c      	movi.n	a5, 1
400d4516:	660b      	addi.n	a6, a6, -1
400d4518:	072d      	mov.n	a2, a7
400d451a:	832560        	moveqz	a2, a5, a6
400d451d:	f61c      	movi.n	a6, 31
400d451f:	01b6b7        	bgeu	a6, a11, 400d4524 <gpio_esp32_config+0x1c>
400d4522:	075d      	mov.n	a5, a7
400d4524:	102250        	and	a2, a2, a5
400d4527:	01a092        	movi	a9, 1
400d452a:	efac51        	l32r	a5, 400d03dc <_image_irom_vaddr+0x3bc> (effffff <CONFIG_SYS_CLOCK_HW_CYCLES_PER_SEC+0xb1e3ff>)
400d452d:	401b00        	ssl	a11
400d4530:	a1d900        	sll	a13, a9
400d4533:	1122b0        	slli	a2, a2, 5
400d4536:	10dd50        	and	a13, a13, a5
400d4539:	8022b0        	add	a2, a2, a11
400d453c:	01cd56        	bnez	a13, 400d455c <gpio_esp32_config+0x54>
400d453f:	efa821        	l32r	a2, 400d03e0 <_image_irom_vaddr+0x3c0> (3f401296 <xtal_freq+0x4>)
400d4542:	1b4c      	movi.n	a11, 65
400d4544:	5129      	s32i.n	a2, a1, 20
400d4546:	220c      	movi.n	a2, 2
400d4548:	4129      	s32i.n	a2, a1, 16
400d454a:	11bba0        	slli	a11, a11, 6
400d454d:	efa5a1        	l32r	a10, 400d03e4 <_image_irom_vaddr+0x3c4> (3ffb0818 <log_const_gpio_esp32>)
400d4550:	10c1c2        	addi	a12, a1, 16
400d4553:	af4765        	call8	400839c8 <z_impl_z_log_msg_static_create>
400d4556:	a26c      	movi.n	a2, -22
400d4558:	00d906        	j	400d48c0 <gpio_esp32_config+0x3b8>
400d455b:	00          	.byte 00
400d455c:	006360        	rsil	a6, 3
400d455f:	752c      	movi.n	a5, 39
400d4561:	333527        	bltu	a5, a2, 400d4598 <gpio_esp32_config+0x90>
400d4564:	eee051        	l32r	a5, 400d00e4 <_image_irom_vaddr+0xc4> (3f400640 <rtc_io_num_map>)
400d4567:	080c      	movi.n	a8, 0
400d4569:	a05250        	addx4	a5, a2, a5
400d456c:	05a8      	l32i.n	a10, a5, 0
400d456e:	1172e0        	slli	a7, a2, 2
400d4571:	372a87        	blt	a10, a8, 400d45ac <gpio_esp32_config+0xa4>
400d4574:	eeda81        	l32r	a8, 400d00dc <_image_irom_vaddr+0xbc> (3f400250 <rtc_io_desc>)
400d4577:	f05aa0        	subx8	a5, a10, a10
400d457a:	b05580        	addx8	a5, a5, a8
400d457d:	0588      	l32i.n	a8, a5, 0
400d457f:	15d8      	l32i.n	a13, a5, 4
400d4581:	0020c0        	memw
400d4584:	08c8      	l32i.n	a12, a8, 0
400d4586:	f57c      	movi.n	a5, -1
400d4588:	3055d0        	xor	a5, a5, a13
400d458b:	1055c0        	and	a5, a5, a12
400d458e:	0020c0        	memw
400d4591:	0859      	s32i.n	a5, a8, 0
400d4593:	098d      	mov.n	a8, a9
400d4595:	0004c6        	j	400d45ac <gpio_esp32_config+0xa4>
400d4598:	ef9421        	l32r	a2, 400d03e8 <_image_irom_vaddr+0x3c8> (3f4012b4 <xtal_freq+0x22>)
400d459b:	1b4c      	movi.n	a11, 65
400d459d:	5129      	s32i.n	a2, a1, 20
400d459f:	220c      	movi.n	a2, 2
400d45a1:	4129      	s32i.n	a2, a1, 16
400d45a3:	11bba0        	slli	a11, a11, 6
400d45a6:	0d0c      	movi.n	a13, 0
400d45a8:	005a06        	j	400d4714 <gpio_esp32_config+0x20c>
400d45ab:	00          	.byte 00
400d45ac:	ef9051        	l32r	a5, 400d03ec <_image_irom_vaddr+0x3cc> (3f4001b0 <GPIO_PIN_MUX_REG>)
400d45af:	ef3bd1        	l32r	a13, 400d029c <_image_irom_vaddr+0x27c> (ffff8fff <_rtc_bss_end+0xafff8fff>)
400d45b2:	957a      	add.n	a9, a5, a7
400d45b4:	0998      	l32i.n	a9, a9, 0
400d45b6:	0020c0        	memw
400d45b9:	09c8      	l32i.n	a12, a9, 0
400d45bb:	10ccd0        	and	a12, a12, a13
400d45be:	1d0c      	movi.n	a13, 1
400d45c0:	11dd30        	slli	a13, a13, 13
400d45c3:	20ccd0        	or	a12, a12, a13
400d45c6:	0020c0        	memw
400d45c9:	09c9      	s32i.n	a12, a9, 0
400d45cb:	2d6447        	bbci	a4, 4, 400d45fc <gpio_esp32_config+0xf4>
400d45ce:	a8cc      	bnez.n	a8, 400d45dc <gpio_esp32_config+0xd4>
400d45d0:	0020c0        	memw
400d45d3:	09c8      	l32i.n	a12, a9, 0
400d45d5:	00a1d2        	movi	a13, 0x100
400d45d8:	000546        	j	400d45f1 <gpio_esp32_config+0xe9>
400d45db:	00          	.byte 00
400d45dc:	eec0c1        	l32r	a12, 400d00dc <_image_irom_vaddr+0xbc> (3f400250 <rtc_io_desc>)
400d45df:	f09aa0        	subx8	a9, a10, a10
400d45e2:	b099c0        	addx8	a9, a9, a12
400d45e5:	49c8      	l32i.n	a12, a9, 16
400d45e7:	079c16        	beqz	a12, 400d4664 <gpio_esp32_config+0x15c>
400d45ea:	0998      	l32i.n	a9, a9, 0
400d45ec:	0020c0        	memw
400d45ef:	09d8      	l32i.n	a13, a9, 0
400d45f1:	20ccd0        	or	a12, a12, a13
400d45f4:	0020c0        	memw
400d45f7:	09c9      	s32i.n	a12, a9, 0
400d45f9:	000c06        	j	400d462d <gpio_esp32_config+0x125>
400d45fc:	c8cc      	bnez.n	a8, 400d460c <gpio_esp32_config+0x104>
400d45fe:	0020c0        	memw
400d4601:	09c8      	l32i.n	a12, a9, 0
400d4603:	ffaed2        	movi	a13, 0xfffffeff
400d4606:	10ccd0        	and	a12, a12, a13
400d4609:	fff9c6        	j	400d45f4 <gpio_esp32_config+0xec>
400d460c:	eeb4c1        	l32r	a12, 400d00dc <_image_irom_vaddr+0xbc> (3f400250 <rtc_io_desc>)
400d460f:	f09aa0        	subx8	a9, a10, a10
400d4612:	b099c0        	addx8	a9, a9, a12
400d4615:	49d8      	l32i.n	a13, a9, 16
400d4617:	2d9c      	beqz.n	a13, 400d462d <gpio_esp32_config+0x125>
400d4619:	09c8      	l32i.n	a12, a9, 0
400d461b:	f97c      	movi.n	a9, -1
400d461d:	0020c0        	memw
400d4620:	0ce8      	l32i.n	a14, a12, 0
400d4622:	3099d0        	xor	a9, a9, a13
400d4625:	1099e0        	and	a9, a9, a14
400d4628:	0020c0        	memw
400d462b:	0c99      	s32i.n	a9, a12, 0
400d462d:	290c      	movi.n	a9, 2
400d462f:	370497        	bnone	a4, a9, 400d466a <gpio_esp32_config+0x162>
400d4632:	4e0c      	movi.n	a14, 4
400d4634:	10d4e0        	and	a13, a4, a14
400d4637:	1d9c      	beqz.n	a13, 400d464c <gpio_esp32_config+0x144>
400d4639:	13c8      	l32i.n	a12, a3, 4
400d463b:	20c292        	addi	a9, a2, 32
400d463e:	a099c0        	addx4	a9, a9, a12
400d4641:	0020c0        	memw
400d4644:	29c8      	l32i.n	a12, a9, 8
400d4646:	20cce0        	or	a12, a12, a14
400d4649:	000bc6        	j	400d467c <gpio_esp32_config+0x174>
400d464c:	ef6921        	l32r	a2, 400d03f0 <_image_irom_vaddr+0x3d0> (3f4012c1 <xtal_freq+0x2f>)
400d464f:	41a0b2        	movi	a11, 65
400d4652:	056122        	s32i	a2, a1, 20
400d4655:	046192        	s32i	a9, a1, 16
400d4658:	11bba0        	slli	a11, a11, 6
400d465b:	ef62a1        	l32r	a10, 400d03e4 <_image_irom_vaddr+0x3c4> (3ffb0818 <log_const_gpio_esp32>)
400d465e:	10c1c2        	addi	a12, a1, 16
400d4661:	af3665        	call8	400839c8 <z_impl_z_log_msg_static_create>
400d4664:	7aaf22        	movi	a2, -134
400d4667:	0093c6        	j	400d48ba <gpio_esp32_config+0x3b2>
400d466a:	13c8      	l32i.n	a12, a3, 4
400d466c:	20c292        	addi	a9, a2, 32
400d466f:	a099c0        	addx4	a9, a9, a12
400d4672:	0020c0        	memw
400d4675:	29c8      	l32i.n	a12, a9, 8
400d4677:	bd7c      	movi.n	a13, -5
400d4679:	10ccd0        	and	a12, a12, a13
400d467c:	0020c0        	memw
400d467f:	29c9      	s32i.n	a12, a9, 8
400d4681:	336457        	bbci	a4, 5, 400d46b8 <gpio_esp32_config+0x1b0>
400d4684:	08dc      	bnez.n	a8, 400d4698 <gpio_esp32_config+0x190>
400d4686:	957a      	add.n	a9, a5, a7
400d4688:	09c8      	l32i.n	a12, a9, 0
400d468a:	80a0d2        	movi	a13, 128
400d468d:	0020c0        	memw
400d4690:	0c98      	l32i.n	a9, a12, 0
400d4692:	2099d0        	or	a9, a9, a13
400d4695:	001486        	j	400d46eb <gpio_esp32_config+0x1e3>
400d4698:	ee91c1        	l32r	a12, 400d00dc <_image_irom_vaddr+0xbc> (3f400250 <rtc_io_desc>)
400d469b:	f09aa0        	subx8	a9, a10, a10
400d469e:	b099c0        	addx8	a9, a9, a12
400d46a1:	59c8      	l32i.n	a12, a9, 20
400d46a3:	fbdc16        	beqz	a12, 400d4664 <gpio_esp32_config+0x15c>
400d46a6:	0998      	l32i.n	a9, a9, 0
400d46a8:	0020c0        	memw
400d46ab:	09d8      	l32i.n	a13, a9, 0
400d46ad:	20ccd0        	or	a12, a12, a13
400d46b0:	0020c0        	memw
400d46b3:	09c9      	s32i.n	a12, a9, 0
400d46b5:	000dc6        	j	400d46f0 <gpio_esp32_config+0x1e8>
400d46b8:	08dc      	bnez.n	a8, 400d46cc <gpio_esp32_config+0x1c4>
400d46ba:	957a      	add.n	a9, a5, a7
400d46bc:	09c8      	l32i.n	a12, a9, 0
400d46be:	7fafd2        	movi	a13, -129
400d46c1:	0020c0        	memw
400d46c4:	0c98      	l32i.n	a9, a12, 0
400d46c6:	1099d0        	and	a9, a9, a13
400d46c9:	000786        	j	400d46eb <gpio_esp32_config+0x1e3>
400d46cc:	ee84c1        	l32r	a12, 400d00dc <_image_irom_vaddr+0xbc> (3f400250 <rtc_io_desc>)
400d46cf:	f09aa0        	subx8	a9, a10, a10
400d46d2:	b099c0        	addx8	a9, a9, a12
400d46d5:	0529d2        	l32i	a13, a9, 20
400d46d8:	014d16        	beqz	a13, 400d46f0 <gpio_esp32_config+0x1e8>
400d46db:	0029c2        	l32i	a12, a9, 0
400d46de:	f97c      	movi.n	a9, -1
400d46e0:	0020c0        	memw
400d46e3:	0ce8      	l32i.n	a14, a12, 0
400d46e5:	3099d0        	xor	a9, a9, a13
400d46e8:	1099e0        	and	a9, a9, a14
400d46eb:	0020c0        	memw
400d46ee:	0c99      	s32i.n	a9, a12, 0
400d46f0:	1d0c      	movi.n	a13, 1
400d46f2:	02f417        	bbsi	a4, 17, 400d46f8 <gpio_esp32_config+0x1f0>
400d46f5:	0054c6        	j	400d484c <gpio_esp32_config+0x344>
400d46f8:	ef3991        	l32r	a9, 400d03dc <_image_irom_vaddr+0x3bc> (effffff <CONFIG_SYS_CLOCK_HW_CYCLES_PER_SEC+0xb1e3ff>)
400d46fb:	401b00        	ssl	a11
400d46fe:	a1dd00        	sll	a13, a13
400d4701:	10dd90        	and	a13, a13, a9
400d4704:	cddc      	bnez.n	a13, 400d4724 <gpio_esp32_config+0x21c>
400d4706:	ef3b21        	l32r	a2, 400d03f4 <_image_irom_vaddr+0x3d4> (3f4012e2 <xtal_freq+0x50>)
400d4709:	1b4c      	movi.n	a11, 65
400d470b:	5129      	s32i.n	a2, a1, 20
400d470d:	220c      	movi.n	a2, 2
400d470f:	4129      	s32i.n	a2, a1, 16
400d4711:	11bba0        	slli	a11, a11, 6
400d4714:	ef34a1        	l32r	a10, 400d03e4 <_image_irom_vaddr+0x3c4> (3ffb0818 <log_const_gpio_esp32>)
400d4717:	10c1c2        	addi	a12, a1, 16
400d471a:	af2ae5        	call8	400839c8 <z_impl_z_log_msg_static_create>
400d471d:	a26c      	movi.n	a2, -22
400d471f:	0065c6        	j	400d48ba <gpio_esp32_config+0x3b2>
400d4722:	00          	.byte 00
400d4723:	00          	.byte 00
400d4724:	00a692        	movi	a9, 0x600
400d4727:	10b490        	and	a11, a4, a9
400d472a:	4b8c      	beqz.n	a11, 400d4732 <gpio_esp32_config+0x22a>
400d472c:	291b97        	beq	a11, a9, 400d4759 <gpio_esp32_config+0x251>
400d472f:	fffa86        	j	400d471d <gpio_esp32_config+0x215>
400d4732:	e8dc      	bnez.n	a8, 400d4754 <gpio_esp32_config+0x24c>
400d4734:	857a      	add.n	a8, a5, a7
400d4736:	08a8      	l32i.n	a10, a8, 0
400d4738:	ef3091        	l32r	a9, 400d03f8 <_image_irom_vaddr+0x3d8> (fffff3ff <_rtc_bss_end+0xaffff3ff>)
400d473b:	0020c0        	memw
400d473e:	0a88      	l32i.n	a8, a10, 0
400d4740:	108890        	and	a8, a8, a9
400d4743:	390c      	movi.n	a9, 3
400d4745:	119960        	slli	a9, a9, 10
400d4748:	208890        	or	a8, a8, a9
400d474b:	0020c0        	memw
400d474e:	0a89      	s32i.n	a8, a10, 0
400d4750:	000906        	j	400d4778 <gpio_esp32_config+0x270>
400d4753:	00          	.byte 00
400d4754:	3b0c      	movi.n	a11, 3
400d4756:	0006c6        	j	400d4775 <gpio_esp32_config+0x26d>
400d4759:	58dc      	bnez.n	a8, 400d4772 <gpio_esp32_config+0x26a>
400d475b:	857a      	add.n	a8, a5, a7
400d475d:	0898      	l32i.n	a9, a8, 0
400d475f:	ef26a1        	l32r	a10, 400d03f8 <_image_irom_vaddr+0x3d8> (fffff3ff <_rtc_bss_end+0xaffff3ff>)
400d4762:	0020c0        	memw
400d4765:	0988      	l32i.n	a8, a9, 0
400d4767:	1088a0        	and	a8, a8, a10
400d476a:	0020c0        	memw
400d476d:	0989      	s32i.n	a8, a9, 0
400d476f:	000146        	j	400d4778 <gpio_esp32_config+0x270>
400d4772:	00a0b2        	movi	a11, 0
400d4775:	ffc1e5        	call8	400d4394 <rtcio_ll_set_drive_capability>
400d4778:	1fa082        	movi	a8, 31
400d477b:	ef2091        	l32r	a9, 400d03fc <_image_irom_vaddr+0x3dc> (3ff44000 <GPIO>)
400d477e:	123827        	bltu	a8, a2, 400d4794 <gpio_esp32_config+0x28c>
400d4781:	01a082        	movi	a8, 1
400d4784:	401200        	ssl	a2
400d4787:	a18800        	sll	a8, a8
400d478a:	0020c0        	memw
400d478d:	9989      	s32i.n	a8, a9, 36
400d478f:	000986        	j	400d47b9 <gpio_esp32_config+0x2b1>
400d4792:	00          	.byte 00
400d4793:	00          	.byte 00
400d4794:	0020c0        	memw
400d4797:	c988      	l32i.n	a8, a9, 48
400d4799:	0020c0        	memw
400d479c:	8189      	s32i.n	a8, a1, 32
400d479e:	180c      	movi.n	a8, 1
400d47a0:	401200        	ssl	a2
400d47a3:	a18800        	sll	a8, a8
400d47a6:	748080        	extui	a8, a8, 0, 8
400d47a9:	0020c0        	memw
400d47ac:	204182        	s8i	a8, a1, 32
400d47af:	0020c0        	memw
400d47b2:	8188      	l32i.n	a8, a1, 32
400d47b4:	0020c0        	memw
400d47b7:	c989      	s32i.n	a8, a9, 48
400d47b9:	0d0c      	movi.n	a13, 0
400d47bb:	0dcd      	mov.n	a12, a13
400d47bd:	00a1b2        	movi	a11, 0x100
400d47c0:	02ad      	mov.n	a10, a2
400d47c2:	ef1081        	l32r	a8, 400d0404 <_image_irom_vaddr+0x3e4> (40009f0c <esp_rom_gpio_connect_out_signal>)
400d47c5:	0008e0        	callx8	a8
400d47c8:	180c      	movi.n	a8, 1
400d47ca:	3c7437        	bbci	a4, 19, 400d480a <gpio_esp32_config+0x302>
400d47cd:	f91c      	movi.n	a9, 31
400d47cf:	1338      	l32i.n	a3, a3, 4
400d47d1:	0f3927        	bltu	a9, a2, 400d47e4 <gpio_esp32_config+0x2dc>
400d47d4:	401200        	ssl	a2
400d47d7:	a18800        	sll	a8, a8
400d47da:	0020c0        	memw
400d47dd:	2389      	s32i.n	a8, a3, 8
400d47df:	002d46        	j	400d4898 <gpio_esp32_config+0x390>
400d47e2:	00          	.byte 00
400d47e3:	00          	.byte 00
400d47e4:	0020c0        	memw
400d47e7:	5398      	l32i.n	a9, a3, 20
400d47e9:	401200        	ssl	a2
400d47ec:	a18800        	sll	a8, a8
400d47ef:	0020c0        	memw
400d47f2:	7199      	s32i.n	a9, a1, 28
400d47f4:	748080        	extui	a8, a8, 0, 8
400d47f7:	0020c0        	memw
400d47fa:	1c4182        	s8i	a8, a1, 28
400d47fd:	0020c0        	memw
400d4800:	7128      	l32i.n	a2, a1, 28
400d4802:	0020c0        	memw
400d4805:	5329      	s32i.n	a2, a3, 20
400d4807:	002346        	j	400d4898 <gpio_esp32_config+0x390>
400d480a:	02f427        	bbsi	a4, 18, 400d4810 <gpio_esp32_config+0x308>
400d480d:	0021c6        	j	400d4898 <gpio_esp32_config+0x390>
400d4810:	f91c      	movi.n	a9, 31
400d4812:	1338      	l32i.n	a3, a3, 4
400d4814:	0d3927        	bltu	a9, a2, 400d4825 <gpio_esp32_config+0x31d>
400d4817:	401200        	ssl	a2
400d481a:	a18800        	sll	a8, a8
400d481d:	0020c0        	memw
400d4820:	3389      	s32i.n	a8, a3, 12
400d4822:	001c86        	j	400d4898 <gpio_esp32_config+0x390>
400d4825:	0020c0        	memw
400d4828:	6398      	l32i.n	a9, a3, 24
400d482a:	401200        	ssl	a2
400d482d:	a18800        	sll	a8, a8
400d4830:	0020c0        	memw
400d4833:	6199      	s32i.n	a9, a1, 24
400d4835:	748080        	extui	a8, a8, 0, 8
400d4838:	0020c0        	memw
400d483b:	184182        	s8i	a8, a1, 24
400d483e:	0020c0        	memw
400d4841:	6128      	l32i.n	a2, a1, 24
400d4843:	0020c0        	memw
400d4846:	6329      	s32i.n	a2, a3, 24
400d4848:	001306        	j	400d4898 <gpio_esp32_config+0x390>
400d484b:	00          	.byte 00
400d484c:	f81c      	movi.n	a8, 31
400d484e:	eeeb31        	l32r	a3, 400d03fc <_image_irom_vaddr+0x3dc> (3ff44000 <GPIO>)
400d4851:	103827        	bltu	a8, a2, 400d4865 <gpio_esp32_config+0x35d>
400d4854:	401200        	ssl	a2
400d4857:	a1dd00        	sll	a13, a13
400d485a:	0020c0        	memw
400d485d:	a3d9      	s32i.n	a13, a3, 40
400d485f:	000946        	j	400d4888 <gpio_esp32_config+0x380>
400d4862:	00          	.byte 00
400d4863:	00          	.byte 00
400d4864:	00          	.byte 00
400d4865:	0020c0        	memw
400d4868:	d388      	l32i.n	a8, a3, 52
400d486a:	401200        	ssl	a2
400d486d:	a1dd00        	sll	a13, a13
400d4870:	0020c0        	memw
400d4873:	0189      	s32i.n	a8, a1, 0
400d4875:	74d0d0        	extui	a13, a13, 0, 8
400d4878:	0020c0        	memw
400d487b:	0041d2        	s8i	a13, a1, 0
400d487e:	0020c0        	memw
400d4881:	0188      	l32i.n	a8, a1, 0
400d4883:	0020c0        	memw
400d4886:	d389      	s32i.n	a8, a3, 52
400d4888:	eede31        	l32r	a3, 400d0400 <_image_irom_vaddr+0x3e0> (ffd114c <CONFIG_SYS_CLOCK_HW_CYCLES_PER_SEC+0x1aef54c>)
400d488b:	223a      	add.n	a2, a2, a3
400d488d:	1122e0        	slli	a2, a2, 2
400d4890:	00a132        	movi	a3, 0x100
400d4893:	0020c0        	memw
400d4896:	0239      	s32i.n	a3, a2, 0
400d4898:	557a      	add.n	a5, a5, a7
400d489a:	0528      	l32i.n	a2, a5, 0
400d489c:	0020c0        	memw
400d489f:	0238      	l32i.n	a3, a2, 0
400d48a1:	087407        	bbci	a4, 16, 400d48ad <gpio_esp32_config+0x3a5>
400d48a4:	00a242        	movi	a4, 0x200
400d48a7:	203340        	or	a3, a3, a4
400d48aa:	000146        	j	400d48b3 <gpio_esp32_config+0x3ab>
400d48ad:	ffad42        	movi	a4, 0xfffffdff
400d48b0:	103340        	and	a3, a3, a4
400d48b3:	0020c0        	memw
400d48b6:	0239      	s32i.n	a3, a2, 0
400d48b8:	020c      	movi.n	a2, 0
400d48ba:	13e660        	wsr.ps	a6
400d48bd:	002010        	rsync
400d48c0:	f01d      	retw.n
	...

400d48c4 <_OffsetAbsSyms>:
400d48c4:	004136        	entry	a1, 32
400d48c7:	f01d      	retw.n
400d48c9:	000000        	ill

400d48cc <is_ptr>:
400d48cc:	004136        	entry	a1, 32
400d48cf:	0a0c      	movi.n	a10, 0
400d48d1:	029d      	mov.n	a9, a2
400d48d3:	ac3c      	movi.n	a12, 58
400d48d5:	0a2d      	mov.n	a2, a10
400d48d7:	0add      	mov.n	a13, a10
400d48d9:	70a0e2        	movi	a14, 112
400d48dc:	5f2c      	movi.n	a15, 37
400d48de:	140c      	movi.n	a4, 1
400d48e0:	000cc6        	j	400d4917 <is_ptr+0x4b>
400d48e3:	00          	.byte 00
400d48e4:	42ac      	beqz.n	a2, 400d490c <is_ptr+0x40>
400d48e6:	0e9a37        	bne	a10, a3, 400d48f8 <is_ptr+0x2c>
400d48e9:	3b18e7        	beq	a8, a14, 400d4928 <is_ptr+0x5c>
400d48ec:	c0c8b2        	addi	a11, a8, -64
400d48ef:	74b0b0        	extui	a11, a11, 0, 8
400d48f2:	163cb7        	bltu	a12, a11, 400d490c <is_ptr+0x40>
400d48f5:	000a06        	j	400d4921 <is_ptr+0x55>
400d48f8:	c0c8b2        	addi	a11, a8, -64
400d48fb:	74b0b0        	extui	a11, a11, 0, 8
400d48fe:	0a3cb7        	bltu	a12, a11, 400d490c <is_ptr+0x40>
400d4901:	010982        	l8ui	a8, a9, 1
400d4904:	991b      	addi.n	a9, a9, 1
400d4906:	aa1b      	addi.n	a10, a10, 1
400d4908:	a89c      	beqz.n	a8, 400d4926 <is_ptr+0x5a>
400d490a:	0d2d      	mov.n	a2, a13
400d490c:	0598f7        	bne	a8, a15, 400d4915 <is_ptr+0x49>
400d490f:	308240        	xor	a8, a2, a4
400d4912:	742080        	extui	a2, a8, 0, 8
400d4915:	991b      	addi.n	a9, a9, 1
400d4917:	000982        	l8ui	a8, a9, 0
400d491a:	fc6856        	bnez	a8, 400d48e4 <is_ptr+0x18>
400d491d:	000146        	j	400d4926 <is_ptr+0x5a>
400d4920:	00          	.byte 00
400d4921:	020c      	movi.n	a2, 0
400d4923:	000046        	j	400d4928 <is_ptr+0x5c>
400d4926:	082d      	mov.n	a2, a8
400d4928:	f01d      	retw.n
	...

400d492c <chunk_size>:
400d492c:	004136        	entry	a1, 32
400d492f:	b02320        	addx8	a2, a3, a2
400d4932:	011222        	l16ui	a2, a2, 2
400d4935:	412120        	srli	a2, a2, 1
400d4938:	f01d      	retw.n
	...

400d493c <set_chunk_used>:
400d493c:	004136        	entry	a1, 32
400d493f:	b02320        	addx8	a2, a3, a2
400d4942:	011292        	l16ui	a9, a2, 2
400d4945:	e87c      	movi.n	a8, -2
400d4947:	108980        	and	a8, a9, a8
400d494a:	348c      	beqz.n	a4, 400d4951 <set_chunk_used+0x15>
400d494c:	180c      	movi.n	a8, 1
400d494e:	208980        	or	a8, a9, a8
400d4951:	015282        	s16i	a8, a2, 2
400d4954:	f01d      	retw.n
	...

400d4958 <free_list_remove_bidx>:
400d4958:	004136        	entry	a1, 32
400d495b:	b0a320        	addx8	a10, a3, a2
400d495e:	031a82        	l16ui	a8, a10, 6
400d4961:	944b      	addi.n	a9, a4, 4
400d4963:	199387        	bne	a3, a8, 400d4980 <free_list_remove_bidx+0x28>
400d4966:	e87c      	movi.n	a8, -2
400d4968:	401400        	ssl	a4
400d496b:	818880        	src	a8, a8, a8
400d496e:	3248      	l32i.n	a4, a2, 12
400d4970:	a09920        	addx4	a9, a9, a2
400d4973:	104480        	and	a4, a4, a8
400d4976:	3249      	s32i.n	a4, a2, 12
400d4978:	020c      	movi.n	a2, 0
400d497a:	0929      	s32i.n	a2, a9, 0
400d497c:	000506        	j	400d4994 <free_list_remove_bidx+0x3c>
400d497f:	00          	.byte 00
400d4980:	021a42        	l16ui	a4, a10, 4
400d4983:	a09920        	addx4	a9, a9, a2
400d4986:	0989      	s32i.n	a8, a9, 0
400d4988:	b03420        	addx8	a3, a4, a2
400d498b:	035382        	s16i	a8, a3, 6
400d498e:	b08820        	addx8	a8, a8, a2
400d4991:	025842        	s16i	a4, a8, 4
400d4994:	f01d      	retw.n
	...

400d4998 <free_space>:
400d4998:	004136        	entry	a1, 32
400d499b:	029d      	mov.n	a9, a2
400d499d:	4228      	l32i.n	a2, a2, 16
400d499f:	8a0c      	movi.n	a10, 8
400d49a1:	10aa20        	and	a10, a10, a2
400d49a4:	080c      	movi.n	a8, 0
400d49a6:	082d      	mov.n	a2, a8
400d49a8:	159a87        	bne	a10, a8, 400d49c1 <free_space+0x29>
400d49ab:	3928      	l32i.n	a2, a9, 12
400d49ad:	0988      	l32i.n	a8, a9, 0
400d49af:	07b827        	bgeu	a8, a2, 400d49ba <free_space+0x22>
400d49b2:	c08280        	sub	a8, a2, a8
400d49b5:	0a2d      	mov.n	a2, a10
400d49b7:	000186        	j	400d49c1 <free_space+0x29>
400d49ba:	8928      	l32i.n	a2, a9, 32
400d49bc:	c08280        	sub	a8, a2, a8
400d49bf:	120c      	movi.n	a2, 1
400d49c1:	0389      	s32i.n	a8, a3, 0
400d49c3:	f01d      	retw.n
400d49c5:	000000        	ill

400d49c8 <idx_inc>:
400d49c8:	004136        	entry	a1, 32
400d49cb:	8288      	l32i.n	a8, a2, 32
400d49cd:	4228      	l32i.n	a2, a2, 16
400d49cf:	343a      	add.n	a3, a4, a3
400d49d1:	076207        	bbci	a2, 0, 400d49dc <idx_inc+0x14>
400d49d4:	880b      	addi.n	a8, a8, -1
400d49d6:	103380        	and	a3, a3, a8
400d49d9:	000146        	j	400d49e2 <idx_inc+0x1a>
400d49dc:	023387        	bltu	a3, a8, 400d49e2 <idx_inc+0x1a>
400d49df:	c03380        	sub	a3, a3, a8
400d49e2:	032d      	mov.n	a2, a3
400d49e4:	f01d      	retw.n
	...

400d49e8 <mpsc_pbuf_is_pending>:
400d49e8:	004136        	entry	a1, 32
400d49eb:	4288      	l32i.n	a8, a2, 16
400d49ed:	2298      	l32i.n	a9, a2, 8
400d49ef:	07e837        	bbsi	a8, 3, 400d49fa <mpsc_pbuf_is_pending+0x12>
400d49f2:	12a8      	l32i.n	a10, a2, 4
400d49f4:	c08a90        	sub	a8, a10, a9
400d49f7:	04ba97        	bgeu	a10, a9, 400d49ff <mpsc_pbuf_is_pending+0x17>
400d49fa:	8288      	l32i.n	a8, a2, 32
400d49fc:	c08890        	sub	a8, a8, a9
400d49ff:	090c      	movi.n	a9, 0
400d4a01:	120c      	movi.n	a2, 1
400d4a03:	832980        	moveqz	a2, a9, a8
400d4a06:	f01d      	retw.n

400d4a08 <_ConfigAbsSyms>:
400d4a08:	004136        	entry	a1, 32
400d4a0b:	f01d      	retw.n
400d4a0d:	000000        	ill

400d4a10 <sys_trace_idle>:
400d4a10:	004136        	entry	a1, 32
400d4a13:	f01d      	retw.n
400d4a15:	000000        	ill

400d4a18 <_stdout_hook_default>:
400d4a18:	004136        	entry	a1, 32
400d4a1b:	f27c      	movi.n	a2, -1
400d4a1d:	f01d      	retw.n
	...

400d4a20 <z_xt_ints_on>:
400d4a20:	004136        	entry	a1, 32
400d4a23:	03e480        	rsr.intenable	a8
400d4a26:	202280        	or	a2, a2, a8
400d4a29:	13e420        	wsr.intenable	a2
400d4a2c:	002010        	rsync
400d4a2f:	f01d      	retw.n
400d4a31:	000000        	ill

400d4a34 <z_xt_ints_off>:
400d4a34:	004136        	entry	a1, 32
400d4a37:	03e490        	rsr.intenable	a9
400d4a3a:	f87c      	movi.n	a8, -1
400d4a3c:	308820        	xor	a8, a8, a2
400d4a3f:	108890        	and	a8, a8, a9
400d4a42:	13e480        	wsr.intenable	a8
400d4a45:	002010        	rsync
400d4a48:	f01d      	retw.n
	...

400d4a4c <clock_control_esp32_async_on>:
400d4a4c:	004136        	entry	a1, 32
400d4a4f:	7aaf22        	movi	a2, -134
400d4a52:	f01d      	retw.n

400d4a54 <gpio_esp32_port_get_raw>:
400d4a54:	004136        	entry	a1, 32
400d4a57:	1298      	l32i.n	a9, a2, 4
400d4a59:	2988      	l32i.n	a8, a9, 8
400d4a5b:	3998      	l32i.n	a9, a9, 12
400d4a5d:	79cc      	bnez.n	a9, 400d4a68 <gpio_esp32_port_get_raw+0x14>
400d4a5f:	0020c0        	memw
400d4a62:	f888      	l32i.n	a8, a8, 60
400d4a64:	000246        	j	400d4a71 <gpio_esp32_port_get_raw+0x1d>
400d4a67:	00          	.byte 00
400d4a68:	0020c0        	memw
400d4a6b:	400882        	l8ui	a8, a8, 64
400d4a6e:	748080        	extui	a8, a8, 0, 8
400d4a71:	0389      	s32i.n	a8, a3, 0
400d4a73:	020c      	movi.n	a2, 0
400d4a75:	f01d      	retw.n
	...

400d4a78 <gpio_esp32_port_set_masked_raw>:
400d4a78:	004136        	entry	a1, 32
400d4a7b:	1288      	l32i.n	a8, a2, 4
400d4a7d:	0063a0        	rsil	a10, 3
400d4a80:	38b8      	l32i.n	a11, a8, 12
400d4a82:	2898      	l32i.n	a9, a8, 8
400d4a84:	4bdc      	bnez.n	a11, 400d4a9c <gpio_esp32_port_set_masked_raw+0x24>
400d4a86:	0020c0        	memw
400d4a89:	1988      	l32i.n	a8, a9, 4
400d4a8b:	304840        	xor	a4, a8, a4
400d4a8e:	104430        	and	a4, a4, a3
400d4a91:	304480        	xor	a4, a4, a8
400d4a94:	0020c0        	memw
400d4a97:	1949      	s32i.n	a4, a9, 4
400d4a99:	000686        	j	400d4ab7 <gpio_esp32_port_set_masked_raw+0x3f>
400d4a9c:	0020c0        	memw
400d4a9f:	100982        	l8ui	a8, a9, 16
400d4aa2:	748080        	extui	a8, a8, 0, 8
400d4aa5:	304840        	xor	a4, a8, a4
400d4aa8:	104430        	and	a4, a4, a3
400d4aab:	308840        	xor	a8, a8, a4
400d4aae:	748080        	extui	a8, a8, 0, 8
400d4ab1:	0020c0        	memw
400d4ab4:	104982        	s8i	a8, a9, 16
400d4ab7:	13e6a0        	wsr.ps	a10
400d4aba:	002010        	rsync
400d4abd:	020c      	movi.n	a2, 0
400d4abf:	f01d      	retw.n
400d4ac1:	000000        	ill

400d4ac4 <gpio_esp32_port_set_bits_raw>:
400d4ac4:	004136        	entry	a1, 32
400d4ac7:	1298      	l32i.n	a9, a2, 4
400d4ac9:	2988      	l32i.n	a8, a9, 8
400d4acb:	3998      	l32i.n	a9, a9, 12
400d4acd:	79cc      	bnez.n	a9, 400d4ad8 <gpio_esp32_port_set_bits_raw+0x14>
400d4acf:	0020c0        	memw
400d4ad2:	2839      	s32i.n	a3, a8, 8
400d4ad4:	000246        	j	400d4ae1 <gpio_esp32_port_set_bits_raw+0x1d>
400d4ad7:	00          	.byte 00
400d4ad8:	743030        	extui	a3, a3, 0, 8
400d4adb:	0020c0        	memw
400d4ade:	144832        	s8i	a3, a8, 20
400d4ae1:	020c      	movi.n	a2, 0
400d4ae3:	f01d      	retw.n
400d4ae5:	000000        	ill

400d4ae8 <gpio_esp32_port_clear_bits_raw>:
400d4ae8:	004136        	entry	a1, 32
400d4aeb:	1298      	l32i.n	a9, a2, 4
400d4aed:	2988      	l32i.n	a8, a9, 8
400d4aef:	3998      	l32i.n	a9, a9, 12
400d4af1:	79cc      	bnez.n	a9, 400d4afc <gpio_esp32_port_clear_bits_raw+0x14>
400d4af3:	0020c0        	memw
400d4af6:	3839      	s32i.n	a3, a8, 12
400d4af8:	000246        	j	400d4b05 <gpio_esp32_port_clear_bits_raw+0x1d>
400d4afb:	00          	.byte 00
400d4afc:	743030        	extui	a3, a3, 0, 8
400d4aff:	0020c0        	memw
400d4b02:	184832        	s8i	a3, a8, 24
400d4b05:	020c      	movi.n	a2, 0
400d4b07:	f01d      	retw.n
400d4b09:	000000        	ill

400d4b0c <gpio_esp32_port_toggle_bits>:
400d4b0c:	004136        	entry	a1, 32
400d4b0f:	1288      	l32i.n	a8, a2, 4
400d4b11:	0063a0        	rsil	a10, 3
400d4b14:	3898      	l32i.n	a9, a8, 12
400d4b16:	2888      	l32i.n	a8, a8, 8
400d4b18:	09dc      	bnez.n	a9, 400d4b2c <gpio_esp32_port_toggle_bits+0x20>
400d4b1a:	0020c0        	memw
400d4b1d:	1898      	l32i.n	a9, a8, 4
400d4b1f:	309930        	xor	a9, a9, a3
400d4b22:	0020c0        	memw
400d4b25:	1899      	s32i.n	a9, a8, 4
400d4b27:	0004c6        	j	400d4b3e <gpio_esp32_port_toggle_bits+0x32>
400d4b2a:	00          	.byte 00
400d4b2b:	00          	.byte 00
400d4b2c:	0020c0        	memw
400d4b2f:	100892        	l8ui	a9, a8, 16
400d4b32:	303390        	xor	a3, a3, a9
400d4b35:	743030        	extui	a3, a3, 0, 8
400d4b38:	0020c0        	memw
400d4b3b:	104832        	s8i	a3, a8, 16
400d4b3e:	13e6a0        	wsr.ps	a10
400d4b41:	002010        	rsync
400d4b44:	020c      	movi.n	a2, 0
400d4b46:	f01d      	retw.n

400d4b48 <gpio_esp32_manage_callback>:
400d4b48:	004136        	entry	a1, 32
400d4b4b:	4288      	l32i.n	a8, a2, 16
400d4b4d:	744040        	extui	a4, a4, 0, 8
400d4b50:	1898      	l32i.n	a9, a8, 4
400d4b52:	a9bc      	beqz.n	a9, 400d4b90 <gpio_esp32_manage_callback+0x48>
400d4b54:	319937        	bne	a9, a3, 400d4b89 <gpio_esp32_manage_callback+0x41>
400d4b57:	0001c6        	j	400d4b62 <gpio_esp32_manage_callback+0x1a>
400d4b5a:	00          	.byte 00
400d4b5b:	00          	.byte 00
400d4b5c:	299397        	bne	a3, a9, 400d4b89 <gpio_esp32_manage_callback+0x41>
400d4b5f:	000186        	j	400d4b69 <gpio_esp32_manage_callback+0x21>
400d4b62:	0328      	l32i.n	a2, a3, 0
400d4b64:	1829      	s32i.n	a2, a8, 4
400d4b66:	0000c6        	j	400d4b6d <gpio_esp32_manage_callback+0x25>
400d4b69:	0398      	l32i.n	a9, a3, 0
400d4b6b:	0299      	s32i.n	a9, a2, 0
400d4b6d:	2898      	l32i.n	a9, a8, 8
400d4b6f:	019397        	bne	a3, a9, 400d4b74 <gpio_esp32_manage_callback+0x2c>
400d4b72:	2829      	s32i.n	a2, a8, 8
400d4b74:	020c      	movi.n	a2, 0
400d4b76:	0329      	s32i.n	a2, a3, 0
400d4b78:	1e1427        	beq	a4, a2, 400d4b9a <gpio_esp32_manage_callback+0x52>
400d4b7b:	1828      	l32i.n	a2, a8, 4
400d4b7d:	0329      	s32i.n	a2, a3, 0
400d4b7f:	2828      	l32i.n	a2, a8, 8
400d4b81:	1839      	s32i.n	a3, a8, 4
400d4b83:	32dc      	bnez.n	a2, 400d4b9a <gpio_esp32_manage_callback+0x52>
400d4b85:	0003c6        	j	400d4b98 <gpio_esp32_manage_callback+0x50>
400d4b88:	00          	.byte 00
400d4b89:	092d      	mov.n	a2, a9
400d4b8b:	0998      	l32i.n	a9, a9, 0
400d4b8d:	fcb956        	bnez	a9, 400d4b5c <gpio_esp32_manage_callback+0x14>
400d4b90:	a26c      	movi.n	a2, -22
400d4b92:	648c      	beqz.n	a4, 400d4b9c <gpio_esp32_manage_callback+0x54>
400d4b94:	fff8c6        	j	400d4b7b <gpio_esp32_manage_callback+0x33>
400d4b97:	00          	.byte 00
400d4b98:	2839      	s32i.n	a3, a8, 8
400d4b9a:	020c      	movi.n	a2, 0
400d4b9c:	f01d      	retw.n
	...

400d4ba0 <gpio_esp32_get_pending_int>:
400d4ba0:	006136        	entry	a1, 48
400d4ba3:	1298      	l32i.n	a9, a2, 4
400d4ba5:	03f520        	rsr.misc1	a2
400d4ba8:	100282        	l8ui	a8, a2, 16
400d4bab:	1928      	l32i.n	a2, a9, 4
400d4bad:	3998      	l32i.n	a9, a9, 12
400d4baf:	29dc      	bnez.n	a9, 400d4bc5 <gpio_esp32_get_pending_int+0x25>
400d4bb1:	78cc      	bnez.n	a8, 400d4bbc <gpio_esp32_get_pending_int+0x1c>
400d4bb3:	0020c0        	memw
400d4bb6:	1a2222        	l32i	a2, a2, 104
400d4bb9:	000cc6        	j	400d4bf0 <gpio_esp32_get_pending_int+0x50>
400d4bbc:	0020c0        	memw
400d4bbf:	182222        	l32i	a2, a2, 96
400d4bc2:	000a86        	j	400d4bf0 <gpio_esp32_get_pending_int+0x50>
400d4bc5:	38dc      	bnez.n	a8, 400d4bdc <gpio_esp32_get_pending_int+0x3c>
400d4bc7:	0020c0        	memw
400d4bca:	1f2222        	l32i	a2, a2, 124
400d4bcd:	0020c0        	memw
400d4bd0:	1129      	s32i.n	a2, a1, 4
400d4bd2:	0020c0        	memw
400d4bd5:	040122        	l8ui	a2, a1, 4
400d4bd8:	000446        	j	400d4bed <gpio_esp32_get_pending_int+0x4d>
400d4bdb:	00          	.byte 00
400d4bdc:	0020c0        	memw
400d4bdf:	1d2222        	l32i	a2, a2, 116
400d4be2:	0020c0        	memw
400d4be5:	0129      	s32i.n	a2, a1, 0
400d4be7:	0020c0        	memw
400d4bea:	000122        	l8ui	a2, a1, 0
400d4bed:	742020        	extui	a2, a2, 0, 8
400d4bf0:	f01d      	retw.n
	...
